ARM GAS  C:\Users\matij\AppData\Local\Temp\ccLsoMzl.s 			page 1


   1              		.syntax unified
   2              		.cpu cortex-m3
   3              		.fpu softvfp
   4              		.eabi_attribute 20, 1
   5              		.eabi_attribute 21, 1
   6              		.eabi_attribute 23, 3
   7              		.eabi_attribute 24, 1
   8              		.eabi_attribute 25, 1
   9              		.eabi_attribute 26, 1
  10              		.eabi_attribute 30, 1
  11              		.eabi_attribute 34, 1
  12              		.eabi_attribute 18, 4
  13              		.thumb
  14              		.syntax unified
  15              		.file	"BCom_1_BCom.c"
  16              		.text
  17              	.Ltext0:
  18              		.cfi_sections	.debug_frame
  19              		.section	.text.Transport,"ax",%progbits
  20              		.align	2
  21              		.global	Transport
  22              		.thumb
  23              		.thumb_func
  24              		.type	Transport, %function
  25              	Transport:
  26              	.LFB64:
  27              		.file 1 "Generated_Source\\PSoC5\\BCom_1_BCom.c"
   1:Generated_Source\PSoC5/BCom_1_BCom.c **** /* ========================================
   2:Generated_Source\PSoC5/BCom_1_BCom.c ****  *
   3:Generated_Source\PSoC5/BCom_1_BCom.c ****  * Copyright YOUR COMPANY, THE YEAR
   4:Generated_Source\PSoC5/BCom_1_BCom.c ****  * All Rights Reserved
   5:Generated_Source\PSoC5/BCom_1_BCom.c ****  * UNPUBLISHED, LICENSED SOFTWARE.
   6:Generated_Source\PSoC5/BCom_1_BCom.c ****  *
   7:Generated_Source\PSoC5/BCom_1_BCom.c ****  * CONFIDENTIAL AND PROPRIETARY INFORMATION
   8:Generated_Source\PSoC5/BCom_1_BCom.c ****  * WHICH IS THE PROPERTY OF your company.
   9:Generated_Source\PSoC5/BCom_1_BCom.c ****  *
  10:Generated_Source\PSoC5/BCom_1_BCom.c ****  * ========================================
  11:Generated_Source\PSoC5/BCom_1_BCom.c **** */
  12:Generated_Source\PSoC5/BCom_1_BCom.c **** #include "project.h"
  13:Generated_Source\PSoC5/BCom_1_BCom.c **** #include "BCom_1_BCom.h"
  14:Generated_Source\PSoC5/BCom_1_BCom.c **** 
  15:Generated_Source\PSoC5/BCom_1_BCom.c **** // @180219 ^MB Added Transport layer function
  16:Generated_Source\PSoC5/BCom_1_BCom.c **** void Transport(uint8_t * buffer, uint8_t bufferSize) {
  28              		.loc 1 16 0
  29              		.cfi_startproc
  30              		@ args = 0, pretend = 0, frame = 144
  31              		@ frame_needed = 0, uses_anonymous_args = 0
  32              	.LVL0:
  17:Generated_Source\PSoC5/BCom_1_BCom.c ****     if ( bufferSize <= 14 ) return;
  33              		.loc 1 17 0
  34 0000 0E29     		cmp	r1, #14
  35 0002 4ED9     		bls	.L15
  16:Generated_Source\PSoC5/BCom_1_BCom.c ****     if ( bufferSize <= 14 ) return;
  36              		.loc 1 16 0
  37 0004 10B5     		push	{r4, lr}
  38              		.cfi_def_cfa_offset 8
  39              		.cfi_offset 4, -8
ARM GAS  C:\Users\matij\AppData\Local\Temp\ccLsoMzl.s 			page 2


  40              		.cfi_offset 14, -4
  41 0006 A4B0     		sub	sp, sp, #144
  42              		.cfi_def_cfa_offset 152
  18:Generated_Source\PSoC5/BCom_1_BCom.c ****     
  19:Generated_Source\PSoC5/BCom_1_BCom.c ****     unsigned char input[128];
  20:Generated_Source\PSoC5/BCom_1_BCom.c ****     uint8 inpLength = b64_decode(buffer,bufferSize,input);
  43              		.loc 1 20 0
  44 0008 04AC     		add	r4, sp, #16
  45 000a 2246     		mov	r2, r4
  46 000c FFF7FEFF 		bl	b64_decode
  47              	.LVL1:
  48 0010 C0B2     		uxtb	r0, r0
  49              	.LVL2:
  21:Generated_Source\PSoC5/BCom_1_BCom.c ****     
  22:Generated_Source\PSoC5/BCom_1_BCom.c ****     uint16_t CRC = (input[inpLength] << 8) | input[inpLength+1];
  50              		.loc 1 22 0
  51 0012 24AB     		add	r3, sp, #144
  52 0014 0344     		add	r3, r3, r0
  53 0016 13F8801C 		ldrb	r1, [r3, #-128]	@ zero_extendqisi2
  54 001a 421C     		adds	r2, r0, #1
  55 001c 24AB     		add	r3, sp, #144
  56 001e 1A44     		add	r2, r2, r3
  57 0020 12F8803C 		ldrb	r3, [r2, #-128]	@ zero_extendqisi2
  58 0024 43EA0123 		orr	r3, r3, r1, lsl #8
  59              	.LVL3:
  23:Generated_Source\PSoC5/BCom_1_BCom.c ****     input[inpLength-2] = '\0';
  60              		.loc 1 23 0
  61 0028 821E     		subs	r2, r0, #2
  62 002a 24A9     		add	r1, sp, #144
  63 002c 0A44     		add	r2, r2, r1
  64 002e 0021     		movs	r1, #0
  65 0030 02F8801C 		strb	r1, [r2, #-128]
  24:Generated_Source\PSoC5/BCom_1_BCom.c ****     struct BComFrame_s Frame;
  25:Generated_Source\PSoC5/BCom_1_BCom.c ****     Frame.Header = ( struct FrameHeader_s * ) &input[0];
  66              		.loc 1 25 0
  67 0034 0194     		str	r4, [sp, #4]
  26:Generated_Source\PSoC5/BCom_1_BCom.c ****     Frame.CRC = CRC;
  68              		.loc 1 26 0
  69 0036 ADF80830 		strh	r3, [sp, #8]	@ movhi
  27:Generated_Source\PSoC5/BCom_1_BCom.c ****     Frame.Lenght = inpLength-14;
  70              		.loc 1 27 0
  71 003a 0E38     		subs	r0, r0, #14
  72              	.LVL4:
  73 003c 8DF80A00 		strb	r0, [sp, #10]
  28:Generated_Source\PSoC5/BCom_1_BCom.c ****     Frame.Payload = &input[12];
  74              		.loc 1 28 0
  75 0040 07AB     		add	r3, sp, #28
  76              	.LVL5:
  77 0042 0393     		str	r3, [sp, #12]
  78              	.LVL6:
  29:Generated_Source\PSoC5/BCom_1_BCom.c ****     
  30:Generated_Source\PSoC5/BCom_1_BCom.c ****     uint8_t accept = 0x00;
  31:Generated_Source\PSoC5/BCom_1_BCom.c ****     switch ((Frame.Header->Target >> 30)) {
  79              		.loc 1 31 0
  80 0044 049B     		ldr	r3, [sp, #16]
  81 0046 9A0F     		lsrs	r2, r3, #30
  82 0048 03D0     		beq	.L4
ARM GAS  C:\Users\matij\AppData\Local\Temp\ccLsoMzl.s 			page 3


  83 004a 032A     		cmp	r2, #3
  84 004c 09D0     		beq	.L12
  30:Generated_Source\PSoC5/BCom_1_BCom.c ****     switch ((Frame.Header->Target >> 30)) {
  85              		.loc 1 30 0
  86 004e 0B46     		mov	r3, r1
  87 0050 0AE0     		b	.L5
  88              	.L4:
  32:Generated_Source\PSoC5/BCom_1_BCom.c ****         case 0: // Unicast 
  33:Generated_Source\PSoC5/BCom_1_BCom.c ****             if ( ( Frame.Header->Target & 0x3FFFFFFF ) == Config.Network.UID ) 
  89              		.loc 1 33 0
  90 0052 23F04043 		bic	r3, r3, #-1073741824
  91 0056 134A     		ldr	r2, .L16
  92 0058 5268     		ldr	r2, [r2, #4]
  93 005a 9342     		cmp	r3, r2
  94 005c 03D0     		beq	.L13
  30:Generated_Source\PSoC5/BCom_1_BCom.c ****     switch ((Frame.Header->Target >> 30)) {
  95              		.loc 1 30 0
  96 005e 0023     		movs	r3, #0
  97 0060 02E0     		b	.L5
  98              	.L12:
  34:Generated_Source\PSoC5/BCom_1_BCom.c ****                 accept = 0xFF;
  35:Generated_Source\PSoC5/BCom_1_BCom.c ****         break;
  36:Generated_Source\PSoC5/BCom_1_BCom.c ****         case 1: // Multicast
  37:Generated_Source\PSoC5/BCom_1_BCom.c ****                 
  38:Generated_Source\PSoC5/BCom_1_BCom.c ****         break;
  39:Generated_Source\PSoC5/BCom_1_BCom.c ****         case 2: // Reserved
  40:Generated_Source\PSoC5/BCom_1_BCom.c ****                 
  41:Generated_Source\PSoC5/BCom_1_BCom.c ****         break;
  42:Generated_Source\PSoC5/BCom_1_BCom.c ****         case 3: // Broadcast
  43:Generated_Source\PSoC5/BCom_1_BCom.c ****             accept = 0xFF;                
  99              		.loc 1 43 0
 100 0062 FF23     		movs	r3, #255
 101 0064 00E0     		b	.L5
 102              	.L13:
  34:Generated_Source\PSoC5/BCom_1_BCom.c ****                 accept = 0xFF;
 103              		.loc 1 34 0
 104 0066 FF23     		movs	r3, #255
 105              	.L5:
 106              	.LVL7:
  44:Generated_Source\PSoC5/BCom_1_BCom.c ****         break;
  45:Generated_Source\PSoC5/BCom_1_BCom.c ****     }
  46:Generated_Source\PSoC5/BCom_1_BCom.c ****     
  47:Generated_Source\PSoC5/BCom_1_BCom.c ****     if ( accept ) {
 107              		.loc 1 47 0
 108 0068 CBB1     		cbz	r3, .L1
  48:Generated_Source\PSoC5/BCom_1_BCom.c ****         //if ( Frame.Header->Parameter.Ack ) {
  49:Generated_Source\PSoC5/BCom_1_BCom.c ****             
  50:Generated_Source\PSoC5/BCom_1_BCom.c ****         //}
  51:Generated_Source\PSoC5/BCom_1_BCom.c ****         if ( Frame.Header->Parameter.Port == 1 ) {
 109              		.loc 1 51 0
 110 006a 9DF81910 		ldrb	r1, [sp, #25]	@ zero_extendqisi2
 111 006e 0129     		cmp	r1, #1
 112 0070 06D1     		bne	.L7
  52:Generated_Source\PSoC5/BCom_1_BCom.c ****             //DCP_Handler(&Frame); 
  53:Generated_Source\PSoC5/BCom_1_BCom.c ****             if ( Config.Ports.DCP ) Config.Ports.DCP(&Frame);
 113              		.loc 1 53 0
 114 0072 0C4B     		ldr	r3, .L16
ARM GAS  C:\Users\matij\AppData\Local\Temp\ccLsoMzl.s 			page 4


 115              	.LVL8:
 116 0074 D3F8A030 		ldr	r3, [r3, #160]
 117 0078 8BB1     		cbz	r3, .L1
 118              		.loc 1 53 0 is_stmt 0 discriminator 1
 119 007a 01A8     		add	r0, sp, #4
 120              	.LVL9:
 121 007c 9847     		blx	r3
 122              	.LVL10:
 123 007e 0EE0     		b	.L1
 124              	.LVL11:
 125              	.L7:
 126              	.LBB2:
  54:Generated_Source\PSoC5/BCom_1_BCom.c ****         } else {
  55:Generated_Source\PSoC5/BCom_1_BCom.c ****             struct PortHandle_s * Entry = Config.Ports.List;
 127              		.loc 1 55 0 is_stmt 1
 128 0080 084B     		ldr	r3, .L16
 129              	.LVL12:
 130 0082 D3F8A430 		ldr	r3, [r3, #164]
 131              	.LVL13:
  56:Generated_Source\PSoC5/BCom_1_BCom.c ****             while ( Entry != NULL ) {
 132              		.loc 1 56 0
 133 0086 08E0     		b	.L8
 134              	.L10:
  57:Generated_Source\PSoC5/BCom_1_BCom.c ****                 if ( Entry->Port == Frame.Header->Parameter.Port ) {
 135              		.loc 1 57 0
 136 0088 1A78     		ldrb	r2, [r3]	@ zero_extendqisi2
 137 008a 9142     		cmp	r1, r2
 138 008c 04D1     		bne	.L9
  58:Generated_Source\PSoC5/BCom_1_BCom.c ****                     if ( Entry->Handle != NULL ) {
 139              		.loc 1 58 0
 140 008e 5B68     		ldr	r3, [r3, #4]
 141              	.LVL14:
 142 0090 2BB1     		cbz	r3, .L1
  59:Generated_Source\PSoC5/BCom_1_BCom.c ****                         Entry->Handle(&Frame);
 143              		.loc 1 59 0
 144 0092 01A8     		add	r0, sp, #4
 145              	.LVL15:
 146 0094 9847     		blx	r3
 147              	.LVL16:
 148 0096 02E0     		b	.L1
 149              	.LVL17:
 150              	.L9:
  60:Generated_Source\PSoC5/BCom_1_BCom.c ****                     }
  61:Generated_Source\PSoC5/BCom_1_BCom.c ****                     break;
  62:Generated_Source\PSoC5/BCom_1_BCom.c ****                 } else {
  63:Generated_Source\PSoC5/BCom_1_BCom.c ****                     Entry = Entry->next;    
 151              		.loc 1 63 0
 152 0098 9B68     		ldr	r3, [r3, #8]
 153              	.LVL18:
 154              	.L8:
  56:Generated_Source\PSoC5/BCom_1_BCom.c ****                 if ( Entry->Port == Frame.Header->Parameter.Port ) {
 155              		.loc 1 56 0
 156 009a 002B     		cmp	r3, #0
 157 009c F4D1     		bne	.L10
 158              	.LVL19:
 159              	.L1:
 160              	.LBE2:
ARM GAS  C:\Users\matij\AppData\Local\Temp\ccLsoMzl.s 			page 5


  64:Generated_Source\PSoC5/BCom_1_BCom.c ****                 }
  65:Generated_Source\PSoC5/BCom_1_BCom.c ****             }
  66:Generated_Source\PSoC5/BCom_1_BCom.c ****         }    
  67:Generated_Source\PSoC5/BCom_1_BCom.c ****     }
  68:Generated_Source\PSoC5/BCom_1_BCom.c **** }
 161              		.loc 1 68 0
 162 009e 24B0     		add	sp, sp, #144
 163              		.cfi_def_cfa_offset 8
 164              		@ sp needed
 165 00a0 10BD     		pop	{r4, pc}
 166              	.LVL20:
 167              	.L15:
 168              		.cfi_def_cfa_offset 0
 169              		.cfi_restore 4
 170              		.cfi_restore 14
 171 00a2 7047     		bx	lr
 172              	.L17:
 173              		.align	2
 174              	.L16:
 175 00a4 00000000 		.word	Config
 176              		.cfi_endproc
 177              	.LFE64:
 178              		.size	Transport, .-Transport
 179              		.section	.text.Transmit,"ax",%progbits
 180              		.align	2
 181              		.global	Transmit
 182              		.thumb
 183              		.thumb_func
 184              		.type	Transmit, %function
 185              	Transmit:
 186              	.LFB65:
  69:Generated_Source\PSoC5/BCom_1_BCom.c **** 
  70:Generated_Source\PSoC5/BCom_1_BCom.c **** void Transmit(uint32_t Target, unsigned char * PayloadIn, uint8_t Size) {
 187              		.loc 1 70 0
 188              		.cfi_startproc
 189              		@ args = 0, pretend = 0, frame = 256
 190              		@ frame_needed = 0, uses_anonymous_args = 0
 191              	.LVL21:
 192 0000 30B5     		push	{r4, r5, lr}
 193              		.cfi_def_cfa_offset 12
 194              		.cfi_offset 4, -12
 195              		.cfi_offset 5, -8
 196              		.cfi_offset 14, -4
 197 0002 C1B0     		sub	sp, sp, #260
 198              		.cfi_def_cfa_offset 272
 199 0004 1546     		mov	r5, r2
 200              	.LVL22:
  71:Generated_Source\PSoC5/BCom_1_BCom.c ****     uint8 length = 12, ptr; // 20
  72:Generated_Source\PSoC5/BCom_1_BCom.c ****         unsigned char output[128];
  73:Generated_Source\PSoC5/BCom_1_BCom.c ****         unsigned char SerialOut[128];
  74:Generated_Source\PSoC5/BCom_1_BCom.c ****         unsigned char * payload = &output[12];
  75:Generated_Source\PSoC5/BCom_1_BCom.c ****         struct FrameHeader_s * Frame = ( struct FrameHeader_s * ) &output[0];
  76:Generated_Source\PSoC5/BCom_1_BCom.c **** 
  77:Generated_Source\PSoC5/BCom_1_BCom.c ****         Frame->Target = Target;
 201              		.loc 1 77 0
 202 0006 2090     		str	r0, [sp, #128]
  78:Generated_Source\PSoC5/BCom_1_BCom.c ****         Frame->Source = Config.Network.UID;
ARM GAS  C:\Users\matij\AppData\Local\Temp\ccLsoMzl.s 			page 6


 203              		.loc 1 78 0
 204 0008 204A     		ldr	r2, .L22
 205              	.LVL23:
 206 000a 5368     		ldr	r3, [r2, #4]
 207 000c 2193     		str	r3, [sp, #132]
  79:Generated_Source\PSoC5/BCom_1_BCom.c ****         
  80:Generated_Source\PSoC5/BCom_1_BCom.c ****         System_u.System.AckReq = 0;
 208              		.loc 1 80 0
 209 000e 2048     		ldr	r0, .L22+4
 210              	.LVL24:
 211 0010 0378     		ldrb	r3, [r0]	@ zero_extendqisi2
  81:Generated_Source\PSoC5/BCom_1_BCom.c ****         System_u.System.Ack = 0;
  82:Generated_Source\PSoC5/BCom_1_BCom.c ****         System_u.System.Nack = 0;
  83:Generated_Source\PSoC5/BCom_1_BCom.c ****         System_u.System.Encrypted = 0;
  84:Generated_Source\PSoC5/BCom_1_BCom.c ****         System_u.System.Ping = 0;
  85:Generated_Source\PSoC5/BCom_1_BCom.c ****         System_u.System.RFU = 0;
 212              		.loc 1 85 0
 213 0012 03F0E003 		and	r3, r3, #224
 214 0016 6FF34713 		bfc	r3, #5, #3
 215 001a 0370     		strb	r3, [r0]
  86:Generated_Source\PSoC5/BCom_1_BCom.c ****         
  87:Generated_Source\PSoC5/BCom_1_BCom.c ****         Frame->Parameter.System = System_u.byteVal;
 216              		.loc 1 87 0
 217 001c 8DF88830 		strb	r3, [sp, #136]
  88:Generated_Source\PSoC5/BCom_1_BCom.c ****         Frame->Parameter.Port = 10;
 218              		.loc 1 88 0
 219 0020 0A23     		movs	r3, #10
 220 0022 8DF88930 		strb	r3, [sp, #137]
  89:Generated_Source\PSoC5/BCom_1_BCom.c ****         Frame->Parameter.FrameNr = (uint16) Config.Network.FrameCounter++;
 221              		.loc 1 89 0
 222 0026 D369     		ldr	r3, [r2, #28]
 223 0028 581C     		adds	r0, r3, #1
 224 002a D061     		str	r0, [r2, #28]
 225 002c ADF88A30 		strh	r3, [sp, #138]	@ movhi
 226              	.LVL25:
  90:Generated_Source\PSoC5/BCom_1_BCom.c **** 
  91:Generated_Source\PSoC5/BCom_1_BCom.c ****         for ( ptr = 0 ; ptr < Size ; ptr++ ) {
 227              		.loc 1 91 0
 228 0030 0024     		movs	r4, #0
 229 0032 04E0     		b	.L19
 230              	.LVL26:
 231              	.L20:
  92:Generated_Source\PSoC5/BCom_1_BCom.c ****         payload[ptr] = PayloadIn[ptr];
 232              		.loc 1 92 0 discriminator 3
 233 0034 0A5D     		ldrb	r2, [r1, r4]	@ zero_extendqisi2
 234 0036 23AB     		add	r3, sp, #140
 235              	.LVL27:
 236 0038 1A55     		strb	r2, [r3, r4]
  91:Generated_Source\PSoC5/BCom_1_BCom.c ****         payload[ptr] = PayloadIn[ptr];
 237              		.loc 1 91 0 discriminator 3
 238 003a 0134     		adds	r4, r4, #1
 239              	.LVL28:
 240 003c E4B2     		uxtb	r4, r4
 241              	.LVL29:
 242              	.L19:
  91:Generated_Source\PSoC5/BCom_1_BCom.c ****         payload[ptr] = PayloadIn[ptr];
 243              		.loc 1 91 0 is_stmt 0 discriminator 1
ARM GAS  C:\Users\matij\AppData\Local\Temp\ccLsoMzl.s 			page 7


 244 003e AC42     		cmp	r4, r5
 245 0040 F8D3     		bcc	.L20
  93:Generated_Source\PSoC5/BCom_1_BCom.c ****         }
  94:Generated_Source\PSoC5/BCom_1_BCom.c ****         length += Size; 
 246              		.loc 1 94 0 is_stmt 1
 247 0042 05F10C01 		add	r1, r5, #12
 248              	.LVL30:
  95:Generated_Source\PSoC5/BCom_1_BCom.c **** 
  96:Generated_Source\PSoC5/BCom_1_BCom.c ****         uint16_t crc = crc_16(output,length);
 249              		.loc 1 96 0
 250 0046 C9B2     		uxtb	r1, r1
 251 0048 20A8     		add	r0, sp, #128
 252              	.LVL31:
 253 004a FFF7FEFF 		bl	crc_16
 254              	.LVL32:
  97:Generated_Source\PSoC5/BCom_1_BCom.c **** 
  98:Generated_Source\PSoC5/BCom_1_BCom.c ****         payload[ptr++] = (uint8_t) (crc & 0xFF);
 255              		.loc 1 98 0
 256 004e 631C     		adds	r3, r4, #1
 257 0050 DBB2     		uxtb	r3, r3
 258              	.LVL33:
 259 0052 23AA     		add	r2, sp, #140
 260              	.LVL34:
 261 0054 1055     		strb	r0, [r2, r4]
 262              	.LVL35:
  99:Generated_Source\PSoC5/BCom_1_BCom.c ****         payload[ptr++] = (uint8_t) ((crc >> 8 ) & 0xFF);
 263              		.loc 1 99 0
 264 0056 C0F30720 		ubfx	r0, r0, #8, #8
 265              	.LVL36:
 266 005a D054     		strb	r0, [r2, r3]
 100:Generated_Source\PSoC5/BCom_1_BCom.c ****         length += 2;
 267              		.loc 1 100 0
 268 005c 05F10E01 		add	r1, r5, #14
 269              	.LVL37:
 101:Generated_Source\PSoC5/BCom_1_BCom.c **** 
 102:Generated_Source\PSoC5/BCom_1_BCom.c ****         length= b64_encode( &output[0],length,&SerialOut[1]);
 270              		.loc 1 102 0
 271 0060 0DF10102 		add	r2, sp, #1
 272              	.LVL38:
 273 0064 C9B2     		uxtb	r1, r1
 274 0066 20A8     		add	r0, sp, #128
 275              	.LVL39:
 276 0068 FFF7FEFF 		bl	b64_encode
 277              	.LVL40:
 278 006c C0B2     		uxtb	r0, r0
 279              	.LVL41:
 103:Generated_Source\PSoC5/BCom_1_BCom.c ****         SerialOut[0] = ':';
 280              		.loc 1 103 0
 281 006e 3A23     		movs	r3, #58
 282 0070 8DF80030 		strb	r3, [sp]
 104:Generated_Source\PSoC5/BCom_1_BCom.c ****         SerialOut[length+1] = '\n';
 283              		.loc 1 104 0
 284 0074 431C     		adds	r3, r0, #1
 285 0076 0A22     		movs	r2, #10
 286 0078 0DF80320 		strb	r2, [sp, r3]
 105:Generated_Source\PSoC5/BCom_1_BCom.c **** 
 106:Generated_Source\PSoC5/BCom_1_BCom.c ****         UART_PutArray(SerialOut,length+2);
ARM GAS  C:\Users\matij\AppData\Local\Temp\ccLsoMzl.s 			page 8


 287              		.loc 1 106 0
 288 007c 811C     		adds	r1, r0, #2
 289 007e C9B2     		uxtb	r1, r1
 290 0080 6846     		mov	r0, sp
 291              	.LVL42:
 292 0082 FFF7FEFF 		bl	UART_PutArray
 293              	.LVL43:
 107:Generated_Source\PSoC5/BCom_1_BCom.c ****     
 108:Generated_Source\PSoC5/BCom_1_BCom.c **** }
 294              		.loc 1 108 0
 295 0086 41B0     		add	sp, sp, #260
 296              		.cfi_def_cfa_offset 12
 297              		@ sp needed
 298 0088 30BD     		pop	{r4, r5, pc}
 299              	.LVL44:
 300              	.L23:
 301 008a 00BF     		.align	2
 302              	.L22:
 303 008c 00000000 		.word	Config
 304 0090 00000000 		.word	System_u
 305              		.cfi_endproc
 306              	.LFE65:
 307              		.size	Transmit, .-Transmit
 308              		.section	.text.BCom_1_Start,"ax",%progbits
 309              		.align	2
 310              		.global	BCom_1_Start
 311              		.thumb
 312              		.thumb_func
 313              		.type	BCom_1_Start, %function
 314              	BCom_1_Start:
 315              	.LFB66:
 109:Generated_Source\PSoC5/BCom_1_BCom.c **** 
 110:Generated_Source\PSoC5/BCom_1_BCom.c **** void BCom_1_Start() {
 316              		.loc 1 110 0
 317              		.cfi_startproc
 318              		@ args = 0, pretend = 0, frame = 0
 319              		@ frame_needed = 0, uses_anonymous_args = 0
 320              		@ link register save eliminated.
 111:Generated_Source\PSoC5/BCom_1_BCom.c ****     // Clear the ports
 112:Generated_Source\PSoC5/BCom_1_BCom.c ****     Config.Ports.List = NULL;
 321              		.loc 1 112 0
 322 0000 034B     		ldr	r3, .L25
 323 0002 0022     		movs	r2, #0
 324 0004 C3F8A420 		str	r2, [r3, #164]
 113:Generated_Source\PSoC5/BCom_1_BCom.c ****     Config.Ports.DCP = NULL;
 325              		.loc 1 113 0
 326 0008 C3F8A020 		str	r2, [r3, #160]
 327 000c 7047     		bx	lr
 328              	.L26:
 329 000e 00BF     		.align	2
 330              	.L25:
 331 0010 00000000 		.word	Config
 332              		.cfi_endproc
 333              	.LFE66:
 334              		.size	BCom_1_Start, .-BCom_1_Start
 335              		.comm	Config,168,4
 336              		.comm	System_u,1,4
ARM GAS  C:\Users\matij\AppData\Local\Temp\ccLsoMzl.s 			page 9


 337              		.comm	StripLights_UseGammaCorrection,1,1
 338              		.comm	StripLights_Done,4,4
 339              		.text
 340              	.Letext0:
 341              		.file 2 "c:\\program files (x86)\\cypress\\psoc creator\\4.2\\psoc creator\\import\\gnu\\arm\\5.4.
 342              		.file 3 "c:\\program files (x86)\\cypress\\psoc creator\\4.2\\psoc creator\\import\\gnu\\arm\\5.4.
 343              		.file 4 "Generated_Source\\PSoC5\\cytypes.h"
 344              		.file 5 "Generated_Source\\PSoC5\\StripLights.h"
 345              		.file 6 "Generated_Source\\PSoC5\\BCom_1_BCom.h"
 346              		.file 7 "Generated_Source\\PSoC5/core_cm3.h"
 347              		.file 8 "Generated_Source\\PSoC5\\BCom_1_base64.h"
 348              		.file 9 "Generated_Source\\PSoC5\\BCom_1_checksum.h"
 349              		.file 10 "Generated_Source\\PSoC5\\UART.h"