ARM GAS  C:\Users\matij\AppData\Local\Temp\ccxoqFRE.s 			page 1


   1              		.syntax unified
   2              		.cpu cortex-m3
   3              		.fpu softvfp
   4              		.eabi_attribute 20, 1
   5              		.eabi_attribute 21, 1
   6              		.eabi_attribute 23, 3
   7              		.eabi_attribute 24, 1
   8              		.eabi_attribute 25, 1
   9              		.eabi_attribute 26, 1
  10              		.eabi_attribute 30, 1
  11              		.eabi_attribute 34, 1
  12              		.eabi_attribute 18, 4
  13              		.thumb
  14              		.syntax unified
  15              		.file	"BCom_1_CRC16.c"
  16              		.text
  17              	.Ltext0:
  18              		.cfi_sections	.debug_frame
  19              		.section	.text.init_crc16_tab,"ax",%progbits
  20              		.align	2
  21              		.thumb
  22              		.thumb_func
  23              		.type	init_crc16_tab, %function
  24              	init_crc16_tab:
  25              	.LFB2:
  26              		.file 1 "Generated_Source\\PSoC5\\BCom_1_CRC16.c"
   1:Generated_Source\PSoC5/BCom_1_CRC16.c **** /*
   2:Generated_Source\PSoC5/BCom_1_CRC16.c ****  * Library: libcrc
   3:Generated_Source\PSoC5/BCom_1_CRC16.c ****  * File:    src/crc16.c
   4:Generated_Source\PSoC5/BCom_1_CRC16.c ****  * Author:  Lammert Bies
   5:Generated_Source\PSoC5/BCom_1_CRC16.c ****  *
   6:Generated_Source\PSoC5/BCom_1_CRC16.c ****  * This file is licensed under the MIT License as stated below
   7:Generated_Source\PSoC5/BCom_1_CRC16.c ****  *
   8:Generated_Source\PSoC5/BCom_1_CRC16.c ****  * Copyright (c) 1999-2016 Lammert Bies
   9:Generated_Source\PSoC5/BCom_1_CRC16.c ****  *
  10:Generated_Source\PSoC5/BCom_1_CRC16.c ****  * Permission is hereby granted, free of charge, to any person obtaining a copy
  11:Generated_Source\PSoC5/BCom_1_CRC16.c ****  * of this software and associated documentation files (the "Software"), to deal
  12:Generated_Source\PSoC5/BCom_1_CRC16.c ****  * in the Software without restriction, including without limitation the rights
  13:Generated_Source\PSoC5/BCom_1_CRC16.c ****  * to use, copy, modify, merge, publish, distribute, sublicense, and/or sell
  14:Generated_Source\PSoC5/BCom_1_CRC16.c ****  * copies of the Software, and to permit persons to whom the Software is
  15:Generated_Source\PSoC5/BCom_1_CRC16.c ****  * furnished to do so, subject to the following conditions:
  16:Generated_Source\PSoC5/BCom_1_CRC16.c ****  *
  17:Generated_Source\PSoC5/BCom_1_CRC16.c ****  * The above copyright notice and this permission notice shall be included in all
  18:Generated_Source\PSoC5/BCom_1_CRC16.c ****  * copies or substantial portions of the Software.
  19:Generated_Source\PSoC5/BCom_1_CRC16.c ****  * 
  20:Generated_Source\PSoC5/BCom_1_CRC16.c ****  * THE SOFTWARE IS PROVIDED "AS IS", WITHOUT WARRANTY OF ANY KIND, EXPRESS OR
  21:Generated_Source\PSoC5/BCom_1_CRC16.c ****  * IMPLIED, INCLUDING BUT NOT LIMITED TO THE WARRANTIES OF MERCHANTABILITY,
  22:Generated_Source\PSoC5/BCom_1_CRC16.c ****  * FITNESS FOR A PARTICULAR PURPOSE AND NONINFRINGEMENT. IN NO EVENT SHALL THE
  23:Generated_Source\PSoC5/BCom_1_CRC16.c ****  * AUTHORS OR COPYRIGHT HOLDERS BE LIABLE FOR ANY CLAIM, DAMAGES OR OTHER
  24:Generated_Source\PSoC5/BCom_1_CRC16.c ****  * LIABILITY, WHETHER IN AN ACTION OF CONTRACT, TORT OR OTHERWISE, ARISING FROM,
  25:Generated_Source\PSoC5/BCom_1_CRC16.c ****  * OUT OF OR IN CONNECTION WITH THE SOFTWARE OR THE USE OR OTHER DEALINGS IN THE
  26:Generated_Source\PSoC5/BCom_1_CRC16.c ****  * SOFTWARE.
  27:Generated_Source\PSoC5/BCom_1_CRC16.c ****  *
  28:Generated_Source\PSoC5/BCom_1_CRC16.c ****  * Description
  29:Generated_Source\PSoC5/BCom_1_CRC16.c ****  * -----------
  30:Generated_Source\PSoC5/BCom_1_CRC16.c ****  * The source file src/crc16.c contains routines which calculate the common
  31:Generated_Source\PSoC5/BCom_1_CRC16.c ****  * CRC16 cyclic redundancy check values for an incomming byte string.
ARM GAS  C:\Users\matij\AppData\Local\Temp\ccxoqFRE.s 			page 2


  32:Generated_Source\PSoC5/BCom_1_CRC16.c ****  */
  33:Generated_Source\PSoC5/BCom_1_CRC16.c **** 
  34:Generated_Source\PSoC5/BCom_1_CRC16.c **** #include <stdbool.h>
  35:Generated_Source\PSoC5/BCom_1_CRC16.c **** #include <stdlib.h>
  36:Generated_Source\PSoC5/BCom_1_CRC16.c **** #include "BCom_1_checksum.h"
  37:Generated_Source\PSoC5/BCom_1_CRC16.c **** 
  38:Generated_Source\PSoC5/BCom_1_CRC16.c **** static void             init_crc16_tab( void );
  39:Generated_Source\PSoC5/BCom_1_CRC16.c **** 
  40:Generated_Source\PSoC5/BCom_1_CRC16.c **** static bool             crc_tab16_init          = false;
  41:Generated_Source\PSoC5/BCom_1_CRC16.c **** static uint16_t         crc_tab16[256];
  42:Generated_Source\PSoC5/BCom_1_CRC16.c **** 
  43:Generated_Source\PSoC5/BCom_1_CRC16.c **** /*
  44:Generated_Source\PSoC5/BCom_1_CRC16.c ****  * uint16_t crc_16( const unsigned char *input_str, size_t num_bytes );
  45:Generated_Source\PSoC5/BCom_1_CRC16.c ****  *
  46:Generated_Source\PSoC5/BCom_1_CRC16.c ****  * The function crc_16() calculates the 16 bits CRC16 in one pass for a byte
  47:Generated_Source\PSoC5/BCom_1_CRC16.c ****  * string of which the beginning has been passed to the function. The number of
  48:Generated_Source\PSoC5/BCom_1_CRC16.c ****  * bytes to check is also a parameter. The number of the bytes in the string is
  49:Generated_Source\PSoC5/BCom_1_CRC16.c ****  * limited by the constant SIZE_MAX.
  50:Generated_Source\PSoC5/BCom_1_CRC16.c ****  */
  51:Generated_Source\PSoC5/BCom_1_CRC16.c **** 
  52:Generated_Source\PSoC5/BCom_1_CRC16.c **** uint16_t crc_16( const unsigned char *input_str, size_t num_bytes ) {
  53:Generated_Source\PSoC5/BCom_1_CRC16.c **** 
  54:Generated_Source\PSoC5/BCom_1_CRC16.c **** 	uint16_t crc;
  55:Generated_Source\PSoC5/BCom_1_CRC16.c **** 	const unsigned char *ptr;
  56:Generated_Source\PSoC5/BCom_1_CRC16.c **** 	size_t a;
  57:Generated_Source\PSoC5/BCom_1_CRC16.c **** 
  58:Generated_Source\PSoC5/BCom_1_CRC16.c **** 	if ( ! crc_tab16_init ) init_crc16_tab();
  59:Generated_Source\PSoC5/BCom_1_CRC16.c **** 
  60:Generated_Source\PSoC5/BCom_1_CRC16.c **** 	crc = CRC_START_16;
  61:Generated_Source\PSoC5/BCom_1_CRC16.c **** 	ptr = input_str;
  62:Generated_Source\PSoC5/BCom_1_CRC16.c **** 
  63:Generated_Source\PSoC5/BCom_1_CRC16.c **** 	if ( ptr != NULL ) for (a=0; a<num_bytes; a++) {
  64:Generated_Source\PSoC5/BCom_1_CRC16.c **** 
  65:Generated_Source\PSoC5/BCom_1_CRC16.c **** 		crc = (crc >> 8) ^ crc_tab16[ (crc ^ (uint16_t) *ptr++) & 0x00FF ];
  66:Generated_Source\PSoC5/BCom_1_CRC16.c **** 	}
  67:Generated_Source\PSoC5/BCom_1_CRC16.c **** 
  68:Generated_Source\PSoC5/BCom_1_CRC16.c **** 	return crc;
  69:Generated_Source\PSoC5/BCom_1_CRC16.c **** 
  70:Generated_Source\PSoC5/BCom_1_CRC16.c **** }  /* crc_16 */
  71:Generated_Source\PSoC5/BCom_1_CRC16.c **** 
  72:Generated_Source\PSoC5/BCom_1_CRC16.c **** 
  73:Generated_Source\PSoC5/BCom_1_CRC16.c **** /*
  74:Generated_Source\PSoC5/BCom_1_CRC16.c ****  * uint16_t update_crc_16( uint16_t crc, unsigned char c );
  75:Generated_Source\PSoC5/BCom_1_CRC16.c ****  *
  76:Generated_Source\PSoC5/BCom_1_CRC16.c ****  * The function update_crc_16() calculates a new CRC-16 value based on the
  77:Generated_Source\PSoC5/BCom_1_CRC16.c ****  * previous value of the CRC and the next byte of data to be checked.
  78:Generated_Source\PSoC5/BCom_1_CRC16.c ****  */
  79:Generated_Source\PSoC5/BCom_1_CRC16.c **** 
  80:Generated_Source\PSoC5/BCom_1_CRC16.c **** uint16_t update_crc_16( uint16_t crc, unsigned char c ) {
  81:Generated_Source\PSoC5/BCom_1_CRC16.c **** 
  82:Generated_Source\PSoC5/BCom_1_CRC16.c **** 	if ( ! crc_tab16_init ) init_crc16_tab();
  83:Generated_Source\PSoC5/BCom_1_CRC16.c **** 
  84:Generated_Source\PSoC5/BCom_1_CRC16.c **** 	return (crc >> 8) ^ crc_tab16[ (crc ^ (uint16_t) c) & 0x00FF ];
  85:Generated_Source\PSoC5/BCom_1_CRC16.c **** 
  86:Generated_Source\PSoC5/BCom_1_CRC16.c **** }  /* update_crc_16 */
  87:Generated_Source\PSoC5/BCom_1_CRC16.c **** 
  88:Generated_Source\PSoC5/BCom_1_CRC16.c **** /*
ARM GAS  C:\Users\matij\AppData\Local\Temp\ccxoqFRE.s 			page 3


  89:Generated_Source\PSoC5/BCom_1_CRC16.c ****  * static void init_crc16_tab( void );
  90:Generated_Source\PSoC5/BCom_1_CRC16.c ****  *
  91:Generated_Source\PSoC5/BCom_1_CRC16.c ****  * For optimal performance uses the CRC16 routine a lookup table with values
  92:Generated_Source\PSoC5/BCom_1_CRC16.c ****  * that can be used directly in the XOR arithmetic in the algorithm. This
  93:Generated_Source\PSoC5/BCom_1_CRC16.c ****  * lookup table is calculated by the init_crc16_tab() routine, the first time
  94:Generated_Source\PSoC5/BCom_1_CRC16.c ****  * the CRC function is called.
  95:Generated_Source\PSoC5/BCom_1_CRC16.c ****  */
  96:Generated_Source\PSoC5/BCom_1_CRC16.c **** 
  97:Generated_Source\PSoC5/BCom_1_CRC16.c **** static void init_crc16_tab( void ) {
  27              		.loc 1 97 0
  28              		.cfi_startproc
  29              		@ args = 0, pretend = 0, frame = 0
  30              		@ frame_needed = 0, uses_anonymous_args = 0
  31              		@ link register save eliminated.
  32 0000 10B4     		push	{r4}
  33              		.cfi_def_cfa_offset 4
  34              		.cfi_offset 4, -4
  35              	.LVL0:
  98:Generated_Source\PSoC5/BCom_1_CRC16.c **** 
  99:Generated_Source\PSoC5/BCom_1_CRC16.c **** 	uint16_t i;
 100:Generated_Source\PSoC5/BCom_1_CRC16.c **** 	uint16_t j;
 101:Generated_Source\PSoC5/BCom_1_CRC16.c **** 	uint16_t crc;
 102:Generated_Source\PSoC5/BCom_1_CRC16.c **** 	uint16_t c;
 103:Generated_Source\PSoC5/BCom_1_CRC16.c **** 
 104:Generated_Source\PSoC5/BCom_1_CRC16.c **** 	for (i=0; i<256; i++) {
  36              		.loc 1 104 0
  37 0002 0024     		movs	r4, #0
  38 0004 19E0     		b	.L2
  39              	.LVL1:
  40              	.L5:
 105:Generated_Source\PSoC5/BCom_1_CRC16.c **** 
 106:Generated_Source\PSoC5/BCom_1_CRC16.c **** 		crc = 0;
 107:Generated_Source\PSoC5/BCom_1_CRC16.c **** 		c   = i;
 108:Generated_Source\PSoC5/BCom_1_CRC16.c **** 
 109:Generated_Source\PSoC5/BCom_1_CRC16.c **** 		for (j=0; j<8; j++) {
 110:Generated_Source\PSoC5/BCom_1_CRC16.c **** 
 111:Generated_Source\PSoC5/BCom_1_CRC16.c **** 			if ( (crc ^ c) & 0x0001 ) crc = ( crc >> 1 ) ^ CRC_POLY_16;
  41              		.loc 1 111 0
  42 0006 82EA0100 		eor	r0, r2, r1
  43 000a 10F0010F 		tst	r0, #1
  44 000e 04D0     		beq	.L3
  45              		.loc 1 111 0 is_stmt 0 discriminator 1
  46 0010 4AF20100 		movw	r0, #40961
  47 0014 80EA5202 		eor	r2, r0, r2, lsr #1
  48              	.LVL2:
  49 0018 00E0     		b	.L4
  50              	.L3:
 112:Generated_Source\PSoC5/BCom_1_CRC16.c **** 			else                      crc =   crc >> 1;
  51              		.loc 1 112 0 is_stmt 1
  52 001a 5208     		lsrs	r2, r2, #1
  53              	.LVL3:
  54              	.L4:
 113:Generated_Source\PSoC5/BCom_1_CRC16.c **** 
 114:Generated_Source\PSoC5/BCom_1_CRC16.c **** 			c = c >> 1;
  55              		.loc 1 114 0 discriminator 2
  56 001c C1F34F01 		ubfx	r1, r1, #1, #16
  57              	.LVL4:
ARM GAS  C:\Users\matij\AppData\Local\Temp\ccxoqFRE.s 			page 4


 109:Generated_Source\PSoC5/BCom_1_CRC16.c **** 
  58              		.loc 1 109 0 discriminator 2
  59 0020 0133     		adds	r3, r3, #1
  60              	.LVL5:
  61 0022 9BB2     		uxth	r3, r3
  62              	.LVL6:
  63 0024 02E0     		b	.L6
  64              	.LVL7:
  65              	.L7:
  66 0026 2146     		mov	r1, r4
  67 0028 0022     		movs	r2, #0
  68 002a 1346     		mov	r3, r2
  69              	.L6:
  70              	.LVL8:
 109:Generated_Source\PSoC5/BCom_1_CRC16.c **** 
  71              		.loc 1 109 0 is_stmt 0 discriminator 1
  72 002c 072B     		cmp	r3, #7
  73 002e EAD9     		bls	.L5
 115:Generated_Source\PSoC5/BCom_1_CRC16.c **** 		}
 116:Generated_Source\PSoC5/BCom_1_CRC16.c **** 
 117:Generated_Source\PSoC5/BCom_1_CRC16.c **** 		crc_tab16[i] = crc;
  74              		.loc 1 117 0 is_stmt 1 discriminator 2
  75 0030 064B     		ldr	r3, .L9
  76              	.LVL9:
  77 0032 23F81420 		strh	r2, [r3, r4, lsl #1]	@ movhi
 104:Generated_Source\PSoC5/BCom_1_CRC16.c **** 
  78              		.loc 1 104 0 discriminator 2
  79 0036 0134     		adds	r4, r4, #1
  80              	.LVL10:
  81 0038 A4B2     		uxth	r4, r4
  82              	.LVL11:
  83              	.L2:
 104:Generated_Source\PSoC5/BCom_1_CRC16.c **** 
  84              		.loc 1 104 0 is_stmt 0 discriminator 1
  85 003a FF2C     		cmp	r4, #255
  86 003c F3D9     		bls	.L7
 118:Generated_Source\PSoC5/BCom_1_CRC16.c **** 	}
 119:Generated_Source\PSoC5/BCom_1_CRC16.c **** 
 120:Generated_Source\PSoC5/BCom_1_CRC16.c **** 	crc_tab16_init = true;
  87              		.loc 1 120 0 is_stmt 1
  88 003e 0122     		movs	r2, #1
  89 0040 024B     		ldr	r3, .L9
  90 0042 83F80022 		strb	r2, [r3, #512]
 121:Generated_Source\PSoC5/BCom_1_CRC16.c **** 
 122:Generated_Source\PSoC5/BCom_1_CRC16.c **** }  /* init_crc16_tab */
  91              		.loc 1 122 0
  92 0046 10BC     		pop	{r4}
  93              		.cfi_restore 4
  94              		.cfi_def_cfa_offset 0
  95              	.LVL12:
  96 0048 7047     		bx	lr
  97              	.L10:
  98 004a 00BF     		.align	2
  99              	.L9:
 100 004c 00000000 		.word	.LANCHOR0
 101              		.cfi_endproc
 102              	.LFE2:
ARM GAS  C:\Users\matij\AppData\Local\Temp\ccxoqFRE.s 			page 5


 103              		.size	init_crc16_tab, .-init_crc16_tab
 104              		.section	.text.crc_16,"ax",%progbits
 105              		.align	2
 106              		.global	crc_16
 107              		.thumb
 108              		.thumb_func
 109              		.type	crc_16, %function
 110              	crc_16:
 111              	.LFB0:
  52:Generated_Source\PSoC5/BCom_1_CRC16.c **** 
 112              		.loc 1 52 0
 113              		.cfi_startproc
 114              		@ args = 0, pretend = 0, frame = 0
 115              		@ frame_needed = 0, uses_anonymous_args = 0
 116              	.LVL13:
 117 0000 38B5     		push	{r3, r4, r5, lr}
 118              		.cfi_def_cfa_offset 16
 119              		.cfi_offset 3, -16
 120              		.cfi_offset 4, -12
 121              		.cfi_offset 5, -8
 122              		.cfi_offset 14, -4
 123 0002 0446     		mov	r4, r0
 124 0004 0D46     		mov	r5, r1
  58:Generated_Source\PSoC5/BCom_1_CRC16.c **** 
 125              		.loc 1 58 0
 126 0006 0C4B     		ldr	r3, .L18
 127 0008 93F80032 		ldrb	r3, [r3, #512]	@ zero_extendqisi2
 128 000c 0BB9     		cbnz	r3, .L12
  58:Generated_Source\PSoC5/BCom_1_CRC16.c **** 
 129              		.loc 1 58 0 is_stmt 0 discriminator 1
 130 000e FFF7FEFF 		bl	init_crc16_tab
 131              	.LVL14:
 132              	.L12:
  63:Generated_Source\PSoC5/BCom_1_CRC16.c **** 
 133              		.loc 1 63 0 is_stmt 1
 134 0012 64B9     		cbnz	r4, .L16
  60:Generated_Source\PSoC5/BCom_1_CRC16.c **** 	ptr = input_str;
 135              		.loc 1 60 0
 136 0014 0020     		movs	r0, #0
 137 0016 38BD     		pop	{r3, r4, r5, pc}
 138              	.LVL15:
 139              	.L15:
  65:Generated_Source\PSoC5/BCom_1_CRC16.c **** 	}
 140              		.loc 1 65 0 discriminator 4
 141 0018 2378     		ldrb	r3, [r4]	@ zero_extendqisi2
 142 001a 4340     		eors	r3, r3, r0
 143 001c DBB2     		uxtb	r3, r3
 144 001e 0649     		ldr	r1, .L18
 145 0020 31F81330 		ldrh	r3, [r1, r3, lsl #1]
 146 0024 83EA1020 		eor	r0, r3, r0, lsr #8
 147              	.LVL16:
  63:Generated_Source\PSoC5/BCom_1_CRC16.c **** 
 148              		.loc 1 63 0 discriminator 4
 149 0028 0132     		adds	r2, r2, #1
 150              	.LVL17:
  65:Generated_Source\PSoC5/BCom_1_CRC16.c **** 	}
 151              		.loc 1 65 0 discriminator 4
ARM GAS  C:\Users\matij\AppData\Local\Temp\ccxoqFRE.s 			page 6


 152 002a 0134     		adds	r4, r4, #1
 153              	.LVL18:
 154 002c 01E0     		b	.L13
 155              	.LVL19:
 156              	.L16:
 157 002e 0022     		movs	r2, #0
 158 0030 1046     		mov	r0, r2
 159              	.LVL20:
 160              	.L13:
  63:Generated_Source\PSoC5/BCom_1_CRC16.c **** 
 161              		.loc 1 63 0 discriminator 2
 162 0032 AA42     		cmp	r2, r5
 163 0034 F0D3     		bcc	.L15
  70:Generated_Source\PSoC5/BCom_1_CRC16.c **** 
 164              		.loc 1 70 0
 165 0036 38BD     		pop	{r3, r4, r5, pc}
 166              	.LVL21:
 167              	.L19:
 168              		.align	2
 169              	.L18:
 170 0038 00000000 		.word	.LANCHOR0
 171              		.cfi_endproc
 172              	.LFE0:
 173              		.size	crc_16, .-crc_16
 174              		.section	.text.update_crc_16,"ax",%progbits
 175              		.align	2
 176              		.global	update_crc_16
 177              		.thumb
 178              		.thumb_func
 179              		.type	update_crc_16, %function
 180              	update_crc_16:
 181              	.LFB1:
  80:Generated_Source\PSoC5/BCom_1_CRC16.c **** 
 182              		.loc 1 80 0
 183              		.cfi_startproc
 184              		@ args = 0, pretend = 0, frame = 0
 185              		@ frame_needed = 0, uses_anonymous_args = 0
 186              	.LVL22:
 187 0000 38B5     		push	{r3, r4, r5, lr}
 188              		.cfi_def_cfa_offset 16
 189              		.cfi_offset 3, -16
 190              		.cfi_offset 4, -12
 191              		.cfi_offset 5, -8
 192              		.cfi_offset 14, -4
 193 0002 0546     		mov	r5, r0
 194 0004 0C46     		mov	r4, r1
  82:Generated_Source\PSoC5/BCom_1_CRC16.c **** 
 195              		.loc 1 82 0
 196 0006 074B     		ldr	r3, .L23
 197 0008 93F80032 		ldrb	r3, [r3, #512]	@ zero_extendqisi2
 198 000c 0BB9     		cbnz	r3, .L21
  82:Generated_Source\PSoC5/BCom_1_CRC16.c **** 
 199              		.loc 1 82 0 is_stmt 0 discriminator 1
 200 000e FFF7FEFF 		bl	init_crc16_tab
 201              	.LVL23:
 202              	.L21:
  84:Generated_Source\PSoC5/BCom_1_CRC16.c **** 
ARM GAS  C:\Users\matij\AppData\Local\Temp\ccxoqFRE.s 			page 7


 203              		.loc 1 84 0 is_stmt 1
 204 0012 6C40     		eors	r4, r4, r5
 205 0014 E4B2     		uxtb	r4, r4
 206 0016 034B     		ldr	r3, .L23
 207 0018 33F81400 		ldrh	r0, [r3, r4, lsl #1]
  86:Generated_Source\PSoC5/BCom_1_CRC16.c **** 
 208              		.loc 1 86 0
 209 001c 80EA1520 		eor	r0, r0, r5, lsr #8
 210 0020 38BD     		pop	{r3, r4, r5, pc}
 211              	.L24:
 212 0022 00BF     		.align	2
 213              	.L23:
 214 0024 00000000 		.word	.LANCHOR0
 215              		.cfi_endproc
 216              	.LFE1:
 217              		.size	update_crc_16, .-update_crc_16
 218              		.bss
 219              		.align	2
 220              		.set	.LANCHOR0,. + 0
 221              		.type	crc_tab16, %object
 222              		.size	crc_tab16, 512
 223              	crc_tab16:
 224 0000 00000000 		.space	512
 224      00000000 
 224      00000000 
 224      00000000 
 224      00000000 
 225              		.type	crc_tab16_init, %object
 226              		.size	crc_tab16_init, 1
 227              	crc_tab16_init:
 228 0200 00       		.space	1
 229              		.text
 230              	.Letext0:
 231              		.file 2 "c:\\program files (x86)\\cypress\\psoc creator\\4.2\\psoc creator\\import\\gnu\\arm\\5.4.
 232              		.file 3 "c:\\program files (x86)\\cypress\\psoc creator\\4.2\\psoc creator\\import\\gnu\\arm\\5.4.
 233              		.file 4 "c:\\program files (x86)\\cypress\\psoc creator\\4.2\\psoc creator\\import\\gnu\\arm\\5.4.