ARM GAS  C:\Users\matij\AppData\Local\Temp\ccZ4gH5O.s 			page 1


   1              		.syntax unified
   2              		.cpu cortex-m3
   3              		.fpu softvfp
   4              		.eabi_attribute 20, 1
   5              		.eabi_attribute 21, 1
   6              		.eabi_attribute 23, 3
   7              		.eabi_attribute 24, 1
   8              		.eabi_attribute 25, 1
   9              		.eabi_attribute 26, 1
  10              		.eabi_attribute 30, 4
  11              		.eabi_attribute 34, 1
  12              		.eabi_attribute 18, 4
  13              		.thumb
  14              		.syntax unified
  15              		.file	"BCom_1_BCom.c"
  16              		.text
  17              	.Ltext0:
  18              		.cfi_sections	.debug_frame
  19              		.section	.text.Transport,"ax",%progbits
  20              		.align	1
  21              		.global	Transport
  22              		.thumb
  23              		.thumb_func
  24              		.type	Transport, %function
  25              	Transport:
  26              	.LFB64:
  27              		.file 1 "Generated_Source\\PSoC5\\BCom_1_BCom.c"
   1:Generated_Source\PSoC5/BCom_1_BCom.c **** /* ========================================
   2:Generated_Source\PSoC5/BCom_1_BCom.c ****  *
   3:Generated_Source\PSoC5/BCom_1_BCom.c ****  * Copyright YOUR COMPANY, THE YEAR
   4:Generated_Source\PSoC5/BCom_1_BCom.c ****  * All Rights Reserved
   5:Generated_Source\PSoC5/BCom_1_BCom.c ****  * UNPUBLISHED, LICENSED SOFTWARE.
   6:Generated_Source\PSoC5/BCom_1_BCom.c ****  *
   7:Generated_Source\PSoC5/BCom_1_BCom.c ****  * CONFIDENTIAL AND PROPRIETARY INFORMATION
   8:Generated_Source\PSoC5/BCom_1_BCom.c ****  * WHICH IS THE PROPERTY OF your company.
   9:Generated_Source\PSoC5/BCom_1_BCom.c ****  *
  10:Generated_Source\PSoC5/BCom_1_BCom.c ****  * ========================================
  11:Generated_Source\PSoC5/BCom_1_BCom.c **** */
  12:Generated_Source\PSoC5/BCom_1_BCom.c **** #include "project.h"
  13:Generated_Source\PSoC5/BCom_1_BCom.c **** #include "BCom_1_BCom.h"
  14:Generated_Source\PSoC5/BCom_1_BCom.c **** 
  15:Generated_Source\PSoC5/BCom_1_BCom.c **** // @180219 ^MB Added Transport layer function
  16:Generated_Source\PSoC5/BCom_1_BCom.c **** void Transport(uint8_t * buffer, uint8_t bufferSize) {
  28              		.loc 1 16 0
  29              		.cfi_startproc
  30              		@ args = 0, pretend = 0, frame = 80
  31              		@ frame_needed = 0, uses_anonymous_args = 0
  32              	.LVL0:
  33 0000 10B5     		push	{r4, lr}
  34              		.cfi_def_cfa_offset 8
  35              		.cfi_offset 4, -8
  36              		.cfi_offset 14, -4
  17:Generated_Source\PSoC5/BCom_1_BCom.c ****     if ( bufferSize <= 14 ) return;
  37              		.loc 1 17 0
  38 0002 0E29     		cmp	r1, #14
  16:Generated_Source\PSoC5/BCom_1_BCom.c ****     if ( bufferSize <= 14 ) return;
  39              		.loc 1 16 0
ARM GAS  C:\Users\matij\AppData\Local\Temp\ccZ4gH5O.s 			page 2


  40 0004 94B0     		sub	sp, sp, #80
  41              		.cfi_def_cfa_offset 88
  42              		.loc 1 17 0
  43 0006 32D9     		bls	.L1
  18:Generated_Source\PSoC5/BCom_1_BCom.c ****     
  19:Generated_Source\PSoC5/BCom_1_BCom.c ****     unsigned char input[BUFFER_SIZE];
  20:Generated_Source\PSoC5/BCom_1_BCom.c ****     uint8 inpLength = b64_decode(buffer,bufferSize,input);
  44              		.loc 1 20 0
  45 0008 04AC     		add	r4, sp, #16
  46 000a 2246     		mov	r2, r4
  47 000c FFF7FEFF 		bl	b64_decode
  48              	.LVL1:
  21:Generated_Source\PSoC5/BCom_1_BCom.c ****     
  22:Generated_Source\PSoC5/BCom_1_BCom.c ****     uint16_t CRC = (input[inpLength] << 8) | input[inpLength+1];
  49              		.loc 1 22 0
  50 0010 14AA     		add	r2, sp, #80
  51 0012 C3B2     		uxtb	r3, r0
  52 0014 1344     		add	r3, r3, r2
  53 0016 13F8401C 		ldrb	r1, [r3, #-64]	@ zero_extendqisi2
  54 001a 13F83F2C 		ldrb	r2, [r3, #-63]	@ zero_extendqisi2
  23:Generated_Source\PSoC5/BCom_1_BCom.c ****     input[inpLength-2] = '\0';
  24:Generated_Source\PSoC5/BCom_1_BCom.c ****     struct BComFrame_s Frame;
  25:Generated_Source\PSoC5/BCom_1_BCom.c ****     Frame.Header = ( struct FrameHeader_s * ) &input[0];
  26:Generated_Source\PSoC5/BCom_1_BCom.c ****     Frame.CRC = CRC;
  27:Generated_Source\PSoC5/BCom_1_BCom.c ****     Frame.Lenght = inpLength-14;
  55              		.loc 1 27 0
  56 001e 0E38     		subs	r0, r0, #14
  57              	.LVL2:
  22:Generated_Source\PSoC5/BCom_1_BCom.c ****     input[inpLength-2] = '\0';
  58              		.loc 1 22 0
  59 0020 42EA0122 		orr	r2, r2, r1, lsl #8
  60              	.LVL3:
  23:Generated_Source\PSoC5/BCom_1_BCom.c ****     input[inpLength-2] = '\0';
  61              		.loc 1 23 0
  62 0024 0021     		movs	r1, #0
  63 0026 03F8421C 		strb	r1, [r3, #-66]
  28:Generated_Source\PSoC5/BCom_1_BCom.c ****     Frame.Payload = &input[12];
  64              		.loc 1 28 0
  65 002a 07AB     		add	r3, sp, #28
  66 002c 0393     		str	r3, [sp, #12]
  67              	.LVL4:
  29:Generated_Source\PSoC5/BCom_1_BCom.c ****     
  30:Generated_Source\PSoC5/BCom_1_BCom.c ****     uint8_t accept = 0x00;
  31:Generated_Source\PSoC5/BCom_1_BCom.c ****     switch ((Frame.Header->Target >> 30)) {
  68              		.loc 1 31 0
  69 002e 049B     		ldr	r3, [sp, #16]
  26:Generated_Source\PSoC5/BCom_1_BCom.c ****     Frame.Lenght = inpLength-14;
  70              		.loc 1 26 0
  71 0030 ADF80820 		strh	r2, [sp, #8]	@ movhi
  72              		.loc 1 31 0
  73 0034 9A0F     		lsrs	r2, r3, #30
  74              	.LVL5:
  25:Generated_Source\PSoC5/BCom_1_BCom.c ****     Frame.CRC = CRC;
  75              		.loc 1 25 0
  76 0036 0194     		str	r4, [sp, #4]
  27:Generated_Source\PSoC5/BCom_1_BCom.c ****     Frame.Payload = &input[12];
  77              		.loc 1 27 0
ARM GAS  C:\Users\matij\AppData\Local\Temp\ccZ4gH5O.s 			page 3


  78 0038 8DF80A00 		strb	r0, [sp, #10]
  79              		.loc 1 31 0
  80 003c 01D0     		beq	.L4
  81 003e 032A     		cmp	r2, #3
  82 0040 02E0     		b	.L22
  83              	.L4:
  32:Generated_Source\PSoC5/BCom_1_BCom.c ****         case 0: // Unicast 
  33:Generated_Source\PSoC5/BCom_1_BCom.c ****             if ( ( Frame.Header->Target & 0x3FFFFFFF ) == Config.Network.UID ) 
  84              		.loc 1 33 0
  85 0042 0C4A     		ldr	r2, .L27
  86 0044 5268     		ldr	r2, [r2, #4]
  87 0046 9342     		cmp	r3, r2
  88              	.L22:
  89 0048 11D1     		bne	.L1
  90              	.LVL6:
  34:Generated_Source\PSoC5/BCom_1_BCom.c ****                 accept = 0xFF;
  35:Generated_Source\PSoC5/BCom_1_BCom.c ****         break;
  36:Generated_Source\PSoC5/BCom_1_BCom.c ****         case 1: // Multicast
  37:Generated_Source\PSoC5/BCom_1_BCom.c ****                 
  38:Generated_Source\PSoC5/BCom_1_BCom.c ****         break;
  39:Generated_Source\PSoC5/BCom_1_BCom.c ****         case 2: // Reserved
  40:Generated_Source\PSoC5/BCom_1_BCom.c ****                 
  41:Generated_Source\PSoC5/BCom_1_BCom.c ****         break;
  42:Generated_Source\PSoC5/BCom_1_BCom.c ****         case 3: // Broadcast
  43:Generated_Source\PSoC5/BCom_1_BCom.c ****             accept = 0xFF;                
  44:Generated_Source\PSoC5/BCom_1_BCom.c ****         break;
  45:Generated_Source\PSoC5/BCom_1_BCom.c ****     }
  46:Generated_Source\PSoC5/BCom_1_BCom.c ****     
  47:Generated_Source\PSoC5/BCom_1_BCom.c ****     if ( accept ) {
  48:Generated_Source\PSoC5/BCom_1_BCom.c ****         //if ( Frame.Header->Parameter.Ack ) {
  49:Generated_Source\PSoC5/BCom_1_BCom.c ****             
  50:Generated_Source\PSoC5/BCom_1_BCom.c ****         //}
  51:Generated_Source\PSoC5/BCom_1_BCom.c ****         if ( Frame.Header->Parameter.Port == 1 ) {
  91              		.loc 1 51 0
  92 004a 9DF81920 		ldrb	r2, [sp, #25]	@ zero_extendqisi2
  93 004e 094B     		ldr	r3, .L27
  94 0050 012A     		cmp	r2, #1
  95 0052 01D1     		bne	.L21
  52:Generated_Source\PSoC5/BCom_1_BCom.c ****             //DCP_Handler(&Frame); 
  53:Generated_Source\PSoC5/BCom_1_BCom.c ****             if ( Config.Ports.DCP ) Config.Ports.DCP(&Frame);
  96              		.loc 1 53 0
  97 0054 1B6A     		ldr	r3, [r3, #32]
  98 0056 07E0     		b	.L25
  99              	.L21:
 100              	.LBB2:
  54:Generated_Source\PSoC5/BCom_1_BCom.c ****         } else {
  55:Generated_Source\PSoC5/BCom_1_BCom.c ****             struct PortHandle_s * Entry = Config.Ports.List;
 101              		.loc 1 55 0
 102 0058 5B6A     		ldr	r3, [r3, #36]
 103              	.LVL7:
  56:Generated_Source\PSoC5/BCom_1_BCom.c ****             while ( Entry != NULL ) {
 104              		.loc 1 56 0
 105 005a 00E0     		b	.L6
 106              	.L7:
  57:Generated_Source\PSoC5/BCom_1_BCom.c ****                 if ( Entry->Port == Frame.Header->Parameter.Port ) {
  58:Generated_Source\PSoC5/BCom_1_BCom.c ****                     if ( Entry->Handle != NULL ) {
  59:Generated_Source\PSoC5/BCom_1_BCom.c ****                         Entry->Handle(&Frame);
ARM GAS  C:\Users\matij\AppData\Local\Temp\ccZ4gH5O.s 			page 4


  60:Generated_Source\PSoC5/BCom_1_BCom.c ****                     }
  61:Generated_Source\PSoC5/BCom_1_BCom.c ****                     break;
  62:Generated_Source\PSoC5/BCom_1_BCom.c ****                 } else {
  63:Generated_Source\PSoC5/BCom_1_BCom.c ****                     Entry = Entry->next;    
 107              		.loc 1 63 0
 108 005c 9B68     		ldr	r3, [r3, #8]
 109              	.LVL8:
 110              	.L6:
  56:Generated_Source\PSoC5/BCom_1_BCom.c ****             while ( Entry != NULL ) {
 111              		.loc 1 56 0
 112 005e 33B1     		cbz	r3, .L1
  57:Generated_Source\PSoC5/BCom_1_BCom.c ****                 if ( Entry->Port == Frame.Header->Parameter.Port ) {
 113              		.loc 1 57 0
 114 0060 1978     		ldrb	r1, [r3]	@ zero_extendqisi2
 115 0062 9142     		cmp	r1, r2
 116 0064 FAD1     		bne	.L7
  58:Generated_Source\PSoC5/BCom_1_BCom.c ****                         Entry->Handle(&Frame);
 117              		.loc 1 58 0
 118 0066 5B68     		ldr	r3, [r3, #4]
 119              	.LVL9:
 120              	.L25:
 121 0068 0BB1     		cbz	r3, .L1
  59:Generated_Source\PSoC5/BCom_1_BCom.c ****                     }
 122              		.loc 1 59 0
 123 006a 01A8     		add	r0, sp, #4
 124 006c 9847     		blx	r3
 125              	.LVL10:
 126              	.L1:
 127              	.LBE2:
  64:Generated_Source\PSoC5/BCom_1_BCom.c ****                 }
  65:Generated_Source\PSoC5/BCom_1_BCom.c ****             }
  66:Generated_Source\PSoC5/BCom_1_BCom.c ****         }    
  67:Generated_Source\PSoC5/BCom_1_BCom.c ****     }
  68:Generated_Source\PSoC5/BCom_1_BCom.c **** }
 128              		.loc 1 68 0
 129 006e 14B0     		add	sp, sp, #80
 130              		.cfi_def_cfa_offset 8
 131              		@ sp needed
 132 0070 10BD     		pop	{r4, pc}
 133              	.L28:
 134 0072 00BF     		.align	2
 135              	.L27:
 136 0074 00000000 		.word	Config
 137              		.cfi_endproc
 138              	.LFE64:
 139              		.size	Transport, .-Transport
 140              		.section	.text.Transmit,"ax",%progbits
 141              		.align	1
 142              		.global	Transmit
 143              		.thumb
 144              		.thumb_func
 145              		.type	Transmit, %function
 146              	Transmit:
 147              	.LFB65:
  69:Generated_Source\PSoC5/BCom_1_BCom.c **** 
  70:Generated_Source\PSoC5/BCom_1_BCom.c **** void Transmit(uint32_t Target, unsigned char * PayloadIn, uint8_t Size) {
 148              		.loc 1 70 0
ARM GAS  C:\Users\matij\AppData\Local\Temp\ccZ4gH5O.s 			page 5


 149              		.cfi_startproc
 150              		@ args = 0, pretend = 0, frame = 128
 151              		@ frame_needed = 0, uses_anonymous_args = 0
 152              	.LVL11:
 153 0000 30B5     		push	{r4, r5, lr}
 154              		.cfi_def_cfa_offset 12
 155              		.cfi_offset 4, -12
 156              		.cfi_offset 5, -8
 157              		.cfi_offset 14, -4
 158 0002 1446     		mov	r4, r2
  71:Generated_Source\PSoC5/BCom_1_BCom.c ****     uint8 length = 12, ptr; // 20
  72:Generated_Source\PSoC5/BCom_1_BCom.c ****         unsigned char output[BUFFER_SIZE];
  73:Generated_Source\PSoC5/BCom_1_BCom.c ****         unsigned char SerialOut[BUFFER_SIZE];
  74:Generated_Source\PSoC5/BCom_1_BCom.c ****         unsigned char * payload = &output[12];
  75:Generated_Source\PSoC5/BCom_1_BCom.c ****         struct FrameHeader_s * Frame = ( struct FrameHeader_s * ) &output[0];
  76:Generated_Source\PSoC5/BCom_1_BCom.c **** 
  77:Generated_Source\PSoC5/BCom_1_BCom.c ****         Frame->Target = Target;
  78:Generated_Source\PSoC5/BCom_1_BCom.c ****         Frame->Source = Config.Network.UID;
 159              		.loc 1 78 0
 160 0004 244A     		ldr	r2, .L37
 161              	.LVL12:
  70:Generated_Source\PSoC5/BCom_1_BCom.c ****     uint8 length = 12, ptr; // 20
 162              		.loc 1 70 0
 163 0006 A1B0     		sub	sp, sp, #132
 164              		.cfi_def_cfa_offset 144
 165              	.LVL13:
 166 0008 1546     		mov	r5, r2
  77:Generated_Source\PSoC5/BCom_1_BCom.c ****         Frame->Source = Config.Network.UID;
 167              		.loc 1 77 0
 168 000a 0090     		str	r0, [sp]
 169              		.loc 1 78 0
 170 000c 5368     		ldr	r3, [r2, #4]
  79:Generated_Source\PSoC5/BCom_1_BCom.c ****         
  80:Generated_Source\PSoC5/BCom_1_BCom.c ****         System_u.System.AckReq = 0;
 171              		.loc 1 80 0
 172 000e 2348     		ldr	r0, .L37+4
 173              	.LVL14:
  78:Generated_Source\PSoC5/BCom_1_BCom.c ****         
 174              		.loc 1 78 0
 175 0010 0193     		str	r3, [sp, #4]
 176              		.loc 1 80 0
 177 0012 0378     		ldrb	r3, [r0]	@ zero_extendqisi2
  81:Generated_Source\PSoC5/BCom_1_BCom.c ****         System_u.System.Ack = 0;
  82:Generated_Source\PSoC5/BCom_1_BCom.c ****         System_u.System.Nack = 0;
  83:Generated_Source\PSoC5/BCom_1_BCom.c ****         System_u.System.Encrypted = 0;
  84:Generated_Source\PSoC5/BCom_1_BCom.c ****         System_u.System.Ping = 0;
  85:Generated_Source\PSoC5/BCom_1_BCom.c ****         System_u.System.RFU = 0;
 178              		.loc 1 85 0
 179 0014 03F0E003 		and	r3, r3, #224
 180 0018 6FF34713 		bfc	r3, #5, #3
 181 001c 0370     		strb	r3, [r0]
  86:Generated_Source\PSoC5/BCom_1_BCom.c ****         
  87:Generated_Source\PSoC5/BCom_1_BCom.c ****         Frame->Parameter.System = System_u.byteVal;
 182              		.loc 1 87 0
 183 001e 8DF80830 		strb	r3, [sp, #8]
  88:Generated_Source\PSoC5/BCom_1_BCom.c ****         Frame->Parameter.Port = 10;
 184              		.loc 1 88 0
ARM GAS  C:\Users\matij\AppData\Local\Temp\ccZ4gH5O.s 			page 6


 185 0022 0A23     		movs	r3, #10
 186 0024 8DF80930 		strb	r3, [sp, #9]
  89:Generated_Source\PSoC5/BCom_1_BCom.c ****         Frame->Parameter.FrameNr = (uint16) Config.Network.FrameCounter++;
 187              		.loc 1 89 0
 188 0028 D369     		ldr	r3, [r2, #28]
 189 002a 581C     		adds	r0, r3, #1
 190 002c ADF80A30 		strh	r3, [sp, #10]	@ movhi
 191              	.LVL15:
 192 0030 D061     		str	r0, [r2, #28]
  90:Generated_Source\PSoC5/BCom_1_BCom.c **** 
  91:Generated_Source\PSoC5/BCom_1_BCom.c ****         for ( ptr = 0 ; ptr < Size ; ptr++ ) {
 193              		.loc 1 91 0
 194 0032 0023     		movs	r3, #0
 195              	.LVL16:
 196              	.L30:
 197              		.loc 1 91 0 is_stmt 0 discriminator 1
 198 0034 DAB2     		uxtb	r2, r3
 199 0036 9442     		cmp	r4, r2
 200 0038 05D9     		bls	.L36
  92:Generated_Source\PSoC5/BCom_1_BCom.c ****         payload[ptr] = PayloadIn[ptr];
 201              		.loc 1 92 0 is_stmt 1 discriminator 3
 202 003a C85C     		ldrb	r0, [r1, r3]	@ zero_extendqisi2
 203 003c 0DEB0302 		add	r2, sp, r3
 204 0040 1073     		strb	r0, [r2, #12]
 205              	.LVL17:
 206 0042 0133     		adds	r3, r3, #1
 207              	.LVL18:
 208 0044 F6E7     		b	.L30
 209              	.LVL19:
 210              	.L36:
  93:Generated_Source\PSoC5/BCom_1_BCom.c ****         }
  94:Generated_Source\PSoC5/BCom_1_BCom.c ****         length += Size; 
  95:Generated_Source\PSoC5/BCom_1_BCom.c **** 
  96:Generated_Source\PSoC5/BCom_1_BCom.c ****         uint16_t crc = crc_16(output,length);
 211              		.loc 1 96 0
 212 0046 04F10C01 		add	r1, r4, #12
 213              	.LVL20:
 214 004a C9B2     		uxtb	r1, r1
 215 004c 6846     		mov	r0, sp
 216 004e FFF7FEFF 		bl	crc_16
 217              	.LVL21:
  97:Generated_Source\PSoC5/BCom_1_BCom.c **** 
  98:Generated_Source\PSoC5/BCom_1_BCom.c ****         payload[ptr++] = (uint8_t) (crc & 0xFF);
 218              		.loc 1 98 0
 219 0052 20AB     		add	r3, sp, #128
 220 0054 2344     		add	r3, r3, r4
 221 0056 03F8740C 		strb	r0, [r3, #-116]
 222              	.LVL22:
  99:Generated_Source\PSoC5/BCom_1_BCom.c ****         payload[ptr++] = (uint8_t) ((crc >> 8 ) & 0xFF);
 223              		.loc 1 99 0
 224 005a 631C     		adds	r3, r4, #1
 225 005c 20AA     		add	r2, sp, #128
 226 005e DBB2     		uxtb	r3, r3
 227 0060 1344     		add	r3, r3, r2
 228 0062 000A     		lsrs	r0, r0, #8
 229              	.LVL23:
 100:Generated_Source\PSoC5/BCom_1_BCom.c ****         length += 2;
ARM GAS  C:\Users\matij\AppData\Local\Temp\ccZ4gH5O.s 			page 7


 101:Generated_Source\PSoC5/BCom_1_BCom.c **** 
 102:Generated_Source\PSoC5/BCom_1_BCom.c ****         length= b64_encode( &output[0],length,&SerialOut[1]);
 230              		.loc 1 102 0
 231 0064 04F10E01 		add	r1, r4, #14
  99:Generated_Source\PSoC5/BCom_1_BCom.c ****         payload[ptr++] = (uint8_t) ((crc >> 8 ) & 0xFF);
 232              		.loc 1 99 0
 233 0068 03F8740C 		strb	r0, [r3, #-116]
 234              	.LVL24:
 235              		.loc 1 102 0
 236 006c 0DF14102 		add	r2, sp, #65
 237 0070 C9B2     		uxtb	r1, r1
 238 0072 6846     		mov	r0, sp
 239 0074 FFF7FEFF 		bl	b64_encode
 240              	.LVL25:
 103:Generated_Source\PSoC5/BCom_1_BCom.c ****         SerialOut[0] = ':';
 241              		.loc 1 103 0
 242 0078 3A23     		movs	r3, #58
 243 007a 8DF84030 		strb	r3, [sp, #64]
 104:Generated_Source\PSoC5/BCom_1_BCom.c ****         SerialOut[length+1] = '\n';
 244              		.loc 1 104 0
 245 007e C1B2     		uxtb	r1, r0
 246 0080 20AB     		add	r3, sp, #128
 247 0082 0B44     		add	r3, r3, r1
 248 0084 0A22     		movs	r2, #10
 249 0086 03F83F2C 		strb	r2, [r3, #-63]
 105:Generated_Source\PSoC5/BCom_1_BCom.c **** 
 106:Generated_Source\PSoC5/BCom_1_BCom.c ****         if ( Config.PutArray != NULL ) {
 250              		.loc 1 106 0
 251 008a AB6A     		ldr	r3, [r5, #40]
 252 008c 13B1     		cbz	r3, .L29
 107:Generated_Source\PSoC5/BCom_1_BCom.c ****             Config.PutArray(SerialOut,length+2);
 253              		.loc 1 107 0
 254 008e 0231     		adds	r1, r1, #2
 255 0090 10A8     		add	r0, sp, #64
 256              	.LVL26:
 257 0092 9847     		blx	r3
 258              	.LVL27:
 259              	.L29:
 108:Generated_Source\PSoC5/BCom_1_BCom.c ****         }
 109:Generated_Source\PSoC5/BCom_1_BCom.c ****     
 110:Generated_Source\PSoC5/BCom_1_BCom.c **** }
 260              		.loc 1 110 0
 261 0094 21B0     		add	sp, sp, #132
 262              		.cfi_def_cfa_offset 12
 263              	.LVL28:
 264              		@ sp needed
 265 0096 30BD     		pop	{r4, r5, pc}
 266              	.LVL29:
 267              	.L38:
 268              		.align	2
 269              	.L37:
 270 0098 00000000 		.word	Config
 271 009c 00000000 		.word	System_u
 272              		.cfi_endproc
 273              	.LFE65:
 274              		.size	Transmit, .-Transmit
 275              		.section	.text.BCom_1_Start,"ax",%progbits
ARM GAS  C:\Users\matij\AppData\Local\Temp\ccZ4gH5O.s 			page 8


 276              		.align	1
 277              		.global	BCom_1_Start
 278              		.thumb
 279              		.thumb_func
 280              		.type	BCom_1_Start, %function
 281              	BCom_1_Start:
 282              	.LFB66:
 111:Generated_Source\PSoC5/BCom_1_BCom.c **** 
 112:Generated_Source\PSoC5/BCom_1_BCom.c **** void BCom_1_Start() {
 283              		.loc 1 112 0
 284              		.cfi_startproc
 285              		@ args = 0, pretend = 0, frame = 0
 286              		@ frame_needed = 0, uses_anonymous_args = 0
 287              		@ link register save eliminated.
 113:Generated_Source\PSoC5/BCom_1_BCom.c ****     // Clear the ports
 114:Generated_Source\PSoC5/BCom_1_BCom.c ****     Config.Ports.List = NULL;
 288              		.loc 1 114 0
 289 0000 024B     		ldr	r3, .L40
 290 0002 0022     		movs	r2, #0
 291 0004 5A62     		str	r2, [r3, #36]
 115:Generated_Source\PSoC5/BCom_1_BCom.c ****     Config.Ports.DCP = NULL;
 292              		.loc 1 115 0
 293 0006 1A62     		str	r2, [r3, #32]
 116:Generated_Source\PSoC5/BCom_1_BCom.c ****     Config.PutArray = NULL;
 294              		.loc 1 116 0
 295 0008 9A62     		str	r2, [r3, #40]
 296 000a 7047     		bx	lr
 297              	.L41:
 298              		.align	2
 299              	.L40:
 300 000c 00000000 		.word	Config
 301              		.cfi_endproc
 302              	.LFE66:
 303              		.size	BCom_1_Start, .-BCom_1_Start
 304              		.comm	Config,44,4
 305              		.comm	System_u,1,1
 306              		.comm	StripLights_UseGammaCorrection,1,1
 307              		.comm	StripLights_Done,4,4
 308              		.text
 309              	.Letext0:
 310              		.file 2 "c:\\program files (x86)\\cypress\\psoc creator\\4.2\\psoc creator\\import\\gnu\\arm\\5.4.
 311              		.file 3 "c:\\program files (x86)\\cypress\\psoc creator\\4.2\\psoc creator\\import\\gnu\\arm\\5.4.
 312              		.file 4 "Generated_Source\\PSoC5\\cytypes.h"
 313              		.file 5 "Generated_Source\\PSoC5\\StripLights.h"
 314              		.file 6 "Generated_Source\\PSoC5\\BCom_1_BCom.h"
 315              		.file 7 "Generated_Source\\PSoC5\\BCom_1_checksum.h"
 316              		.file 8 "Generated_Source\\PSoC5/core_cm3.h"
 317              		.file 9 "Generated_Source\\PSoC5\\BCom_1_base64.h"