ARM GAS  C:\Users\matij\AppData\Local\Temp\ccbha10d.s 			page 1


   1              		.syntax unified
   2              		.cpu cortex-m3
   3              		.fpu softvfp
   4              		.eabi_attribute 20, 1
   5              		.eabi_attribute 21, 1
   6              		.eabi_attribute 23, 3
   7              		.eabi_attribute 24, 1
   8              		.eabi_attribute 25, 1
   9              		.eabi_attribute 26, 1
  10              		.eabi_attribute 30, 4
  11              		.eabi_attribute 34, 1
  12              		.eabi_attribute 18, 4
  13              		.thumb
  14              		.syntax unified
  15              		.file	"BCom_1_base64.c"
  16              		.text
  17              	.Ltext0:
  18              		.cfi_sections	.debug_frame
  19              		.section	.text.b64_int,"ax",%progbits
  20              		.align	1
  21              		.global	b64_int
  22              		.thumb
  23              		.thumb_func
  24              		.type	b64_int, %function
  25              	b64_int:
  26              	.LFB1:
  27              		.file 1 "Generated_Source\\PSoC5\\BCom_1_base64.c"
   1:Generated_Source\PSoC5/BCom_1_base64.c **** /*
   2:Generated_Source\PSoC5/BCom_1_base64.c **** 	base64.c - by Joe DF (joedf@ahkscript.org)
   3:Generated_Source\PSoC5/BCom_1_base64.c **** 	Released under the MIT License
   4:Generated_Source\PSoC5/BCom_1_base64.c **** 	
   5:Generated_Source\PSoC5/BCom_1_base64.c **** 	See "base64.h", for more information.
   6:Generated_Source\PSoC5/BCom_1_base64.c **** 	
   7:Generated_Source\PSoC5/BCom_1_base64.c **** 	Thank you for inspiration:
   8:Generated_Source\PSoC5/BCom_1_base64.c **** 	http://www.codeproject.com/Tips/813146/Fast-base-functions-for-encode-decode
   9:Generated_Source\PSoC5/BCom_1_base64.c **** */
  10:Generated_Source\PSoC5/BCom_1_base64.c **** 
  11:Generated_Source\PSoC5/BCom_1_base64.c **** #include "BCom_1_base64.h"
  12:Generated_Source\PSoC5/BCom_1_base64.c **** 
  13:Generated_Source\PSoC5/BCom_1_base64.c **** //Base64 char table - used internally for encoding
  14:Generated_Source\PSoC5/BCom_1_base64.c **** unsigned char b64_chr[] = "ABCDEFGHIJKLMNOPQRSTUVWXYZabcdefghijklmnopqrstuvwxyz0123456789+/";
  15:Generated_Source\PSoC5/BCom_1_base64.c **** 
  16:Generated_Source\PSoC5/BCom_1_base64.c **** unsigned char b64_int(unsigned char ch) {
  28              		.loc 1 16 0
  29              		.cfi_startproc
  30              		@ args = 0, pretend = 0, frame = 0
  31              		@ frame_needed = 0, uses_anonymous_args = 0
  32              		@ link register save eliminated.
  33              	.LVL0:
  17:Generated_Source\PSoC5/BCom_1_base64.c **** 
  18:Generated_Source\PSoC5/BCom_1_base64.c **** 	// ASCII to base64_int
  19:Generated_Source\PSoC5/BCom_1_base64.c **** 	// 65-90  Upper Case  >>  0-25
  20:Generated_Source\PSoC5/BCom_1_base64.c **** 	// 97-122 Lower Case  >>  26-51
  21:Generated_Source\PSoC5/BCom_1_base64.c **** 	// 48-57  Numbers     >>  52-61
  22:Generated_Source\PSoC5/BCom_1_base64.c **** 	// 43     Plus (+)    >>  62
  23:Generated_Source\PSoC5/BCom_1_base64.c **** 	// 47     Slash (/)   >>  63
  24:Generated_Source\PSoC5/BCom_1_base64.c **** 	// 61     Equal (=)   >>  64~
ARM GAS  C:\Users\matij\AppData\Local\Temp\ccbha10d.s 			page 2


  25:Generated_Source\PSoC5/BCom_1_base64.c **** 	if (ch==43)
  34              		.loc 1 25 0
  35 0000 2B28     		cmp	r0, #43
  16:Generated_Source\PSoC5/BCom_1_base64.c **** 
  36              		.loc 1 16 0
  37 0002 0346     		mov	r3, r0
  38              		.loc 1 25 0
  39 0004 14D0     		beq	.L4
  26:Generated_Source\PSoC5/BCom_1_base64.c **** 	return 62;
  27:Generated_Source\PSoC5/BCom_1_base64.c **** 	if (ch==47)
  40              		.loc 1 27 0
  41 0006 2F28     		cmp	r0, #47
  42 0008 14D0     		beq	.L5
  28:Generated_Source\PSoC5/BCom_1_base64.c **** 	return 63;
  29:Generated_Source\PSoC5/BCom_1_base64.c **** 	if (ch==61)
  43              		.loc 1 29 0
  44 000a 3D28     		cmp	r0, #61
  45 000c 14D0     		beq	.L6
  30:Generated_Source\PSoC5/BCom_1_base64.c **** 	return 64;
  31:Generated_Source\PSoC5/BCom_1_base64.c **** 	if ((ch>47) && (ch<58))
  46              		.loc 1 31 0
  47 000e A0F13002 		sub	r2, r0, #48
  48 0012 092A     		cmp	r2, #9
  49 0014 01D8     		bhi	.L3
  32:Generated_Source\PSoC5/BCom_1_base64.c **** 	return ch + 4;
  50              		.loc 1 32 0
  51 0016 0433     		adds	r3, r3, #4
  52 0018 08E0     		b	.L8
  53              	.L3:
  33:Generated_Source\PSoC5/BCom_1_base64.c **** 	if ((ch>64) && (ch<91))
  54              		.loc 1 33 0
  55 001a 4138     		subs	r0, r0, #65
  56              	.LVL1:
  57 001c C0B2     		uxtb	r0, r0
  58 001e 1928     		cmp	r0, #25
  59 0020 0DD9     		bls	.L2
  60              	.LVL2:
  61              	.LBB4:
  62              	.LBB5:
  34:Generated_Source\PSoC5/BCom_1_base64.c **** 	return ch - 'A';
  35:Generated_Source\PSoC5/BCom_1_base64.c **** 	if ((ch>96) && (ch<123))
  63              		.loc 1 35 0
  64 0022 A3F16102 		sub	r2, r3, #97
  65 0026 192A     		cmp	r2, #25
  66 0028 08D8     		bhi	.L7
  36:Generated_Source\PSoC5/BCom_1_base64.c **** 	return (ch - 'a') + 26;
  67              		.loc 1 36 0
  68 002a 473B     		subs	r3, r3, #71
  69              	.LVL3:
  70              	.L8:
  71 002c D8B2     		uxtb	r0, r3
  72 002e 7047     		bx	lr
  73              	.LVL4:
  74              	.L4:
  75              	.LBE5:
  76              	.LBE4:
  26:Generated_Source\PSoC5/BCom_1_base64.c **** 	if (ch==47)
ARM GAS  C:\Users\matij\AppData\Local\Temp\ccbha10d.s 			page 3


  77              		.loc 1 26 0
  78 0030 3E20     		movs	r0, #62
  79              	.LVL5:
  80 0032 7047     		bx	lr
  81              	.LVL6:
  82              	.L5:
  28:Generated_Source\PSoC5/BCom_1_base64.c **** 	if (ch==61)
  83              		.loc 1 28 0
  84 0034 3F20     		movs	r0, #63
  85              	.LVL7:
  86 0036 7047     		bx	lr
  87              	.LVL8:
  88              	.L6:
  30:Generated_Source\PSoC5/BCom_1_base64.c **** 	if ((ch>47) && (ch<58))
  89              		.loc 1 30 0
  90 0038 4020     		movs	r0, #64
  91              	.LVL9:
  92 003a 7047     		bx	lr
  93              	.LVL10:
  94              	.L7:
  95              	.LBB7:
  96              	.LBB6:
  37:Generated_Source\PSoC5/BCom_1_base64.c **** 	return 0;
  97              		.loc 1 37 0
  98 003c 0020     		movs	r0, #0
  99              	.LVL11:
 100              	.L2:
 101              	.LBE6:
 102              	.LBE7:
  38:Generated_Source\PSoC5/BCom_1_base64.c **** }
 103              		.loc 1 38 0
 104 003e 7047     		bx	lr
 105              		.cfi_endproc
 106              	.LFE1:
 107              		.size	b64_int, .-b64_int
 108              		.section	.text.b64e_size,"ax",%progbits
 109              		.align	1
 110              		.global	b64e_size
 111              		.thumb
 112              		.thumb_func
 113              		.type	b64e_size, %function
 114              	b64e_size:
 115              	.LFB2:
  39:Generated_Source\PSoC5/BCom_1_base64.c **** 
  40:Generated_Source\PSoC5/BCom_1_base64.c **** unsigned int b64e_size(unsigned int in_size) {
 116              		.loc 1 40 0
 117              		.cfi_startproc
 118              		@ args = 0, pretend = 0, frame = 0
 119              		@ frame_needed = 0, uses_anonymous_args = 0
 120              	.LVL12:
  41:Generated_Source\PSoC5/BCom_1_base64.c **** 
  42:Generated_Source\PSoC5/BCom_1_base64.c **** 	// size equals 4*floor((1/3)*(in_size+2));
  43:Generated_Source\PSoC5/BCom_1_base64.c **** 	int i, j = 0;
 121              		.loc 1 43 0
 122 0000 0022     		movs	r2, #0
  44:Generated_Source\PSoC5/BCom_1_base64.c **** 	for (i=0;i<in_size;i++) {
 123              		.loc 1 44 0
ARM GAS  C:\Users\matij\AppData\Local\Temp\ccbha10d.s 			page 4


 124 0002 1346     		mov	r3, r2
  40:Generated_Source\PSoC5/BCom_1_base64.c **** 
 125              		.loc 1 40 0
 126 0004 10B5     		push	{r4, lr}
 127              		.cfi_def_cfa_offset 8
 128              		.cfi_offset 4, -8
 129              		.cfi_offset 14, -4
  45:Generated_Source\PSoC5/BCom_1_base64.c **** 		if (i % 3 == 0)
 130              		.loc 1 45 0
 131 0006 0324     		movs	r4, #3
 132              	.LVL13:
 133              	.L11:
  44:Generated_Source\PSoC5/BCom_1_base64.c **** 	for (i=0;i<in_size;i++) {
 134              		.loc 1 44 0 discriminator 1
 135 0008 8342     		cmp	r3, r0
 136 000a 08D0     		beq	.L14
 137              		.loc 1 45 0
 138 000c 93FBF4F1 		sdiv	r1, r3, r4
 139 0010 01EB4101 		add	r1, r1, r1, lsl #1
 140 0014 8B42     		cmp	r3, r1
  46:Generated_Source\PSoC5/BCom_1_base64.c **** 		j += 1;
 141              		.loc 1 46 0
 142 0016 08BF     		it	eq
 143 0018 0132     		addeq	r2, r2, #1
 144              	.LVL14:
  44:Generated_Source\PSoC5/BCom_1_base64.c **** 		if (i % 3 == 0)
 145              		.loc 1 44 0
 146 001a 0133     		adds	r3, r3, #1
 147              	.LVL15:
 148 001c F4E7     		b	.L11
 149              	.L14:
  47:Generated_Source\PSoC5/BCom_1_base64.c **** 	}
  48:Generated_Source\PSoC5/BCom_1_base64.c **** 	return (4*j);
  49:Generated_Source\PSoC5/BCom_1_base64.c **** }
 150              		.loc 1 49 0
 151 001e 9000     		lsls	r0, r2, #2
 152              	.LVL16:
 153 0020 10BD     		pop	{r4, pc}
 154              		.cfi_endproc
 155              	.LFE2:
 156              		.size	b64e_size, .-b64e_size
 157              		.section	.text.b64d_size,"ax",%progbits
 158              		.align	1
 159              		.global	b64d_size
 160              		.thumb
 161              		.thumb_func
 162              		.type	b64d_size, %function
 163              	b64d_size:
 164              	.LFB3:
  50:Generated_Source\PSoC5/BCom_1_base64.c **** 
  51:Generated_Source\PSoC5/BCom_1_base64.c **** unsigned int b64d_size(unsigned int in_size) {
 165              		.loc 1 51 0
 166              		.cfi_startproc
 167              		@ args = 0, pretend = 0, frame = 0
 168              		@ frame_needed = 0, uses_anonymous_args = 0
 169              		@ link register save eliminated.
 170              	.LVL17:
ARM GAS  C:\Users\matij\AppData\Local\Temp\ccbha10d.s 			page 5


  52:Generated_Source\PSoC5/BCom_1_base64.c **** 
  53:Generated_Source\PSoC5/BCom_1_base64.c **** 	return ((3*in_size)/4);
 171              		.loc 1 53 0
 172 0000 00EB4000 		add	r0, r0, r0, lsl #1
 173              	.LVL18:
  54:Generated_Source\PSoC5/BCom_1_base64.c **** }
 174              		.loc 1 54 0
 175 0004 8008     		lsrs	r0, r0, #2
 176 0006 7047     		bx	lr
 177              		.cfi_endproc
 178              	.LFE3:
 179              		.size	b64d_size, .-b64d_size
 180              		.section	.text.b64_encode,"ax",%progbits
 181              		.align	1
 182              		.global	b64_encode
 183              		.thumb
 184              		.thumb_func
 185              		.type	b64_encode, %function
 186              	b64_encode:
 187              	.LFB4:
  55:Generated_Source\PSoC5/BCom_1_base64.c **** 
  56:Generated_Source\PSoC5/BCom_1_base64.c **** unsigned int b64_encode(const unsigned char* in, unsigned int in_len, unsigned char* out) {
 188              		.loc 1 56 0
 189              		.cfi_startproc
 190              		@ args = 0, pretend = 0, frame = 8
 191              		@ frame_needed = 0, uses_anonymous_args = 0
 192              	.LVL19:
 193 0000 F7B5     		push	{r0, r1, r2, r4, r5, r6, r7, lr}
 194              		.cfi_def_cfa_offset 32
 195              		.cfi_offset 4, -20
 196              		.cfi_offset 5, -16
 197              		.cfi_offset 6, -12
 198              		.cfi_offset 7, -8
 199              		.cfi_offset 14, -4
  57:Generated_Source\PSoC5/BCom_1_base64.c **** 
  58:Generated_Source\PSoC5/BCom_1_base64.c **** 	unsigned char i=0, j=0, k=0, s[3];
  59:Generated_Source\PSoC5/BCom_1_base64.c **** 	
  60:Generated_Source\PSoC5/BCom_1_base64.c **** 	for (i=0;i<in_len;i++) {
 200              		.loc 1 60 0
 201 0002 0025     		movs	r5, #0
  56:Generated_Source\PSoC5/BCom_1_base64.c **** 
 202              		.loc 1 56 0
 203 0004 0646     		mov	r6, r0
  58:Generated_Source\PSoC5/BCom_1_base64.c **** 	
 204              		.loc 1 58 0
 205 0006 2B46     		mov	r3, r5
 206 0008 2846     		mov	r0, r5
 207              	.LVL20:
  61:Generated_Source\PSoC5/BCom_1_base64.c **** 		s[j++]=*(in+i);
  62:Generated_Source\PSoC5/BCom_1_base64.c **** 		if (j==3) {
  63:Generated_Source\PSoC5/BCom_1_base64.c **** 			out[k+0] = b64_chr[ (s[0]&255)>>2 ];
 208              		.loc 1 63 0
 209 000a 304F     		ldr	r7, .L29
 210              	.LVL21:
 211              	.L17:
 212 000c 5FFA85FE 		uxtb	lr, r5
 213              	.LVL22:
ARM GAS  C:\Users\matij\AppData\Local\Temp\ccbha10d.s 			page 6


  60:Generated_Source\PSoC5/BCom_1_base64.c **** 		s[j++]=*(in+i);
 214              		.loc 1 60 0 discriminator 1
 215 0010 7145     		cmp	r1, lr
 216 0012 32D9     		bls	.L28
  61:Generated_Source\PSoC5/BCom_1_base64.c **** 		s[j++]=*(in+i);
 217              		.loc 1 61 0
 218 0014 5C1C     		adds	r4, r3, #1
 219 0016 E4B2     		uxtb	r4, r4
 220              	.LVL23:
 221 0018 0DF1080C 		add	ip, sp, #8
 222 001c 16F80EE0 		ldrb	lr, [r6, lr]	@ zero_extendqisi2
 223              	.LVL24:
 224 0020 6344     		add	r3, r3, ip
  62:Generated_Source\PSoC5/BCom_1_base64.c **** 			out[k+0] = b64_chr[ (s[0]&255)>>2 ];
 225              		.loc 1 62 0
 226 0022 032C     		cmp	r4, #3
  61:Generated_Source\PSoC5/BCom_1_base64.c **** 		s[j++]=*(in+i);
 227              		.loc 1 61 0
 228 0024 03F804EC 		strb	lr, [r3, #-4]
  62:Generated_Source\PSoC5/BCom_1_base64.c **** 			out[k+0] = b64_chr[ (s[0]&255)>>2 ];
 229              		.loc 1 62 0
 230 0028 24D1     		bne	.L18
 231              		.loc 1 63 0
 232 002a 9DF80440 		ldrb	r4, [sp, #4]	@ zero_extendqisi2
 233              	.LVL25:
 234 002e A308     		lsrs	r3, r4, #2
 235 0030 FB5C     		ldrb	r3, [r7, r3]	@ zero_extendqisi2
  64:Generated_Source\PSoC5/BCom_1_base64.c **** 			out[k+1] = b64_chr[ ((s[0]&0x03)<<4)+((s[1]&0xF0)>>4) ];
 236              		.loc 1 64 0
 237 0032 2401     		lsls	r4, r4, #4
  63:Generated_Source\PSoC5/BCom_1_base64.c **** 			out[k+1] = b64_chr[ ((s[0]&0x03)<<4)+((s[1]&0xF0)>>4) ];
 238              		.loc 1 63 0
 239 0034 1354     		strb	r3, [r2, r0]
 240              		.loc 1 64 0
 241 0036 9DF80530 		ldrb	r3, [sp, #5]	@ zero_extendqisi2
 242 003a 04F03004 		and	r4, r4, #48
 243 003e 07EB131E 		add	lr, r7, r3, lsr #4
 244 0042 1EF80440 		ldrb	r4, [lr, r4]	@ zero_extendqisi2
 245 0046 02EB000E 		add	lr, r2, r0
 246 004a 8EF80140 		strb	r4, [lr, #1]
  65:Generated_Source\PSoC5/BCom_1_base64.c **** 			out[k+2] = b64_chr[ ((s[1]&0x0F)<<2)+((s[2]&0xC0)>>6) ];
 247              		.loc 1 65 0
 248 004e 9DF80640 		ldrb	r4, [sp, #6]	@ zero_extendqisi2
 249 0052 9B00     		lsls	r3, r3, #2
 250 0054 07EB941C 		add	ip, r7, r4, lsr #6
 251 0058 03F03C03 		and	r3, r3, #60
 252 005c 1CF80330 		ldrb	r3, [ip, r3]	@ zero_extendqisi2
  66:Generated_Source\PSoC5/BCom_1_base64.c **** 			out[k+3] = b64_chr[ s[2]&0x3F ];
 253              		.loc 1 66 0
 254 0060 04F03F04 		and	r4, r4, #63
  65:Generated_Source\PSoC5/BCom_1_base64.c **** 			out[k+2] = b64_chr[ ((s[1]&0x0F)<<2)+((s[2]&0xC0)>>6) ];
 255              		.loc 1 65 0
 256 0064 8EF80230 		strb	r3, [lr, #2]
 257              		.loc 1 66 0
 258 0068 3B5D     		ldrb	r3, [r7, r4]	@ zero_extendqisi2
  67:Generated_Source\PSoC5/BCom_1_base64.c **** 			j=0; k+=4;
 259              		.loc 1 67 0
ARM GAS  C:\Users\matij\AppData\Local\Temp\ccbha10d.s 			page 7


 260 006a 0430     		adds	r0, r0, #4
 261              	.LVL26:
  66:Generated_Source\PSoC5/BCom_1_base64.c **** 			out[k+3] = b64_chr[ s[2]&0x3F ];
 262              		.loc 1 66 0
 263 006c 8EF80330 		strb	r3, [lr, #3]
 264              	.LVL27:
 265              		.loc 1 67 0
 266 0070 C0B2     		uxtb	r0, r0
 267              	.LVL28:
 268 0072 0024     		movs	r4, #0
 269              	.LVL29:
 270              	.L18:
 271 0074 0135     		adds	r5, r5, #1
 272              	.LVL30:
  58:Generated_Source\PSoC5/BCom_1_base64.c **** 	
 273              		.loc 1 58 0 discriminator 2
 274 0076 2346     		mov	r3, r4
 275 0078 C8E7     		b	.L17
 276              	.LVL31:
 277              	.L28:
  68:Generated_Source\PSoC5/BCom_1_base64.c **** 		}
  69:Generated_Source\PSoC5/BCom_1_base64.c **** 	}
  70:Generated_Source\PSoC5/BCom_1_base64.c **** 	
  71:Generated_Source\PSoC5/BCom_1_base64.c **** 	if (j) {
 278              		.loc 1 71 0
 279 007a 1BB3     		cbz	r3, .L20
  72:Generated_Source\PSoC5/BCom_1_base64.c **** 		if (j==1)
 280              		.loc 1 72 0
 281 007c 012B     		cmp	r3, #1
  73:Generated_Source\PSoC5/BCom_1_base64.c **** 			s[1] = 0;
  74:Generated_Source\PSoC5/BCom_1_base64.c **** 		out[k+0] = b64_chr[ (s[0]&255)>>2 ];
 282              		.loc 1 74 0
 283 007e 9DF80440 		ldrb	r4, [sp, #4]	@ zero_extendqisi2
  73:Generated_Source\PSoC5/BCom_1_base64.c **** 			s[1] = 0;
 284              		.loc 1 73 0
 285 0082 08BF     		it	eq
 286 0084 0021     		moveq	r1, #0
 287              	.LVL32:
 288              		.loc 1 74 0
 289 0086 114D     		ldr	r5, .L29
  73:Generated_Source\PSoC5/BCom_1_base64.c **** 			s[1] = 0;
 290              		.loc 1 73 0
 291 0088 08BF     		it	eq
 292 008a 8DF80510 		strbeq	r1, [sp, #5]
 293              		.loc 1 74 0
 294 008e A108     		lsrs	r1, r4, #2
 295 0090 695C     		ldrb	r1, [r5, r1]	@ zero_extendqisi2
  75:Generated_Source\PSoC5/BCom_1_base64.c **** 		out[k+1] = b64_chr[ ((s[0]&0x03)<<4)+((s[1]&0xF0)>>4) ];
 296              		.loc 1 75 0
 297 0092 2401     		lsls	r4, r4, #4
  74:Generated_Source\PSoC5/BCom_1_base64.c **** 		out[k+1] = b64_chr[ ((s[0]&0x03)<<4)+((s[1]&0xF0)>>4) ];
 298              		.loc 1 74 0
 299 0094 1154     		strb	r1, [r2, r0]
 300              		.loc 1 75 0
 301 0096 9DF80510 		ldrb	r1, [sp, #5]	@ zero_extendqisi2
 302 009a 04F03004 		and	r4, r4, #48
 303 009e 05EB1116 		add	r6, r5, r1, lsr #4
ARM GAS  C:\Users\matij\AppData\Local\Temp\ccbha10d.s 			page 8


 304              	.LVL33:
  76:Generated_Source\PSoC5/BCom_1_base64.c **** 		if (j==2)
 305              		.loc 1 76 0
 306 00a2 022B     		cmp	r3, #2
  75:Generated_Source\PSoC5/BCom_1_base64.c **** 		out[k+1] = b64_chr[ ((s[0]&0x03)<<4)+((s[1]&0xF0)>>4) ];
 307              		.loc 1 75 0
 308 00a4 365D     		ldrb	r6, [r6, r4]	@ zero_extendqisi2
  77:Generated_Source\PSoC5/BCom_1_base64.c **** 			out[k+2] = b64_chr[ ((s[1]&0x0F)<<2) ];
 309              		.loc 1 77 0
 310 00a6 08BF     		it	eq
 311 00a8 8900     		lsleq	r1, r1, #2
  75:Generated_Source\PSoC5/BCom_1_base64.c **** 		if (j==2)
 312              		.loc 1 75 0
 313 00aa 02EB0004 		add	r4, r2, r0
 314 00ae 6670     		strb	r6, [r4, #1]
 315              		.loc 1 77 0
 316 00b0 06BF     		itte	eq
 317 00b2 01F03C01 		andeq	r1, r1, #60
 318 00b6 6B5C     		ldrbeq	r3, [r5, r1]	@ zero_extendqisi2
 319              	.LVL34:
  78:Generated_Source\PSoC5/BCom_1_base64.c **** 		else
  79:Generated_Source\PSoC5/BCom_1_base64.c **** 			out[k+2] = '=';
 320              		.loc 1 79 0
 321 00b8 3D23     		movne	r3, #61
 322 00ba A370     		strb	r3, [r4, #2]
  80:Generated_Source\PSoC5/BCom_1_base64.c **** 		out[k+3] = '=';
  81:Generated_Source\PSoC5/BCom_1_base64.c **** 		k+=4;
 323              		.loc 1 81 0
 324 00bc 0430     		adds	r0, r0, #4
 325              	.LVL35:
  80:Generated_Source\PSoC5/BCom_1_base64.c **** 		out[k+3] = '=';
 326              		.loc 1 80 0
 327 00be 3D23     		movs	r3, #61
 328 00c0 E370     		strb	r3, [r4, #3]
 329              		.loc 1 81 0
 330 00c2 C0B2     		uxtb	r0, r0
 331              	.LVL36:
 332              	.L20:
  82:Generated_Source\PSoC5/BCom_1_base64.c **** 	}
  83:Generated_Source\PSoC5/BCom_1_base64.c **** 
  84:Generated_Source\PSoC5/BCom_1_base64.c **** 	out[k] = '\0';
 333              		.loc 1 84 0
 334 00c4 0023     		movs	r3, #0
 335 00c6 1354     		strb	r3, [r2, r0]
  85:Generated_Source\PSoC5/BCom_1_base64.c **** 	
  86:Generated_Source\PSoC5/BCom_1_base64.c **** 	return k;
  87:Generated_Source\PSoC5/BCom_1_base64.c **** }
 336              		.loc 1 87 0
 337 00c8 03B0     		add	sp, sp, #12
 338              		.cfi_def_cfa_offset 20
 339              		@ sp needed
 340 00ca F0BD     		pop	{r4, r5, r6, r7, pc}
 341              	.L30:
 342              		.align	2
 343              	.L29:
 344 00cc 00000000 		.word	.LANCHOR0
 345              		.cfi_endproc
ARM GAS  C:\Users\matij\AppData\Local\Temp\ccbha10d.s 			page 9


 346              	.LFE4:
 347              		.size	b64_encode, .-b64_encode
 348              		.section	.text.b64_decode,"ax",%progbits
 349              		.align	1
 350              		.global	b64_decode
 351              		.thumb
 352              		.thumb_func
 353              		.type	b64_decode, %function
 354              	b64_decode:
 355              	.LFB5:
  88:Generated_Source\PSoC5/BCom_1_base64.c **** 
  89:Generated_Source\PSoC5/BCom_1_base64.c **** unsigned int b64_decode(const unsigned char* in, unsigned int in_len, unsigned char* out) {
 356              		.loc 1 89 0
 357              		.cfi_startproc
 358              		@ args = 0, pretend = 0, frame = 8
 359              		@ frame_needed = 0, uses_anonymous_args = 0
 360              	.LVL37:
 361 0000 2DE9F743 		push	{r0, r1, r2, r4, r5, r6, r7, r8, r9, lr}
 362              		.cfi_def_cfa_offset 40
 363              		.cfi_offset 4, -28
 364              		.cfi_offset 5, -24
 365              		.cfi_offset 6, -20
 366              		.cfi_offset 7, -16
 367              		.cfi_offset 8, -12
 368              		.cfi_offset 9, -8
 369              		.cfi_offset 14, -4
  90:Generated_Source\PSoC5/BCom_1_base64.c **** 
  91:Generated_Source\PSoC5/BCom_1_base64.c **** 	unsigned char i=0, j=0, k=0, s[4];
  92:Generated_Source\PSoC5/BCom_1_base64.c **** 	
  93:Generated_Source\PSoC5/BCom_1_base64.c **** 	for (i=0;i<in_len;i++) {
 370              		.loc 1 93 0
 371 0004 0026     		movs	r6, #0
  89:Generated_Source\PSoC5/BCom_1_base64.c **** 
 372              		.loc 1 89 0
 373 0006 8046     		mov	r8, r0
 374 0008 9146     		mov	r9, r2
  91:Generated_Source\PSoC5/BCom_1_base64.c **** 	
 375              		.loc 1 91 0
 376 000a 3446     		mov	r4, r6
 377 000c 3746     		mov	r7, r6
 378              	.LVL38:
 379              	.L32:
 380 000e F3B2     		uxtb	r3, r6
 381              	.LVL39:
 382              		.loc 1 93 0 discriminator 1
 383 0010 9942     		cmp	r1, r3
 384 0012 30D9     		bls	.L38
  94:Generated_Source\PSoC5/BCom_1_base64.c **** 		s[j++]=b64_int(*(in+i));
 385              		.loc 1 94 0
 386 0014 18F80300 		ldrb	r0, [r8, r3]	@ zero_extendqisi2
 387 0018 FFF7FEFF 		bl	b64_int
 388              	.LVL40:
 389 001c 7D1C     		adds	r5, r7, #1
 390 001e EDB2     		uxtb	r5, r5
 391              	.LVL41:
 392 0020 02AB     		add	r3, sp, #8
 393 0022 1F44     		add	r7, r7, r3
ARM GAS  C:\Users\matij\AppData\Local\Temp\ccbha10d.s 			page 10


  95:Generated_Source\PSoC5/BCom_1_base64.c **** 		if (j==4) {
 394              		.loc 1 95 0
 395 0024 042D     		cmp	r5, #4
  94:Generated_Source\PSoC5/BCom_1_base64.c **** 		s[j++]=b64_int(*(in+i));
 396              		.loc 1 94 0
 397 0026 07F8040C 		strb	r0, [r7, #-4]
 398              		.loc 1 95 0
 399 002a 21D1     		bne	.L33
  96:Generated_Source\PSoC5/BCom_1_base64.c **** 			out[k+0] = ((s[0]&255)<<2)+((s[1]&0x30)>>4);
 400              		.loc 1 96 0
 401 002c 9DF80550 		ldrb	r5, [sp, #5]	@ zero_extendqisi2
 402              	.LVL42:
 403 0030 9DF80430 		ldrb	r3, [sp, #4]	@ zero_extendqisi2
 404 0034 C5F30112 		ubfx	r2, r5, #4, #2
 405 0038 02EB8302 		add	r2, r2, r3, lsl #2
 406 003c 09F80420 		strb	r2, [r9, r4]
  97:Generated_Source\PSoC5/BCom_1_base64.c **** 			if (s[2]!=64) {
 407              		.loc 1 97 0
 408 0040 9DF80620 		ldrb	r2, [sp, #6]	@ zero_extendqisi2
 409 0044 402A     		cmp	r2, #64
 410 0046 10D0     		beq	.L34
  98:Generated_Source\PSoC5/BCom_1_base64.c **** 				out[k+1] = ((s[1]&0x0F)<<4)+((s[2]&0x3C)>>2);
 411              		.loc 1 98 0
 412 0048 C2F38303 		ubfx	r3, r2, #2, #4
 413 004c 09EB0400 		add	r0, r9, r4
 414 0050 03EB0513 		add	r3, r3, r5, lsl #4
 415 0054 4370     		strb	r3, [r0, #1]
  99:Generated_Source\PSoC5/BCom_1_base64.c **** 				if ((s[3]!=64)) {
 416              		.loc 1 99 0
 417 0056 9DF80730 		ldrb	r3, [sp, #7]	@ zero_extendqisi2
 418 005a 402B     		cmp	r3, #64
 100:Generated_Source\PSoC5/BCom_1_base64.c **** 					out[k+2] = ((s[2]&0x03)<<6)+(s[3]); k+=3;
 419              		.loc 1 100 0
 420 005c 1DBF     		ittte	ne
 421 005e 03EB8213 		addne	r3, r3, r2, lsl #6
 422 0062 8370     		strbne	r3, [r0, #2]
 423 0064 0334     		addne	r4, r4, #3
 424              	.LVL43:
 101:Generated_Source\PSoC5/BCom_1_base64.c **** 				} else {
 102:Generated_Source\PSoC5/BCom_1_base64.c **** 					k+=2;
 425              		.loc 1 102 0
 426 0066 0234     		addeq	r4, r4, #2
 427 0068 00E0     		b	.L37
 428              	.LVL44:
 429              	.L34:
 103:Generated_Source\PSoC5/BCom_1_base64.c **** 				}
 104:Generated_Source\PSoC5/BCom_1_base64.c **** 			} else {
 105:Generated_Source\PSoC5/BCom_1_base64.c **** 				k+=1;
 430              		.loc 1 105 0
 431 006a 0134     		adds	r4, r4, #1
 432              	.LVL45:
 433              	.L37:
 434 006c E4B2     		uxtb	r4, r4
 435              	.LVL46:
 106:Generated_Source\PSoC5/BCom_1_base64.c **** 			}
 107:Generated_Source\PSoC5/BCom_1_base64.c **** 			j=0;
 436              		.loc 1 107 0
ARM GAS  C:\Users\matij\AppData\Local\Temp\ccbha10d.s 			page 11


 437 006e 0025     		movs	r5, #0
 438              	.L33:
 439              	.LVL47:
 440 0070 0136     		adds	r6, r6, #1
 441              	.LVL48:
  91:Generated_Source\PSoC5/BCom_1_base64.c **** 	
 442              		.loc 1 91 0 discriminator 2
 443 0072 2F46     		mov	r7, r5
 444 0074 CBE7     		b	.L32
 445              	.LVL49:
 446              	.L38:
 108:Generated_Source\PSoC5/BCom_1_base64.c **** 		}
 109:Generated_Source\PSoC5/BCom_1_base64.c **** 	}
 110:Generated_Source\PSoC5/BCom_1_base64.c **** 	
 111:Generated_Source\PSoC5/BCom_1_base64.c **** 	return k;
 112:Generated_Source\PSoC5/BCom_1_base64.c **** }
 447              		.loc 1 112 0
 448 0076 2046     		mov	r0, r4
 449 0078 03B0     		add	sp, sp, #12
 450              		.cfi_def_cfa_offset 28
 451              		@ sp needed
 452 007a BDE8F083 		pop	{r4, r5, r6, r7, r8, r9, pc}
 453              		.cfi_endproc
 454              	.LFE5:
 455              		.size	b64_decode, .-b64_decode
 456              		.global	b64_chr
 457              		.data
 458              		.set	.LANCHOR0,. + 0
 459              		.type	b64_chr, %object
 460              		.size	b64_chr, 65
 461              	b64_chr:
 462 0000 41424344 		.ascii	"ABCDEFGHIJKLMNOPQRSTUVWXYZabcdefghijklmnopqrstuvwxy"
 462      45464748 
 462      494A4B4C 
 462      4D4E4F50 
 462      51525354 
 463 0033 7A303132 		.ascii	"z0123456789+/\000"
 463      33343536 
 463      3738392B 
 463      2F00
 464              		.text
 465              	.Letext0: