ARM GAS  C:\Users\matij\AppData\Local\Temp\ccfrwtxb.s 			page 1


   1              		.syntax unified
   2              		.cpu cortex-m3
   3              		.fpu softvfp
   4              		.eabi_attribute 20, 1
   5              		.eabi_attribute 21, 1
   6              		.eabi_attribute 23, 3
   7              		.eabi_attribute 24, 1
   8              		.eabi_attribute 25, 1
   9              		.eabi_attribute 26, 1
  10              		.eabi_attribute 30, 4
  11              		.eabi_attribute 34, 1
  12              		.eabi_attribute 18, 4
  13              		.thumb
  14              		.syntax unified
  15              		.file	"StripLights.c"
  16              		.text
  17              	.Ltext0:
  18              		.cfi_sections	.debug_frame
  19              		.section	.text.StripLights_Ready,"ax",%progbits
  20              		.align	1
  21              		.global	StripLights_Ready
  22              		.thumb
  23              		.thumb_func
  24              		.type	StripLights_Ready, %function
  25              	StripLights_Ready:
  26              	.LFB66:
  27              		.file 1 "Generated_Source\\PSoC5\\StripLights.c"
   1:Generated_Source\PSoC5/StripLights.c **** /* =========================================================
   2:Generated_Source\PSoC5/StripLights.c ****  *
   3:Generated_Source\PSoC5/StripLights.c ****  * Strip Light Controller
   4:Generated_Source\PSoC5/StripLights.c ****  * By Mark Hastings
   5:Generated_Source\PSoC5/StripLights.c ****  *
   6:Generated_Source\PSoC5/StripLights.c ****  * 05/27/2013  v1.0  Mark Hastings   Initial working version
   7:Generated_Source\PSoC5/StripLights.c ****  * 09/04/2013  v1.3  Mark Hastings   Add more features and color lookup.
   8:Generated_Source\PSoC5/StripLights.c ****  * 12/02/2013  v1.6  Mark Hastings   Added a couple more functions.
   9:Generated_Source\PSoC5/StripLights.c ****  *
  10:Generated_Source\PSoC5/StripLights.c ****  * This file contains the functions required to control each
  11:Generated_Source\PSoC5/StripLights.c ****  * lighting control channel.
  12:Generated_Source\PSoC5/StripLights.c ****  *
  13:Generated_Source\PSoC5/StripLights.c ****  * =========================================================
  14:Generated_Source\PSoC5/StripLights.c **** */
  15:Generated_Source\PSoC5/StripLights.c **** 
  16:Generated_Source\PSoC5/StripLights.c **** #include <project.h>
  17:Generated_Source\PSoC5/StripLights.c **** #include "cytypes.h"
  18:Generated_Source\PSoC5/StripLights.c **** #include "stdlib.h"
  19:Generated_Source\PSoC5/StripLights.c **** #include "cyfitter.h"
  20:Generated_Source\PSoC5/StripLights.c **** #include "StripLights.h"
  21:Generated_Source\PSoC5/StripLights.c **** #include "StripLights_fonts.h"
  22:Generated_Source\PSoC5/StripLights.c **** 
  23:Generated_Source\PSoC5/StripLights.c **** uint8  StripLights_initvar = 0;
  24:Generated_Source\PSoC5/StripLights.c **** 
  25:Generated_Source\PSoC5/StripLights.c **** #if(StripLights_MEMORY_TYPE == StripLights_MEMORY_RGB)
  26:Generated_Source\PSoC5/StripLights.c **** uint32  StripLights_ledArray[StripLights_ARRAY_ROWS][StripLights_ARRAY_COLS];
  27:Generated_Source\PSoC5/StripLights.c **** #else
  28:Generated_Source\PSoC5/StripLights.c **** uint8   StripLights_ledArray[StripLights_ARRAY_ROWS][StripLights_ARRAY_COLS];
  29:Generated_Source\PSoC5/StripLights.c **** #endif
  30:Generated_Source\PSoC5/StripLights.c **** 
ARM GAS  C:\Users\matij\AppData\Local\Temp\ccfrwtxb.s 			page 2


  31:Generated_Source\PSoC5/StripLights.c **** uint32  StripLights_ledIndex = 0;  
  32:Generated_Source\PSoC5/StripLights.c **** uint32  StripLights_row = 0;
  33:Generated_Source\PSoC5/StripLights.c **** uint32  StripLights_refreshComplete;
  34:Generated_Source\PSoC5/StripLights.c **** 
  35:Generated_Source\PSoC5/StripLights.c **** uint32  StripLights_DimMask;
  36:Generated_Source\PSoC5/StripLights.c **** uint32  StripLights_DimShift;
  37:Generated_Source\PSoC5/StripLights.c **** 
  38:Generated_Source\PSoC5/StripLights.c **** uint32 StripLights_Red_Shift = 0;
  39:Generated_Source\PSoC5/StripLights.c **** uint32 StripLights_Green_Shift = 8;
  40:Generated_Source\PSoC5/StripLights.c **** uint32 StripLights_Blue_Shift = 16;
  41:Generated_Source\PSoC5/StripLights.c **** 
  42:Generated_Source\PSoC5/StripLights.c **** #if(StripLights_CHIP == StripLights_CHIP_WS2812)
  43:Generated_Source\PSoC5/StripLights.c **** const uint32 StripLights_CLUT[ ] = {
  44:Generated_Source\PSoC5/StripLights.c **** //xxBBRRGG (WS2812)
  45:Generated_Source\PSoC5/StripLights.c **** //     (24)   [ Index = 0 ]
  46:Generated_Source\PSoC5/StripLights.c **** 0x0000FFFF,  // 0 Yellow
  47:Generated_Source\PSoC5/StripLights.c **** 0x0000CCFF,
  48:Generated_Source\PSoC5/StripLights.c **** 0x000099FF,
  49:Generated_Source\PSoC5/StripLights.c **** 0x000033FF,
  50:Generated_Source\PSoC5/StripLights.c **** 0x000000FF,  // 5  Green
  51:Generated_Source\PSoC5/StripLights.c **** 0x006600B3,
  52:Generated_Source\PSoC5/StripLights.c **** 0x00990099, 
  53:Generated_Source\PSoC5/StripLights.c **** 0x00B30066, 
  54:Generated_Source\PSoC5/StripLights.c **** 0x00CC0033,  // 9 Blue
  55:Generated_Source\PSoC5/StripLights.c **** 0x00B31919, 
  56:Generated_Source\PSoC5/StripLights.c **** 0x00993300, 
  57:Generated_Source\PSoC5/StripLights.c **** 0x00994000, 
  58:Generated_Source\PSoC5/StripLights.c **** 0x00996600, 
  59:Generated_Source\PSoC5/StripLights.c **** 0x00999900, 
  60:Generated_Source\PSoC5/StripLights.c **** 0x0099CC00, 
  61:Generated_Source\PSoC5/StripLights.c **** 0x0066E600, 
  62:Generated_Source\PSoC5/StripLights.c **** 0x0000FF00, 
  63:Generated_Source\PSoC5/StripLights.c **** 0x0000FF33, 
  64:Generated_Source\PSoC5/StripLights.c **** 0x0000FF66, 
  65:Generated_Source\PSoC5/StripLights.c **** 0x0000FF80, 
  66:Generated_Source\PSoC5/StripLights.c **** 0x0000FF99,  // 20 Orange
  67:Generated_Source\PSoC5/StripLights.c **** 0x0000FFB2, 
  68:Generated_Source\PSoC5/StripLights.c **** 0x0000FFCC, 
  69:Generated_Source\PSoC5/StripLights.c **** 0x0000FFE5,
  70:Generated_Source\PSoC5/StripLights.c **** // #24
  71:Generated_Source\PSoC5/StripLights.c **** 
  72:Generated_Source\PSoC5/StripLights.c **** //xxBBRRGG  (64)  [ Index = 24 ]
  73:Generated_Source\PSoC5/StripLights.c **** 0x00000000, 0x00550000, 0x00AA0000, 0x00FF0000,  // 0, Black,  LtBlue, MBlue, Blue
  74:Generated_Source\PSoC5/StripLights.c **** 0x00000055, 0x00550055, 0x00AA0055, 0x00FF0055,  // 4, LtGreen
  75:Generated_Source\PSoC5/StripLights.c **** 0x000000AA, 0x005500AA, 0x00AA00AA, 0x00FF00AA,  // 8, MGreen
  76:Generated_Source\PSoC5/StripLights.c **** 0x000000FF, 0x005500FF, 0x00AA00FF, 0x00FF00FF,  // 12 Green
  77:Generated_Source\PSoC5/StripLights.c **** 
  78:Generated_Source\PSoC5/StripLights.c **** 0x00005500, 0x00555500, 0x00AA5500, 0x00FF5500,  // 16, LtRed
  79:Generated_Source\PSoC5/StripLights.c **** 0x00005555, 0x00555555, 0x00AA5555, 0x00FF5555,  // 20, LtYellow
  80:Generated_Source\PSoC5/StripLights.c **** 0x000055AA, 0x005555AA, 0x00AA55AA, 0x00FF55AA,  // 24, 
  81:Generated_Source\PSoC5/StripLights.c **** 0x000055FF, 0x005555FF, 0x00AA55FF, 0x00FF55FF,  // 28,
  82:Generated_Source\PSoC5/StripLights.c **** 
  83:Generated_Source\PSoC5/StripLights.c **** 0x0000AA00, 0x0055AA00, 0x00AAAA00, 0x00FFAA00,  // 32, MRed
  84:Generated_Source\PSoC5/StripLights.c **** 0x0000AA55, 0x0055AA55, 0x00AAAA55, 0x00FFAA55,  // 36, 
  85:Generated_Source\PSoC5/StripLights.c **** 0x0000AAAA, 0x0055AAAA, 0x00AAAAAA, 0x00FFAAAA,  // 55, 
  86:Generated_Source\PSoC5/StripLights.c **** 0x0000AAFF, 0x0055AAFF, 0x00AAAAFF, 0x00FFAAFF,  // 44, 
  87:Generated_Source\PSoC5/StripLights.c **** 
ARM GAS  C:\Users\matij\AppData\Local\Temp\ccfrwtxb.s 			page 3


  88:Generated_Source\PSoC5/StripLights.c **** 0x0000FF00, 0x0055FF00, 0x00AAFF00, 0x00FFFF00,  // 48, Red, ??, ??, Magenta
  89:Generated_Source\PSoC5/StripLights.c **** 0x0000FF55, 0x0055FF55, 0x00AAFF55, 0x00FFFF55,  // 52,
  90:Generated_Source\PSoC5/StripLights.c **** 0x0000FFAA, 0x0055FFAA, 0x00AAFFAA, 0x00FFFFAA,  // 56,
  91:Generated_Source\PSoC5/StripLights.c **** 0x0000FFFF, 0x0055FFFF, 0x00AAFFFF, 0x00FFFFFF,  // 60, Yellow,??, ??, White
  92:Generated_Source\PSoC5/StripLights.c **** 
  93:Generated_Source\PSoC5/StripLights.c **** // Misc ( 16 )  [ Index = 88 ]
  94:Generated_Source\PSoC5/StripLights.c **** 0x000080FF,  // SPRING_GREEN
  95:Generated_Source\PSoC5/StripLights.c **** 0x008000FF,  // TURQUOSE
  96:Generated_Source\PSoC5/StripLights.c **** 0x00FF00FF,  // CYAN
  97:Generated_Source\PSoC5/StripLights.c **** 0x00FF0080,  // OCEAN
  98:Generated_Source\PSoC5/StripLights.c **** 0x00FF8000,  // VIOLET
  99:Generated_Source\PSoC5/StripLights.c **** 0x0080FF00,  // RASPBERRY
 100:Generated_Source\PSoC5/StripLights.c **** 0x000000FF,  // GREEN
 101:Generated_Source\PSoC5/StripLights.c **** 0x00202020,  // DIM WHITE
 102:Generated_Source\PSoC5/StripLights.c **** 0x00200000,  // DIM BLUE
 103:Generated_Source\PSoC5/StripLights.c **** 0x10000000,  // INVISIBLE
 104:Generated_Source\PSoC5/StripLights.c **** 0x00000000,  // Spare
 105:Generated_Source\PSoC5/StripLights.c **** 0x00000000,  // Spare
 106:Generated_Source\PSoC5/StripLights.c **** 0x00000000,  // Spare
 107:Generated_Source\PSoC5/StripLights.c **** 0x00000000,  // Spare
 108:Generated_Source\PSoC5/StripLights.c **** 0x00000000,  // Spare
 109:Generated_Source\PSoC5/StripLights.c **** 0x00000000,  // Spare
 110:Generated_Source\PSoC5/StripLights.c **** 
 111:Generated_Source\PSoC5/StripLights.c **** // Temperture Color Blue to Red (16) [ Index = 104 ]
 112:Generated_Source\PSoC5/StripLights.c **** 0x00FF0000, 0x00F01000, 0x00E02000, 0x00D03000,
 113:Generated_Source\PSoC5/StripLights.c **** 0x00C04000, 0x00B05000, 0x00A06000, 0x00907000,
 114:Generated_Source\PSoC5/StripLights.c **** 0x00808000, 0x00709000, 0x0060A000, 0x0050B000,
 115:Generated_Source\PSoC5/StripLights.c **** 0x0040C000, 0x0030D000, 0x0020E000, 0x0000FF00
 116:Generated_Source\PSoC5/StripLights.c **** };
 117:Generated_Source\PSoC5/StripLights.c **** #else  //xxBBGGRR (WS2811)
 118:Generated_Source\PSoC5/StripLights.c **** const uint32 StripLights_CLUT[ ] = {
 119:Generated_Source\PSoC5/StripLights.c **** //     (24)   [ Index = 0 ]
 120:Generated_Source\PSoC5/StripLights.c **** 0x0000FFFF,  // 0 Yellow
 121:Generated_Source\PSoC5/StripLights.c **** 0x0000FFCC,
 122:Generated_Source\PSoC5/StripLights.c **** 0x0000FF99,
 123:Generated_Source\PSoC5/StripLights.c **** 0x0000FF33,
 124:Generated_Source\PSoC5/StripLights.c **** 0x0000FF00,  // 5  Green
 125:Generated_Source\PSoC5/StripLights.c **** 0x0066B300,
 126:Generated_Source\PSoC5/StripLights.c **** 0x00999900, 
 127:Generated_Source\PSoC5/StripLights.c **** 0x00B36600, 
 128:Generated_Source\PSoC5/StripLights.c **** 0x00CC3300,  // 9 Blue
 129:Generated_Source\PSoC5/StripLights.c **** 0x00B31919, 
 130:Generated_Source\PSoC5/StripLights.c **** 0x00990033, 
 131:Generated_Source\PSoC5/StripLights.c **** 0x00990040, 
 132:Generated_Source\PSoC5/StripLights.c **** 0x00990066, 
 133:Generated_Source\PSoC5/StripLights.c **** 0x00990099, 
 134:Generated_Source\PSoC5/StripLights.c **** 0x009900CC, 
 135:Generated_Source\PSoC5/StripLights.c **** 0x006600E6, 
 136:Generated_Source\PSoC5/StripLights.c **** 0x000000FF, 
 137:Generated_Source\PSoC5/StripLights.c **** 0x000033FF, 
 138:Generated_Source\PSoC5/StripLights.c **** 0x000066FF, 
 139:Generated_Source\PSoC5/StripLights.c **** 0x000080FF, 
 140:Generated_Source\PSoC5/StripLights.c **** 0x000099FF,  // 20 Orange
 141:Generated_Source\PSoC5/StripLights.c **** 0x0000B2FF, 
 142:Generated_Source\PSoC5/StripLights.c **** 0x0000CCFF, 
 143:Generated_Source\PSoC5/StripLights.c **** 0x0000E5FF,
 144:Generated_Source\PSoC5/StripLights.c **** // #24
ARM GAS  C:\Users\matij\AppData\Local\Temp\ccfrwtxb.s 			page 4


 145:Generated_Source\PSoC5/StripLights.c **** 
 146:Generated_Source\PSoC5/StripLights.c **** //xxBBRRGG  (64)  [ Index = 24 ]
 147:Generated_Source\PSoC5/StripLights.c **** 0x00000000, 0x00550000, 0x00AA0000, 0x00FF0000,  // 0, Black,  LtBlue, MBlue, Blue
 148:Generated_Source\PSoC5/StripLights.c **** 0x00005500, 0x00555500, 0x00AA5500, 0x00FF5500,  // 4, LtGreen
 149:Generated_Source\PSoC5/StripLights.c **** 0x0000AA00, 0x0055AA00, 0x00AAAA00, 0x00FFAA00,  // 8, MGreen
 150:Generated_Source\PSoC5/StripLights.c **** 0x0000FF00, 0x0055FF00, 0x00AAFF00, 0x00FFFF00,  // 12 Green
 151:Generated_Source\PSoC5/StripLights.c **** 
 152:Generated_Source\PSoC5/StripLights.c **** 0x00000055, 0x00550055, 0x00AA0055, 0x00FF0055,  // 16, LtRed
 153:Generated_Source\PSoC5/StripLights.c **** 0x00005555, 0x00555555, 0x00AA5555, 0x00FF5555,  // 20, LtYellow
 154:Generated_Source\PSoC5/StripLights.c **** 0x0000AA55, 0x0055AA55, 0x00AAAA55, 0x00FFAA55,  // 24, 
 155:Generated_Source\PSoC5/StripLights.c **** 0x0000FF55, 0x0055FF55, 0x00AAFF55, 0x00FFFF55,  // 28,
 156:Generated_Source\PSoC5/StripLights.c **** 
 157:Generated_Source\PSoC5/StripLights.c **** 0x000000AA, 0x005500AA, 0x00AA00AA, 0x00FF00AA,  // 32, MRed
 158:Generated_Source\PSoC5/StripLights.c **** 0x000055AA, 0x005555AA, 0x00AA55AA, 0x00FF55AA,  // 36, 
 159:Generated_Source\PSoC5/StripLights.c **** 0x0000AAAA, 0x0055AAAA, 0x00AAAAAA, 0x00FFAAAA,  // 55, 
 160:Generated_Source\PSoC5/StripLights.c **** 0x0000FFAA, 0x0055FFAA, 0x00AAFFAA, 0x00FFFFAA,  // 44, 
 161:Generated_Source\PSoC5/StripLights.c **** 
 162:Generated_Source\PSoC5/StripLights.c **** 0x000000FF, 0x005500FF, 0x00AA00FF, 0x00F00FFF,  // 48, Red, ??, ??, Magenta
 163:Generated_Source\PSoC5/StripLights.c **** 0x000055FF, 0x005555FF, 0x00AA55FF, 0x00FF55FF,  // 52,
 164:Generated_Source\PSoC5/StripLights.c **** 0x0000AAFF, 0x0055AAFF, 0x00AAAAFF, 0x00FFAAFF,  // 56,
 165:Generated_Source\PSoC5/StripLights.c **** 0x0000FFFF, 0x0055FFFF, 0x00AAFFFF, 0x00FFFFFF,  // 60, Yellow,??, ??, White
 166:Generated_Source\PSoC5/StripLights.c **** 
 167:Generated_Source\PSoC5/StripLights.c **** // Misc ( 16 )  [ Index = 88 ]
 168:Generated_Source\PSoC5/StripLights.c **** 0x0000FF80,  // SPRING_GREEN
 169:Generated_Source\PSoC5/StripLights.c **** 0x0080FF00,  // TURQUOSE
 170:Generated_Source\PSoC5/StripLights.c **** 0x00FFFF00,  // CYAN
 171:Generated_Source\PSoC5/StripLights.c **** 0x00FF8000,  // OCEAN
 172:Generated_Source\PSoC5/StripLights.c **** 0x00FF0080,  // VIOLET
 173:Generated_Source\PSoC5/StripLights.c **** 0x008000FF,  // RASPBERRY
 174:Generated_Source\PSoC5/StripLights.c **** 0x0000FF00,  // GREEN
 175:Generated_Source\PSoC5/StripLights.c **** 0x00202020,  // DIM WHITE
 176:Generated_Source\PSoC5/StripLights.c **** 0x00200000,  // DIM BLUE
 177:Generated_Source\PSoC5/StripLights.c **** 0x10000000,  // INVISIBLE
 178:Generated_Source\PSoC5/StripLights.c **** 0x00000000,  // Spare
 179:Generated_Source\PSoC5/StripLights.c **** 0x00000000,  // Spare
 180:Generated_Source\PSoC5/StripLights.c **** 0x00000000,  // Spare
 181:Generated_Source\PSoC5/StripLights.c **** 0x00000000,  // Spare
 182:Generated_Source\PSoC5/StripLights.c **** 0x00000000,  // Spare
 183:Generated_Source\PSoC5/StripLights.c **** 0x00000000,  // Spare
 184:Generated_Source\PSoC5/StripLights.c **** 
 185:Generated_Source\PSoC5/StripLights.c **** // Temperture Color Blue to Red (16) [ Index = 104 ]
 186:Generated_Source\PSoC5/StripLights.c **** 0x00FF0000, 0x00F00010, 0x00E00020, 0x00D00030,
 187:Generated_Source\PSoC5/StripLights.c **** 0x00C00040, 0x00B00050, 0x00A00060, 0x00900070,
 188:Generated_Source\PSoC5/StripLights.c **** 0x00800080, 0x00700090, 0x006000A0, 0x005000B0,
 189:Generated_Source\PSoC5/StripLights.c **** 0x004000C0, 0x003000D0, 0x002000E0, 0x000000FF
 190:Generated_Source\PSoC5/StripLights.c **** };
 191:Generated_Source\PSoC5/StripLights.c **** #endif
 192:Generated_Source\PSoC5/StripLights.c **** 
 193:Generated_Source\PSoC5/StripLights.c **** // Gamma Correction Table NeoPixel / WS2812
 194:Generated_Source\PSoC5/StripLights.c **** const uint8_t CYCODE gamma[] = {
 195:Generated_Source\PSoC5/StripLights.c ****     0,  0,  0,  0,  0,  0,  0,  0,  0,  0,  0,  0,  0,  0,  0,  0,
 196:Generated_Source\PSoC5/StripLights.c ****     0,  0,  0,  0,  0,  0,  0,  0,  0,  0,  0,  0,  1,  1,  1,  1,
 197:Generated_Source\PSoC5/StripLights.c ****     1,  1,  1,  1,  1,  1,  1,  1,  1,  2,  2,  2,  2,  2,  2,  2,
 198:Generated_Source\PSoC5/StripLights.c ****     2,  3,  3,  3,  3,  3,  3,  3,  4,  4,  4,  4,  4,  5,  5,  5,
 199:Generated_Source\PSoC5/StripLights.c ****     5,  6,  6,  6,  6,  7,  7,  7,  7,  8,  8,  8,  9,  9,  9, 10,
 200:Generated_Source\PSoC5/StripLights.c ****    10, 10, 11, 11, 11, 12, 12, 13, 13, 13, 14, 14, 15, 15, 16, 16,
 201:Generated_Source\PSoC5/StripLights.c ****    17, 17, 18, 18, 19, 19, 20, 20, 21, 21, 22, 22, 23, 24, 24, 25,
ARM GAS  C:\Users\matij\AppData\Local\Temp\ccfrwtxb.s 			page 5


 202:Generated_Source\PSoC5/StripLights.c ****    25, 26, 27, 27, 28, 29, 29, 30, 31, 32, 32, 33, 34, 35, 35, 36,
 203:Generated_Source\PSoC5/StripLights.c ****    37, 38, 39, 39, 40, 41, 42, 43, 44, 45, 46, 47, 48, 49, 50, 50,
 204:Generated_Source\PSoC5/StripLights.c ****    51, 52, 54, 55, 56, 57, 58, 59, 60, 61, 62, 63, 64, 66, 67, 68,
 205:Generated_Source\PSoC5/StripLights.c ****    69, 70, 72, 73, 74, 75, 77, 78, 79, 81, 82, 83, 85, 86, 87, 89,
 206:Generated_Source\PSoC5/StripLights.c ****    90, 92, 93, 95, 96, 98, 99,101,102,104,105,107,109,110,112,114,
 207:Generated_Source\PSoC5/StripLights.c ****   115,117,119,120,122,124,126,127,129,131,133,135,137,138,140,142,
 208:Generated_Source\PSoC5/StripLights.c ****   144,146,148,150,152,154,156,158,160,162,164,167,169,171,173,175,
 209:Generated_Source\PSoC5/StripLights.c ****   177,180,182,184,186,189,191,193,196,198,200,203,205,208,210,213,
 210:Generated_Source\PSoC5/StripLights.c ****   215,218,220,223,225,228,231,233,236,239,241,244,247,249,252,255 };
 211:Generated_Source\PSoC5/StripLights.c **** 
 212:Generated_Source\PSoC5/StripLights.c **** 
 213:Generated_Source\PSoC5/StripLights.c **** 
 214:Generated_Source\PSoC5/StripLights.c **** 
 215:Generated_Source\PSoC5/StripLights.c **** /*******************************************************************************
 216:Generated_Source\PSoC5/StripLights.c **** * Function Name: StripLights_Start
 217:Generated_Source\PSoC5/StripLights.c **** ********************************************************************************
 218:Generated_Source\PSoC5/StripLights.c **** * Summary:
 219:Generated_Source\PSoC5/StripLights.c **** *  Initialize the hardware. 
 220:Generated_Source\PSoC5/StripLights.c **** *
 221:Generated_Source\PSoC5/StripLights.c **** * Parameters:  
 222:Generated_Source\PSoC5/StripLights.c **** *  void  
 223:Generated_Source\PSoC5/StripLights.c **** *
 224:Generated_Source\PSoC5/StripLights.c **** * Return: 
 225:Generated_Source\PSoC5/StripLights.c **** *  void
 226:Generated_Source\PSoC5/StripLights.c **** *
 227:Generated_Source\PSoC5/StripLights.c **** *******************************************************************************/
 228:Generated_Source\PSoC5/StripLights.c **** void StripLights_Start()
 229:Generated_Source\PSoC5/StripLights.c **** {
 230:Generated_Source\PSoC5/StripLights.c ****     extern uint8 StripLights_initvar;
 231:Generated_Source\PSoC5/StripLights.c ****     extern uint32 StripLights_refreshComplete;
 232:Generated_Source\PSoC5/StripLights.c **** 
 233:Generated_Source\PSoC5/StripLights.c ****     StripLights_UseGammaCorrection = 1;
 234:Generated_Source\PSoC5/StripLights.c ****     StripLights_ACTL0_REG = StripLights_DISABLE_FIFO;
 235:Generated_Source\PSoC5/StripLights.c ****     
 236:Generated_Source\PSoC5/StripLights.c ****     StripLights_Period   = StripLights_PERIOD-1;
 237:Generated_Source\PSoC5/StripLights.c ****     StripLights_Compare0 = StripLights_DATA_ZERO;
 238:Generated_Source\PSoC5/StripLights.c ****     StripLights_Compare1 = StripLights_DATA_ONE;
 239:Generated_Source\PSoC5/StripLights.c ****     
 240:Generated_Source\PSoC5/StripLights.c ****     StripLights_CONTROL = StripLights_ENABLE;
 241:Generated_Source\PSoC5/StripLights.c ****     StripLights_MemClear(StripLights_OFF);
 242:Generated_Source\PSoC5/StripLights.c ****     StripLights_CONTROL = StripLights_DISABLE;
 243:Generated_Source\PSoC5/StripLights.c ****     
 244:Generated_Source\PSoC5/StripLights.c ****     StripLights_SetFont( StripLights_FONT_5X7);
 245:Generated_Source\PSoC5/StripLights.c ****     
 246:Generated_Source\PSoC5/StripLights.c ****     /* Set no dimming, full brightness */
 247:Generated_Source\PSoC5/StripLights.c ****     StripLights_Dim(0); 
 248:Generated_Source\PSoC5/StripLights.c **** 
 249:Generated_Source\PSoC5/StripLights.c ****     
 250:Generated_Source\PSoC5/StripLights.c ****     if(StripLights_initvar == 0)
 251:Generated_Source\PSoC5/StripLights.c ****     {
 252:Generated_Source\PSoC5/StripLights.c **** 
 253:Generated_Source\PSoC5/StripLights.c ****         StripLights_initvar = 1;
 254:Generated_Source\PSoC5/StripLights.c ****  
 255:Generated_Source\PSoC5/StripLights.c ****          /* Start and set interrupt vector */
 256:Generated_Source\PSoC5/StripLights.c **** 
 257:Generated_Source\PSoC5/StripLights.c **** #if(StripLights_TRANSFER == StripLights_TRANSFER_ISR)
 258:Generated_Source\PSoC5/StripLights.c ****        {
ARM GAS  C:\Users\matij\AppData\Local\Temp\ccfrwtxb.s 			page 6


 259:Generated_Source\PSoC5/StripLights.c ****            StripLights_cisr_StartEx(StripLights_CISR);
 260:Generated_Source\PSoC5/StripLights.c **** 		   StripLights_fisr_StartEx(StripLights_FISR);
 261:Generated_Source\PSoC5/StripLights.c ****        }
 262:Generated_Source\PSoC5/StripLights.c **** #endif       
 263:Generated_Source\PSoC5/StripLights.c ****        if(StripLights_TRANSFER == StripLights_TRANSFER_FIRMWARE)
 264:Generated_Source\PSoC5/StripLights.c ****        {
 265:Generated_Source\PSoC5/StripLights.c ****            StripLights_CONTROL = StripLights_ENABLE;    
 266:Generated_Source\PSoC5/StripLights.c ****        }
 267:Generated_Source\PSoC5/StripLights.c ****     }
 268:Generated_Source\PSoC5/StripLights.c ****     StripLights_refreshComplete = 1;
 269:Generated_Source\PSoC5/StripLights.c **** }
 270:Generated_Source\PSoC5/StripLights.c **** 
 271:Generated_Source\PSoC5/StripLights.c **** 
 272:Generated_Source\PSoC5/StripLights.c **** /*******************************************************************************
 273:Generated_Source\PSoC5/StripLights.c **** * Function Name: StripLights_Trigger
 274:Generated_Source\PSoC5/StripLights.c **** ********************************************************************************
 275:Generated_Source\PSoC5/StripLights.c **** * Summary:
 276:Generated_Source\PSoC5/StripLights.c **** *   Update the LEDs with graphics memory.
 277:Generated_Source\PSoC5/StripLights.c **** *
 278:Generated_Source\PSoC5/StripLights.c **** * Parameters:  
 279:Generated_Source\PSoC5/StripLights.c **** *  void  
 280:Generated_Source\PSoC5/StripLights.c **** *
 281:Generated_Source\PSoC5/StripLights.c **** * Return: 
 282:Generated_Source\PSoC5/StripLights.c **** *  void
 283:Generated_Source\PSoC5/StripLights.c **** *
 284:Generated_Source\PSoC5/StripLights.c **** *******************************************************************************/
 285:Generated_Source\PSoC5/StripLights.c **** void StripLights_Trigger(uint32 rst)
 286:Generated_Source\PSoC5/StripLights.c **** {
 287:Generated_Source\PSoC5/StripLights.c ****     uint32 color;
 288:Generated_Source\PSoC5/StripLights.c ****     
 289:Generated_Source\PSoC5/StripLights.c ****     if(rst) 
 290:Generated_Source\PSoC5/StripLights.c ****     {
 291:Generated_Source\PSoC5/StripLights.c ****         StripLights_row = 0;  /* Reset the row */
 292:Generated_Source\PSoC5/StripLights.c ****         StripLights_Channel = 0;
 293:Generated_Source\PSoC5/StripLights.c ****     }
 294:Generated_Source\PSoC5/StripLights.c ****     
 295:Generated_Source\PSoC5/StripLights.c ****     #if(StripLights_MEMORY_TYPE == StripLights_MEMORY_RGB)
 296:Generated_Source\PSoC5/StripLights.c ****        color = StripLights_ledArray[StripLights_row][0];
 297:Generated_Source\PSoC5/StripLights.c ****     #else  /* Else use lookup table */
 298:Generated_Source\PSoC5/StripLights.c ****        color = StripLights_CLUT[ (StripLights_ledArray[StripLights_row][0]) ];
 299:Generated_Source\PSoC5/StripLights.c ****     #endif
 300:Generated_Source\PSoC5/StripLights.c ****     
 301:Generated_Source\PSoC5/StripLights.c ****     StripLights_WriteColor(color);
 302:Generated_Source\PSoC5/StripLights.c ****     
 303:Generated_Source\PSoC5/StripLights.c ****     StripLights_ledIndex = 1;
 304:Generated_Source\PSoC5/StripLights.c ****  //   StripLights_CONTROL = StripLights_ENABLE | StripLights_FIFO_IRQ_EN; 
 305:Generated_Source\PSoC5/StripLights.c **** 	
 306:Generated_Source\PSoC5/StripLights.c **** 	StripLights_CONTROL = StripLights_ENABLE | StripLights_XFRCMPT_IRQ_EN | StripLights_FIFO_IRQ_EN; 
 307:Generated_Source\PSoC5/StripLights.c ****     StripLights_refreshComplete = 0;
 308:Generated_Source\PSoC5/StripLights.c **** }
 309:Generated_Source\PSoC5/StripLights.c **** 
 310:Generated_Source\PSoC5/StripLights.c **** /*******************************************************************************
 311:Generated_Source\PSoC5/StripLights.c **** * Function Name: StripLights_Ready
 312:Generated_Source\PSoC5/StripLights.c **** ********************************************************************************
 313:Generated_Source\PSoC5/StripLights.c **** * Summary:
 314:Generated_Source\PSoC5/StripLights.c **** *  Checks to see if transfer is complete.
 315:Generated_Source\PSoC5/StripLights.c **** *
ARM GAS  C:\Users\matij\AppData\Local\Temp\ccfrwtxb.s 			page 7


 316:Generated_Source\PSoC5/StripLights.c **** * Parameters:  
 317:Generated_Source\PSoC5/StripLights.c **** *  none  
 318:Generated_Source\PSoC5/StripLights.c **** *
 319:Generated_Source\PSoC5/StripLights.c **** * Return: 
 320:Generated_Source\PSoC5/StripLights.c **** *  Zero if not complete, non-zero if transfer complete.
 321:Generated_Source\PSoC5/StripLights.c **** *
 322:Generated_Source\PSoC5/StripLights.c **** *******************************************************************************/
 323:Generated_Source\PSoC5/StripLights.c **** uint32 StripLights_Ready(void)
 324:Generated_Source\PSoC5/StripLights.c **** {
  28              		.loc 1 324 0
  29              		.cfi_startproc
  30              		@ args = 0, pretend = 0, frame = 0
  31              		@ frame_needed = 0, uses_anonymous_args = 0
  32              		@ link register save eliminated.
 325:Generated_Source\PSoC5/StripLights.c ****     if(StripLights_refreshComplete )
  33              		.loc 1 325 0
  34 0000 034B     		ldr	r3, .L7
  35 0002 1868     		ldr	r0, [r3]
  36 0004 18B1     		cbz	r0, .L2
 326:Generated_Source\PSoC5/StripLights.c ****     {
 327:Generated_Source\PSoC5/StripLights.c ****         StripLights_CONTROL = StripLights_DISABLE;
  37              		.loc 1 327 0
  38 0006 034B     		ldr	r3, .L7+4
  39 0008 0022     		movs	r2, #0
  40 000a 1A70     		strb	r2, [r3]
 328:Generated_Source\PSoC5/StripLights.c ****         return((uint32)1);
  41              		.loc 1 328 0
  42 000c 0120     		movs	r0, #1
  43              	.L2:
 329:Generated_Source\PSoC5/StripLights.c ****     }
 330:Generated_Source\PSoC5/StripLights.c ****     else
 331:Generated_Source\PSoC5/StripLights.c ****     {
 332:Generated_Source\PSoC5/StripLights.c ****          return((uint32)0);
 333:Generated_Source\PSoC5/StripLights.c ****     }
 334:Generated_Source\PSoC5/StripLights.c **** }
  44              		.loc 1 334 0
  45 000e 7047     		bx	lr
  46              	.L8:
  47              		.align	2
  48              	.L7:
  49 0010 00000000 		.word	StripLights_refreshComplete
  50 0014 78640040 		.word	1073767544
  51              		.cfi_endproc
  52              	.LFE66:
  53              		.size	StripLights_Ready, .-StripLights_Ready
  54              		.section	.text.StripLights_Stop,"ax",%progbits
  55              		.align	1
  56              		.global	StripLights_Stop
  57              		.thumb
  58              		.thumb_func
  59              		.type	StripLights_Stop, %function
  60              	StripLights_Stop:
  61              	.LFB67:
 335:Generated_Source\PSoC5/StripLights.c **** 
 336:Generated_Source\PSoC5/StripLights.c **** 
 337:Generated_Source\PSoC5/StripLights.c **** /*******************************************************************************
 338:Generated_Source\PSoC5/StripLights.c **** * Function Name: StripLights_Stop
ARM GAS  C:\Users\matij\AppData\Local\Temp\ccfrwtxb.s 			page 8


 339:Generated_Source\PSoC5/StripLights.c **** ********************************************************************************
 340:Generated_Source\PSoC5/StripLights.c **** * Summary:
 341:Generated_Source\PSoC5/StripLights.c **** *  Stop all transfers.
 342:Generated_Source\PSoC5/StripLights.c **** *
 343:Generated_Source\PSoC5/StripLights.c **** * Parameters:  
 344:Generated_Source\PSoC5/StripLights.c **** *  None 
 345:Generated_Source\PSoC5/StripLights.c **** *
 346:Generated_Source\PSoC5/StripLights.c **** * Return: 
 347:Generated_Source\PSoC5/StripLights.c **** *  void
 348:Generated_Source\PSoC5/StripLights.c **** *
 349:Generated_Source\PSoC5/StripLights.c **** *******************************************************************************/
 350:Generated_Source\PSoC5/StripLights.c **** void StripLights_Stop()
 351:Generated_Source\PSoC5/StripLights.c **** {
  62              		.loc 1 351 0
  63              		.cfi_startproc
  64              		@ args = 0, pretend = 0, frame = 0
  65              		@ frame_needed = 0, uses_anonymous_args = 0
  66              		@ link register save eliminated.
 352:Generated_Source\PSoC5/StripLights.c **** 
 353:Generated_Source\PSoC5/StripLights.c ****     StripLights_CONTROL = StripLights_DISABLE;
  67              		.loc 1 353 0
  68 0000 014B     		ldr	r3, .L10
  69 0002 0022     		movs	r2, #0
  70 0004 1A70     		strb	r2, [r3]
  71 0006 7047     		bx	lr
  72              	.L11:
  73              		.align	2
  74              	.L10:
  75 0008 78640040 		.word	1073767544
  76              		.cfi_endproc
  77              	.LFE67:
  78              		.size	StripLights_Stop, .-StripLights_Stop
  79              		.section	.text.StripLights_ColorInc,"ax",%progbits
  80              		.align	1
  81              		.global	StripLights_ColorInc
  82              		.thumb
  83              		.thumb_func
  84              		.type	StripLights_ColorInc, %function
  85              	StripLights_ColorInc:
  86              	.LFB68:
 354:Generated_Source\PSoC5/StripLights.c **** }
 355:Generated_Source\PSoC5/StripLights.c **** 
 356:Generated_Source\PSoC5/StripLights.c **** 
 357:Generated_Source\PSoC5/StripLights.c **** /*******************************************************************************
 358:Generated_Source\PSoC5/StripLights.c **** * Function Name: StripLights_ColorInc
 359:Generated_Source\PSoC5/StripLights.c **** ********************************************************************************
 360:Generated_Source\PSoC5/StripLights.c **** * Summary:
 361:Generated_Source\PSoC5/StripLights.c **** *  Increment color throught the color lookup table.
 362:Generated_Source\PSoC5/StripLights.c **** *
 363:Generated_Source\PSoC5/StripLights.c **** * Parameters:  
 364:Generated_Source\PSoC5/StripLights.c **** *  uint32 incValue: Increment through color table by incValue. 
 365:Generated_Source\PSoC5/StripLights.c **** *
 366:Generated_Source\PSoC5/StripLights.c **** * Return: Color at next location.
 367:Generated_Source\PSoC5/StripLights.c **** *  
 368:Generated_Source\PSoC5/StripLights.c **** *
 369:Generated_Source\PSoC5/StripLights.c **** *******************************************************************************/
 370:Generated_Source\PSoC5/StripLights.c **** uint32 StripLights_ColorInc(uint32 incValue)
ARM GAS  C:\Users\matij\AppData\Local\Temp\ccfrwtxb.s 			page 9


 371:Generated_Source\PSoC5/StripLights.c **** {
  87              		.loc 1 371 0
  88              		.cfi_startproc
  89              		@ args = 0, pretend = 0, frame = 0
  90              		@ frame_needed = 0, uses_anonymous_args = 0
  91              		@ link register save eliminated.
  92              	.LVL0:
 372:Generated_Source\PSoC5/StripLights.c ****     uint32 color;
 373:Generated_Source\PSoC5/StripLights.c ****     extern const uint32 StripLights_CLUT[];
 374:Generated_Source\PSoC5/StripLights.c ****     static uint32 colorIndex = 0;
 375:Generated_Source\PSoC5/StripLights.c ****     
 376:Generated_Source\PSoC5/StripLights.c ****     colorIndex += incValue;
  93              		.loc 1 376 0
  94 0000 064A     		ldr	r2, .L13
 377:Generated_Source\PSoC5/StripLights.c ****     colorIndex = colorIndex % StripLights_COLOR_WHEEL_SIZE;
  95              		.loc 1 377 0
  96 0002 1821     		movs	r1, #24
  97 0004 1368     		ldr	r3, [r2]
  98 0006 1844     		add	r0, r0, r3
  99              	.LVL1:
 100 0008 B0FBF1F3 		udiv	r3, r0, r1
 101 000c 01FB1300 		mls	r0, r1, r3, r0
 378:Generated_Source\PSoC5/StripLights.c **** 
 379:Generated_Source\PSoC5/StripLights.c ****     #if(StripLights_MEMORY_TYPE == StripLights_MEMORY_RGB)
 380:Generated_Source\PSoC5/StripLights.c ****        color = StripLights_CLUT[ colorIndex ];
 381:Generated_Source\PSoC5/StripLights.c ****     #else
 382:Generated_Source\PSoC5/StripLights.c ****         color = colorIndex;
 383:Generated_Source\PSoC5/StripLights.c ****     #endif
 384:Generated_Source\PSoC5/StripLights.c **** 
 385:Generated_Source\PSoC5/StripLights.c **** 
 386:Generated_Source\PSoC5/StripLights.c ****     return(color);
 387:Generated_Source\PSoC5/StripLights.c **** }
 102              		.loc 1 387 0
 103 0010 034B     		ldr	r3, .L13+4
 377:Generated_Source\PSoC5/StripLights.c ****     colorIndex = colorIndex % StripLights_COLOR_WHEEL_SIZE;
 104              		.loc 1 377 0
 105 0012 1060     		str	r0, [r2]
 106              	.LVL2:
 107              		.loc 1 387 0
 108 0014 53F82000 		ldr	r0, [r3, r0, lsl #2]
 109              	.LVL3:
 110 0018 7047     		bx	lr
 111              	.L14:
 112 001a 00BF     		.align	2
 113              	.L13:
 114 001c 00000000 		.word	.LANCHOR0
 115 0020 00000000 		.word	.LANCHOR1
 116              		.cfi_endproc
 117              	.LFE68:
 118              		.size	StripLights_ColorInc, .-StripLights_ColorInc
 119              		.section	.text.StripLights_SetBitShifts,"ax",%progbits
 120              		.align	1
 121              		.global	StripLights_SetBitShifts
 122              		.thumb
 123              		.thumb_func
 124              		.type	StripLights_SetBitShifts, %function
 125              	StripLights_SetBitShifts:
ARM GAS  C:\Users\matij\AppData\Local\Temp\ccfrwtxb.s 			page 10


 126              	.LFB69:
 388:Generated_Source\PSoC5/StripLights.c **** 
 389:Generated_Source\PSoC5/StripLights.c **** void   StripLights_SetBitShifts(uint32 Red, uint32 Green, uint32 Blue) {
 127              		.loc 1 389 0
 128              		.cfi_startproc
 129              		@ args = 0, pretend = 0, frame = 0
 130              		@ frame_needed = 0, uses_anonymous_args = 0
 131              		@ link register save eliminated.
 132              	.LVL4:
 390:Generated_Source\PSoC5/StripLights.c ****     StripLights_Red_Shift = Red;
 133              		.loc 1 390 0
 134 0000 024B     		ldr	r3, .L16
 135 0002 5860     		str	r0, [r3, #4]
 391:Generated_Source\PSoC5/StripLights.c ****     StripLights_Green_Shift = Green;
 136              		.loc 1 391 0
 137 0004 024B     		ldr	r3, .L16+4
 392:Generated_Source\PSoC5/StripLights.c ****     StripLights_Blue_Shift = Blue;
 138              		.loc 1 392 0
 139 0006 83E80600 		stmia	r3, {r1, r2}
 140 000a 7047     		bx	lr
 141              	.L17:
 142              		.align	2
 143              	.L16:
 144 000c 00000000 		.word	.LANCHOR0
 145 0010 00000000 		.word	.LANCHOR2
 146              		.cfi_endproc
 147              	.LFE69:
 148              		.size	StripLights_SetBitShifts, .-StripLights_SetBitShifts
 149              		.section	.text.StripLights_MemClear,"ax",%progbits
 150              		.align	1
 151              		.global	StripLights_MemClear
 152              		.thumb
 153              		.thumb_func
 154              		.type	StripLights_MemClear, %function
 155              	StripLights_MemClear:
 156              	.LFB73:
 393:Generated_Source\PSoC5/StripLights.c **** }
 394:Generated_Source\PSoC5/StripLights.c **** 
 395:Generated_Source\PSoC5/StripLights.c **** 
 396:Generated_Source\PSoC5/StripLights.c **** /*****************************************************************************
 397:Generated_Source\PSoC5/StripLights.c **** * Function Name: StripLights_FISR
 398:Generated_Source\PSoC5/StripLights.c **** ******************************************************************************
 399:Generated_Source\PSoC5/StripLights.c **** *
 400:Generated_Source\PSoC5/StripLights.c **** * Summary:
 401:Generated_Source\PSoC5/StripLights.c **** *  Interrupt service handler for data transfer for each LED 
 402:Generated_Source\PSoC5/StripLights.c **** *
 403:Generated_Source\PSoC5/StripLights.c **** * Parameters:  
 404:Generated_Source\PSoC5/StripLights.c **** *  void
 405:Generated_Source\PSoC5/StripLights.c **** *
 406:Generated_Source\PSoC5/StripLights.c **** * Return: 
 407:Generated_Source\PSoC5/StripLights.c **** *  void 
 408:Generated_Source\PSoC5/StripLights.c **** *
 409:Generated_Source\PSoC5/StripLights.c **** * Reentrant: 
 410:Generated_Source\PSoC5/StripLights.c **** *  No
 411:Generated_Source\PSoC5/StripLights.c **** *
 412:Generated_Source\PSoC5/StripLights.c **** *****************************************************************************/
 413:Generated_Source\PSoC5/StripLights.c **** CY_ISR( StripLights_FISR)
ARM GAS  C:\Users\matij\AppData\Local\Temp\ccfrwtxb.s 			page 11


 414:Generated_Source\PSoC5/StripLights.c **** {
 415:Generated_Source\PSoC5/StripLights.c ****     extern uint32  StripLights_DimMask;
 416:Generated_Source\PSoC5/StripLights.c ****     extern uint32  StripLights_DimShift;
 417:Generated_Source\PSoC5/StripLights.c ****     uint32 static color;
 418:Generated_Source\PSoC5/StripLights.c **** 
 419:Generated_Source\PSoC5/StripLights.c ****     if(StripLights_ledIndex < StripLights_ARRAY_COLS)
 420:Generated_Source\PSoC5/StripLights.c ****     {
 421:Generated_Source\PSoC5/StripLights.c ****         #if(StripLights_MEMORY_TYPE == StripLights_MEMORY_RGB)
 422:Generated_Source\PSoC5/StripLights.c ****             color = StripLights_ledArray[StripLights_row][StripLights_ledIndex++];
 423:Generated_Source\PSoC5/StripLights.c ****         #else  /* Else use lookup table */
 424:Generated_Source\PSoC5/StripLights.c ****             color = StripLights_CLUT[ (StripLights_ledArray[StripLights_row][StripLights_ledIndex++
 425:Generated_Source\PSoC5/StripLights.c ****         #endif
 426:Generated_Source\PSoC5/StripLights.c **** 
 427:Generated_Source\PSoC5/StripLights.c ****         StripLights_WriteColor(color);
 428:Generated_Source\PSoC5/StripLights.c ****     }
 429:Generated_Source\PSoC5/StripLights.c ****     else 
 430:Generated_Source\PSoC5/StripLights.c ****     {
 431:Generated_Source\PSoC5/StripLights.c ****          StripLights_CONTROL = StripLights_ENABLE | StripLights_XFRCMPT_IRQ_EN; 
 432:Generated_Source\PSoC5/StripLights.c ****     }
 433:Generated_Source\PSoC5/StripLights.c **** 
 434:Generated_Source\PSoC5/StripLights.c **** }
 435:Generated_Source\PSoC5/StripLights.c **** 
 436:Generated_Source\PSoC5/StripLights.c **** /*****************************************************************************
 437:Generated_Source\PSoC5/StripLights.c **** * Function Name: StripLights_CISR
 438:Generated_Source\PSoC5/StripLights.c **** ******************************************************************************
 439:Generated_Source\PSoC5/StripLights.c **** *
 440:Generated_Source\PSoC5/StripLights.c **** * Summary:
 441:Generated_Source\PSoC5/StripLights.c **** *  Interrupt service handler after each row is complete.
 442:Generated_Source\PSoC5/StripLights.c **** *
 443:Generated_Source\PSoC5/StripLights.c **** * Parameters:  
 444:Generated_Source\PSoC5/StripLights.c **** *  void
 445:Generated_Source\PSoC5/StripLights.c **** *
 446:Generated_Source\PSoC5/StripLights.c **** * Return: 
 447:Generated_Source\PSoC5/StripLights.c **** *  void 
 448:Generated_Source\PSoC5/StripLights.c **** *
 449:Generated_Source\PSoC5/StripLights.c **** * Reentrant: 
 450:Generated_Source\PSoC5/StripLights.c **** *  No
 451:Generated_Source\PSoC5/StripLights.c **** *
 452:Generated_Source\PSoC5/StripLights.c **** *****************************************************************************/
 453:Generated_Source\PSoC5/StripLights.c **** CY_ISR( StripLights_CISR)
 454:Generated_Source\PSoC5/StripLights.c **** {
 455:Generated_Source\PSoC5/StripLights.c ****     extern uint32  StripLights_DimMask;
 456:Generated_Source\PSoC5/StripLights.c ****     extern uint32  StripLights_DimShift;
 457:Generated_Source\PSoC5/StripLights.c ****     uint32 static color;
 458:Generated_Source\PSoC5/StripLights.c ****     extern uint32 StripLights_refreshComplete;
 459:Generated_Source\PSoC5/StripLights.c **** 
 460:Generated_Source\PSoC5/StripLights.c **** 	StripLights_CONTROL = StripLights_ENABLE |StripLights_NEXT_ROW;
 461:Generated_Source\PSoC5/StripLights.c ****     StripLights_row++;
 462:Generated_Source\PSoC5/StripLights.c ****     if( StripLights_row < StripLights_ARRAY_ROWS)  /* More Rows to do  */
 463:Generated_Source\PSoC5/StripLights.c ****     {
 464:Generated_Source\PSoC5/StripLights.c ****         StripLights_Channel = StripLights_row;  
 465:Generated_Source\PSoC5/StripLights.c **** 
 466:Generated_Source\PSoC5/StripLights.c **** 		#if(StripLights_MEMORY_TYPE == StripLights_MEMORY_RGB)
 467:Generated_Source\PSoC5/StripLights.c ****              color = StripLights_ledArray[StripLights_row][0];
 468:Generated_Source\PSoC5/StripLights.c ****         #else  /* Else use lookup table */
 469:Generated_Source\PSoC5/StripLights.c ****              color = StripLights_CLUT[ (StripLights_ledArray[StripLights_row][0]) ];
 470:Generated_Source\PSoC5/StripLights.c ****         #endif
ARM GAS  C:\Users\matij\AppData\Local\Temp\ccfrwtxb.s 			page 12


 471:Generated_Source\PSoC5/StripLights.c **** 
 472:Generated_Source\PSoC5/StripLights.c ****         StripLights_WriteColor(color);
 473:Generated_Source\PSoC5/StripLights.c **** 
 474:Generated_Source\PSoC5/StripLights.c ****         StripLights_ledIndex = 1;
 475:Generated_Source\PSoC5/StripLights.c **** 		StripLights_CONTROL = StripLights_ENABLE | StripLights_FIFO_IRQ_EN; 
 476:Generated_Source\PSoC5/StripLights.c **** 		
 477:Generated_Source\PSoC5/StripLights.c ****     }
 478:Generated_Source\PSoC5/StripLights.c ****     else
 479:Generated_Source\PSoC5/StripLights.c ****     {
 480:Generated_Source\PSoC5/StripLights.c ****         StripLights_refreshComplete = 1u;
 481:Generated_Source\PSoC5/StripLights.c ****         if (StripLights_Done != NULL ) {
 482:Generated_Source\PSoC5/StripLights.c ****             CyDelay(1);
 483:Generated_Source\PSoC5/StripLights.c ****             StripLights_Done();
 484:Generated_Source\PSoC5/StripLights.c ****         }
 485:Generated_Source\PSoC5/StripLights.c ****     }
 486:Generated_Source\PSoC5/StripLights.c ****   
 487:Generated_Source\PSoC5/StripLights.c **** }
 488:Generated_Source\PSoC5/StripLights.c **** 
 489:Generated_Source\PSoC5/StripLights.c **** 
 490:Generated_Source\PSoC5/StripLights.c **** /*******************************************************************************
 491:Generated_Source\PSoC5/StripLights.c **** * Function Name: StripLights_DisplayClear
 492:Generated_Source\PSoC5/StripLights.c **** ********************************************************************************
 493:Generated_Source\PSoC5/StripLights.c **** * Summary:
 494:Generated_Source\PSoC5/StripLights.c **** *   Clear memory with a given value and update the display.
 495:Generated_Source\PSoC5/StripLights.c **** *
 496:Generated_Source\PSoC5/StripLights.c **** * Parameters:  
 497:Generated_Source\PSoC5/StripLights.c **** *  uint32 color: Color to clear display. 
 498:Generated_Source\PSoC5/StripLights.c **** *
 499:Generated_Source\PSoC5/StripLights.c **** * Return: 
 500:Generated_Source\PSoC5/StripLights.c **** *  void
 501:Generated_Source\PSoC5/StripLights.c **** *
 502:Generated_Source\PSoC5/StripLights.c **** *******************************************************************************/
 503:Generated_Source\PSoC5/StripLights.c **** void StripLights_DisplayClear(uint32 color)
 504:Generated_Source\PSoC5/StripLights.c **** {   
 505:Generated_Source\PSoC5/StripLights.c ****     StripLights_MemClear(color);
 506:Generated_Source\PSoC5/StripLights.c ****     StripLights_Trigger(1);
 507:Generated_Source\PSoC5/StripLights.c **** }
 508:Generated_Source\PSoC5/StripLights.c **** 
 509:Generated_Source\PSoC5/StripLights.c **** /*******************************************************************************
 510:Generated_Source\PSoC5/StripLights.c **** * Function Name: StripLights_MemClear
 511:Generated_Source\PSoC5/StripLights.c **** ********************************************************************************
 512:Generated_Source\PSoC5/StripLights.c **** * Summary:
 513:Generated_Source\PSoC5/StripLights.c **** *   Clear LED memory with given color, but do not update display.
 514:Generated_Source\PSoC5/StripLights.c **** *
 515:Generated_Source\PSoC5/StripLights.c **** * Parameters:  
 516:Generated_Source\PSoC5/StripLights.c **** *  uint32 color: Color to clear display.  
 517:Generated_Source\PSoC5/StripLights.c **** *
 518:Generated_Source\PSoC5/StripLights.c **** * Return: 
 519:Generated_Source\PSoC5/StripLights.c **** *  void
 520:Generated_Source\PSoC5/StripLights.c **** *
 521:Generated_Source\PSoC5/StripLights.c **** *******************************************************************************/
 522:Generated_Source\PSoC5/StripLights.c **** void StripLights_MemClear(uint32 color)
 523:Generated_Source\PSoC5/StripLights.c **** {
 157              		.loc 1 523 0
 158              		.cfi_startproc
 159              		@ args = 0, pretend = 0, frame = 0
 160              		@ frame_needed = 0, uses_anonymous_args = 0
ARM GAS  C:\Users\matij\AppData\Local\Temp\ccfrwtxb.s 			page 13


 161              		@ link register save eliminated.
 162              	.LVL5:
 524:Generated_Source\PSoC5/StripLights.c ****     uint32  row, col;
 525:Generated_Source\PSoC5/StripLights.c ****     
 526:Generated_Source\PSoC5/StripLights.c ****     for(row=0; row < StripLights_ARRAY_ROWS; row++)
 527:Generated_Source\PSoC5/StripLights.c ****     {
 528:Generated_Source\PSoC5/StripLights.c ****         for(col=0; col < StripLights_ARRAY_COLS; col++)
 529:Generated_Source\PSoC5/StripLights.c ****         {
 530:Generated_Source\PSoC5/StripLights.c ****             StripLights_ledArray[row][col] = color;
 163              		.loc 1 530 0
 164 0000 044A     		ldr	r2, .L21
 523:Generated_Source\PSoC5/StripLights.c ****     uint32  row, col;
 165              		.loc 1 523 0
 166 0002 0023     		movs	r3, #0
 167              	.LVL6:
 168              	.L19:
 169              		.loc 1 530 0 discriminator 3
 170 0004 42F82300 		str	r0, [r2, r3, lsl #2]
 528:Generated_Source\PSoC5/StripLights.c ****         {
 171              		.loc 1 528 0 discriminator 3
 172 0008 0133     		adds	r3, r3, #1
 173              	.LVL7:
 174 000a B3F5967F 		cmp	r3, #300
 175 000e F9D1     		bne	.L19
 531:Generated_Source\PSoC5/StripLights.c ****             #if(StripLights_MEMORY_TYPE == StripLights_MEMORY_RGB)
 532:Generated_Source\PSoC5/StripLights.c ****                 StripLights_ledArray[row][col] = color;
 533:Generated_Source\PSoC5/StripLights.c ****             #else  /* Else use lookup table */
 534:Generated_Source\PSoC5/StripLights.c ****                  StripLights_ledArray[row][col] = (uint8)color;
 535:Generated_Source\PSoC5/StripLights.c ****             #endif
 536:Generated_Source\PSoC5/StripLights.c ****         }
 537:Generated_Source\PSoC5/StripLights.c ****     }
 538:Generated_Source\PSoC5/StripLights.c **** }
 176              		.loc 1 538 0
 177 0010 7047     		bx	lr
 178              	.L22:
 179 0012 00BF     		.align	2
 180              	.L21:
 181 0014 00000000 		.word	StripLights_ledArray
 182              		.cfi_endproc
 183              	.LFE73:
 184              		.size	StripLights_MemClear, .-StripLights_MemClear
 185              		.section	.text.StripLights_Start,"ax",%progbits
 186              		.align	1
 187              		.global	StripLights_Start
 188              		.thumb
 189              		.thumb_func
 190              		.type	StripLights_Start, %function
 191              	StripLights_Start:
 192              	.LFB64:
 229:Generated_Source\PSoC5/StripLights.c ****     extern uint8 StripLights_initvar;
 193              		.loc 1 229 0
 194              		.cfi_startproc
 195              		@ args = 0, pretend = 0, frame = 0
 196              		@ frame_needed = 0, uses_anonymous_args = 0
 197 0000 38B5     		push	{r3, r4, r5, lr}
 198              		.cfi_def_cfa_offset 16
 199              		.cfi_offset 3, -16
ARM GAS  C:\Users\matij\AppData\Local\Temp\ccfrwtxb.s 			page 14


 200              		.cfi_offset 4, -12
 201              		.cfi_offset 5, -8
 202              		.cfi_offset 14, -4
 233:Generated_Source\PSoC5/StripLights.c ****     StripLights_ACTL0_REG = StripLights_DISABLE_FIFO;
 203              		.loc 1 233 0
 204 0002 164B     		ldr	r3, .L25
 205 0004 0124     		movs	r4, #1
 206 0006 1C70     		strb	r4, [r3]
 234:Generated_Source\PSoC5/StripLights.c ****     
 207              		.loc 1 234 0
 208 0008 154B     		ldr	r3, .L25+4
 209 000a 0322     		movs	r2, #3
 210 000c 1A70     		strb	r2, [r3]
 236:Generated_Source\PSoC5/StripLights.c ****     StripLights_Compare0 = StripLights_DATA_ZERO;
 211              		.loc 1 236 0
 212 000e 1D22     		movs	r2, #29
 213 0010 03F8502C 		strb	r2, [r3, #-80]
 240:Generated_Source\PSoC5/StripLights.c ****     StripLights_MemClear(StripLights_OFF);
 214              		.loc 1 240 0
 215 0014 1349     		ldr	r1, .L25+8
 237:Generated_Source\PSoC5/StripLights.c ****     StripLights_Compare1 = StripLights_DATA_ONE;
 216              		.loc 1 237 0
 217 0016 1822     		movs	r2, #24
 218 0018 03F8702C 		strb	r2, [r3, #-112]
 238:Generated_Source\PSoC5/StripLights.c ****     
 219              		.loc 1 238 0
 220 001c 0E22     		movs	r2, #14
 221 001e 03F8602C 		strb	r2, [r3, #-96]
 241:Generated_Source\PSoC5/StripLights.c ****     StripLights_CONTROL = StripLights_DISABLE;
 222              		.loc 1 241 0
 223 0022 0020     		movs	r0, #0
 240:Generated_Source\PSoC5/StripLights.c ****     StripLights_MemClear(StripLights_OFF);
 224              		.loc 1 240 0
 225 0024 0C70     		strb	r4, [r1]
 241:Generated_Source\PSoC5/StripLights.c ****     StripLights_CONTROL = StripLights_DISABLE;
 226              		.loc 1 241 0
 227 0026 FFF7FEFF 		bl	StripLights_MemClear
 228              	.LVL8:
 242:Generated_Source\PSoC5/StripLights.c ****     
 229              		.loc 1 242 0
 230 002a 0025     		movs	r5, #0
 231 002c 0D70     		strb	r5, [r1]
 244:Generated_Source\PSoC5/StripLights.c ****     
 232              		.loc 1 244 0
 233 002e 2846     		mov	r0, r5
 234 0030 FFF7FEFF 		bl	StripLights_SetFont
 235              	.LVL9:
 236              	.LBB4:
 237              	.LBB5:
 539:Generated_Source\PSoC5/StripLights.c **** 
 540:Generated_Source\PSoC5/StripLights.c **** 
 541:Generated_Source\PSoC5/StripLights.c **** 
 542:Generated_Source\PSoC5/StripLights.c **** /*******************************************************************************
 543:Generated_Source\PSoC5/StripLights.c **** * Function Name: StripLights_WriteColor
 544:Generated_Source\PSoC5/StripLights.c **** ********************************************************************************
 545:Generated_Source\PSoC5/StripLights.c **** * Summary:
 546:Generated_Source\PSoC5/StripLights.c **** *   Write given color directly to output register.
ARM GAS  C:\Users\matij\AppData\Local\Temp\ccfrwtxb.s 			page 15


 547:Generated_Source\PSoC5/StripLights.c **** *
 548:Generated_Source\PSoC5/StripLights.c **** * Parameters:  
 549:Generated_Source\PSoC5/StripLights.c **** *  uint32 color: Color to write to display. 
 550:Generated_Source\PSoC5/StripLights.c **** *
 551:Generated_Source\PSoC5/StripLights.c **** * Return: 
 552:Generated_Source\PSoC5/StripLights.c **** *  void
 553:Generated_Source\PSoC5/StripLights.c **** *
 554:Generated_Source\PSoC5/StripLights.c **** *******************************************************************************/
 555:Generated_Source\PSoC5/StripLights.c **** void StripLights_WriteColor(uint32 color)
 556:Generated_Source\PSoC5/StripLights.c **** {
 557:Generated_Source\PSoC5/StripLights.c ****     while( (StripLights_STATUS & StripLights_FIFO_EMPTY) == 0); 
 558:Generated_Source\PSoC5/StripLights.c **** 
 559:Generated_Source\PSoC5/StripLights.c ****     
 560:Generated_Source\PSoC5/StripLights.c ****     
 561:Generated_Source\PSoC5/StripLights.c ****     #if(StripLights_UseGammaCorrection == 0 ) 
 562:Generated_Source\PSoC5/StripLights.c ****     
 563:Generated_Source\PSoC5/StripLights.c ****     StripLights_DATA = (uint8)(color & 0x000000FF);  // Write Red
 564:Generated_Source\PSoC5/StripLights.c ****     color = color >> 8;
 565:Generated_Source\PSoC5/StripLights.c ****     StripLights_DATA = (uint8)(color & 0x000000FF);  // Write green
 566:Generated_Source\PSoC5/StripLights.c ****     color = color >> 8;
 567:Generated_Source\PSoC5/StripLights.c ****     StripLights_DATA = (uint8)(color & 0x000000FF);  // Write green
 568:Generated_Source\PSoC5/StripLights.c ****     color = color >> 8;
 569:Generated_Source\PSoC5/StripLights.c ****     StripLights_DATA = (uint8)(color & 0x000000FF);  // Write green
 570:Generated_Source\PSoC5/StripLights.c ****     
 571:Generated_Source\PSoC5/StripLights.c ****     #else 
 572:Generated_Source\PSoC5/StripLights.c ****         
 573:Generated_Source\PSoC5/StripLights.c ****     StripLights_DATA = gamma[(uint8)(color & 0x000000FF)];  // Write Green
 574:Generated_Source\PSoC5/StripLights.c ****     color = color >> 8;
 575:Generated_Source\PSoC5/StripLights.c ****     StripLights_DATA = gamma[(uint8)(color & 0x000000FF)];  // Write Red
 576:Generated_Source\PSoC5/StripLights.c ****     color = color >> 8;
 577:Generated_Source\PSoC5/StripLights.c ****     StripLights_DATA = gamma[(uint8)(color & 0x000000FF)];  // Write Blue
 578:Generated_Source\PSoC5/StripLights.c ****     color = color >> 8;
 579:Generated_Source\PSoC5/StripLights.c ****     StripLights_DATA = (uint8)(color & 0x000000FF);  // Write green
 580:Generated_Source\PSoC5/StripLights.c ****     
 581:Generated_Source\PSoC5/StripLights.c ****     #endif 
 582:Generated_Source\PSoC5/StripLights.c **** }
 583:Generated_Source\PSoC5/StripLights.c **** 
 584:Generated_Source\PSoC5/StripLights.c **** 
 585:Generated_Source\PSoC5/StripLights.c **** 
 586:Generated_Source\PSoC5/StripLights.c **** 
 587:Generated_Source\PSoC5/StripLights.c **** void StripLights_RGBtoHSV( float r, float g, float b, float *h, float *s, float *v )
 588:Generated_Source\PSoC5/StripLights.c **** {
 589:Generated_Source\PSoC5/StripLights.c **** 	float min, max, delta;
 590:Generated_Source\PSoC5/StripLights.c **** 	min = MIN( r, g, b );
 591:Generated_Source\PSoC5/StripLights.c **** 	max = MAX( r, g, b );
 592:Generated_Source\PSoC5/StripLights.c **** 	*v = max;				// v
 593:Generated_Source\PSoC5/StripLights.c **** 	delta = max - min;
 594:Generated_Source\PSoC5/StripLights.c **** 	if( max != 0 )
 595:Generated_Source\PSoC5/StripLights.c **** 		*s = delta / max;		// s
 596:Generated_Source\PSoC5/StripLights.c **** 	else {
 597:Generated_Source\PSoC5/StripLights.c **** 		// r = g = b = 0		// s = 0, v is undefined
 598:Generated_Source\PSoC5/StripLights.c **** 		*s = 0;
 599:Generated_Source\PSoC5/StripLights.c **** 		*h = -1;
 600:Generated_Source\PSoC5/StripLights.c **** 		return;
 601:Generated_Source\PSoC5/StripLights.c **** 	}
 602:Generated_Source\PSoC5/StripLights.c **** 	if( r == max )
 603:Generated_Source\PSoC5/StripLights.c **** 		*h = ( g - b ) / delta;		// between yellow & magenta
ARM GAS  C:\Users\matij\AppData\Local\Temp\ccfrwtxb.s 			page 16


 604:Generated_Source\PSoC5/StripLights.c **** 	else if( g == max )
 605:Generated_Source\PSoC5/StripLights.c **** 		*h = 2 + ( b - r ) / delta;	// between cyan & yellow
 606:Generated_Source\PSoC5/StripLights.c **** 	else
 607:Generated_Source\PSoC5/StripLights.c **** 		*h = 4 + ( r - g ) / delta;	// between magenta & cyan
 608:Generated_Source\PSoC5/StripLights.c **** 	*h *= 60;				// degrees
 609:Generated_Source\PSoC5/StripLights.c **** 	if( *h < 0 )
 610:Generated_Source\PSoC5/StripLights.c **** 		*h += 360;
 611:Generated_Source\PSoC5/StripLights.c **** }
 612:Generated_Source\PSoC5/StripLights.c **** 
 613:Generated_Source\PSoC5/StripLights.c **** /*!
 614:Generated_Source\PSoC5/StripLights.c **** 	@fn void HSVtoRGB( float *r, float *g, float *b, float h, float s, float v )
 615:Generated_Source\PSoC5/StripLights.c **** 	@brief convert HSV to RGB
 616:Generated_Source\PSoC5/StripLights.c **** */
 617:Generated_Source\PSoC5/StripLights.c **** void StripLights_HSVtoRGB( float *r, float *g, float *b, float h, float s, float v )
 618:Generated_Source\PSoC5/StripLights.c **** {
 619:Generated_Source\PSoC5/StripLights.c **** 	int i;
 620:Generated_Source\PSoC5/StripLights.c **** 	float f, p, q, t;
 621:Generated_Source\PSoC5/StripLights.c **** 	if( s == 0 ) {
 622:Generated_Source\PSoC5/StripLights.c **** 		// achromatic (grey)
 623:Generated_Source\PSoC5/StripLights.c **** 		*r = *g = *b = v;
 624:Generated_Source\PSoC5/StripLights.c **** 		return;
 625:Generated_Source\PSoC5/StripLights.c **** 	}
 626:Generated_Source\PSoC5/StripLights.c **** 	h /= 60;			// sector 0 to 5
 627:Generated_Source\PSoC5/StripLights.c **** 	i = (int) h;
 628:Generated_Source\PSoC5/StripLights.c **** 	f = h - i;			// factorial part of h
 629:Generated_Source\PSoC5/StripLights.c **** 	p = v * ( 1 - s );
 630:Generated_Source\PSoC5/StripLights.c **** 	q = v * ( 1 - s * f );
 631:Generated_Source\PSoC5/StripLights.c **** 	t = v * ( 1 - s * ( 1 - f ) );
 632:Generated_Source\PSoC5/StripLights.c **** 	switch( i ) {
 633:Generated_Source\PSoC5/StripLights.c **** 		case 0:
 634:Generated_Source\PSoC5/StripLights.c **** 			*r = v;
 635:Generated_Source\PSoC5/StripLights.c **** 			*g = t;
 636:Generated_Source\PSoC5/StripLights.c **** 			*b = p;
 637:Generated_Source\PSoC5/StripLights.c **** 			break;
 638:Generated_Source\PSoC5/StripLights.c **** 		case 1:
 639:Generated_Source\PSoC5/StripLights.c **** 			*r = q;
 640:Generated_Source\PSoC5/StripLights.c **** 			*g = v;
 641:Generated_Source\PSoC5/StripLights.c **** 			*b = p;
 642:Generated_Source\PSoC5/StripLights.c **** 			break;
 643:Generated_Source\PSoC5/StripLights.c **** 		case 2:
 644:Generated_Source\PSoC5/StripLights.c **** 			*r = p;
 645:Generated_Source\PSoC5/StripLights.c **** 			*g = v;
 646:Generated_Source\PSoC5/StripLights.c **** 			*b = t;
 647:Generated_Source\PSoC5/StripLights.c **** 			break;
 648:Generated_Source\PSoC5/StripLights.c **** 		case 3:
 649:Generated_Source\PSoC5/StripLights.c **** 			*r = p;
 650:Generated_Source\PSoC5/StripLights.c **** 			*g = q;
 651:Generated_Source\PSoC5/StripLights.c **** 			*b = v;
 652:Generated_Source\PSoC5/StripLights.c **** 			break;
 653:Generated_Source\PSoC5/StripLights.c **** 		case 4:
 654:Generated_Source\PSoC5/StripLights.c **** 			*r = t;
 655:Generated_Source\PSoC5/StripLights.c **** 			*g = p;
 656:Generated_Source\PSoC5/StripLights.c **** 			*b = v;
 657:Generated_Source\PSoC5/StripLights.c **** 			break;
 658:Generated_Source\PSoC5/StripLights.c **** 		default:		// case 5:
 659:Generated_Source\PSoC5/StripLights.c **** 			*r = v;
 660:Generated_Source\PSoC5/StripLights.c **** 			*g = p;
ARM GAS  C:\Users\matij\AppData\Local\Temp\ccfrwtxb.s 			page 17


 661:Generated_Source\PSoC5/StripLights.c **** 			*b = q;
 662:Generated_Source\PSoC5/StripLights.c **** 			break;
 663:Generated_Source\PSoC5/StripLights.c **** 	}
 664:Generated_Source\PSoC5/StripLights.c **** }
 665:Generated_Source\PSoC5/StripLights.c **** 
 666:Generated_Source\PSoC5/StripLights.c **** void StripLights_HSV_Pixel(int32 x, int32 y, float h, float s, float v) {
 667:Generated_Source\PSoC5/StripLights.c ****     float R,G,B;
 668:Generated_Source\PSoC5/StripLights.c ****     StripLights_HSVtoRGB( &R, &G, &B,  h,  s,  v );    
 669:Generated_Source\PSoC5/StripLights.c ****     //uint32 colour = ((int) (R * 255)) | (((int) (G * 255))<<8) | (((int) (B * 255)) << 16 );
 670:Generated_Source\PSoC5/StripLights.c ****     uint32 colour = ((int) (R * 255)<<StripLights_Red_Shift) | (((int) (B * 255))<<StripLights_Blue
 671:Generated_Source\PSoC5/StripLights.c ****     StripLights_Pixel(x,y,colour);
 672:Generated_Source\PSoC5/StripLights.c **** }
 673:Generated_Source\PSoC5/StripLights.c **** 
 674:Generated_Source\PSoC5/StripLights.c **** /*******************************************************************************
 675:Generated_Source\PSoC5/StripLights.c **** * Function Name: StripLights_Pixel
 676:Generated_Source\PSoC5/StripLights.c **** ********************************************************************************
 677:Generated_Source\PSoC5/StripLights.c **** *
 678:Generated_Source\PSoC5/StripLights.c **** * Summary:
 679:Generated_Source\PSoC5/StripLights.c **** *  Draw Pixel  
 680:Generated_Source\PSoC5/StripLights.c **** *
 681:Generated_Source\PSoC5/StripLights.c **** * Parameters:  
 682:Generated_Source\PSoC5/StripLights.c **** *  x,y:    Location to draw the pixel
 683:Generated_Source\PSoC5/StripLights.c **** *  color:  Color of the pixel
 684:Generated_Source\PSoC5/StripLights.c **** *
 685:Generated_Source\PSoC5/StripLights.c **** * Return: 
 686:Generated_Source\PSoC5/StripLights.c **** *  None 
 687:Generated_Source\PSoC5/StripLights.c **** *******************************************************************************/
 688:Generated_Source\PSoC5/StripLights.c **** void StripLights_Pixel(int32 x, int32 y, uint32 color)
 689:Generated_Source\PSoC5/StripLights.c **** {
 690:Generated_Source\PSoC5/StripLights.c **** 
 691:Generated_Source\PSoC5/StripLights.c **** 	if((x >= StripLights_MIN_X) && (y >= StripLights_MIN_Y) && (x <= StripLights_MAX_X) && (y <= Strip
 692:Generated_Source\PSoC5/StripLights.c ****     {
 693:Generated_Source\PSoC5/StripLights.c **** 
 694:Generated_Source\PSoC5/StripLights.c ****     #if(StripLights_MEMORY_TYPE == StripLights_MEMORY_RGB)
 695:Generated_Source\PSoC5/StripLights.c ****        StripLights_ledArray[y][x] = color;
 696:Generated_Source\PSoC5/StripLights.c ****     #else  /* Else use lookup table */
 697:Generated_Source\PSoC5/StripLights.c ****        StripLights_ledArray[y][x] = (uint8)color;
 698:Generated_Source\PSoC5/StripLights.c ****     #endif
 699:Generated_Source\PSoC5/StripLights.c ****     }
 700:Generated_Source\PSoC5/StripLights.c ****   
 701:Generated_Source\PSoC5/StripLights.c **** }
 702:Generated_Source\PSoC5/StripLights.c **** 
 703:Generated_Source\PSoC5/StripLights.c **** /*******************************************************************************
 704:Generated_Source\PSoC5/StripLights.c **** * Function Name: StripLights_GetPixel
 705:Generated_Source\PSoC5/StripLights.c **** ********************************************************************************
 706:Generated_Source\PSoC5/StripLights.c **** *
 707:Generated_Source\PSoC5/StripLights.c **** * Summary:
 708:Generated_Source\PSoC5/StripLights.c **** *  Get Pixel Color  
 709:Generated_Source\PSoC5/StripLights.c **** *
 710:Generated_Source\PSoC5/StripLights.c **** * Parameters:  
 711:Generated_Source\PSoC5/StripLights.c **** *  x,y:    Location to get pixel color
 712:Generated_Source\PSoC5/StripLights.c **** *
 713:Generated_Source\PSoC5/StripLights.c **** * Return: 
 714:Generated_Source\PSoC5/StripLights.c **** *  None 
 715:Generated_Source\PSoC5/StripLights.c **** *******************************************************************************/
 716:Generated_Source\PSoC5/StripLights.c **** uint32 StripLights_GetPixel(int32 x, int32 y)
 717:Generated_Source\PSoC5/StripLights.c **** {
ARM GAS  C:\Users\matij\AppData\Local\Temp\ccfrwtxb.s 			page 18


 718:Generated_Source\PSoC5/StripLights.c ****     uint32 color;
 719:Generated_Source\PSoC5/StripLights.c ****     if((x>=0) && (y>=0) && (x < StripLights_ARRAY_COLS) && (y < StripLights_ARRAY_ROWS))
 720:Generated_Source\PSoC5/StripLights.c ****     {
 721:Generated_Source\PSoC5/StripLights.c ****     #if(StripLights_MEMORY_TYPE == StripLights_MEMORY_RGB)
 722:Generated_Source\PSoC5/StripLights.c ****        color = StripLights_ledArray[y][x];
 723:Generated_Source\PSoC5/StripLights.c ****     #else  /* Else use lookup table */
 724:Generated_Source\PSoC5/StripLights.c ****        color = (uint32)StripLights_ledArray[y][x];
 725:Generated_Source\PSoC5/StripLights.c ****     #endif
 726:Generated_Source\PSoC5/StripLights.c ****     }
 727:Generated_Source\PSoC5/StripLights.c ****     return(color);
 728:Generated_Source\PSoC5/StripLights.c **** }
 729:Generated_Source\PSoC5/StripLights.c **** 
 730:Generated_Source\PSoC5/StripLights.c **** /*******************************************************************************
 731:Generated_Source\PSoC5/StripLights.c **** * Function Name: StripLights_DrawCircle
 732:Generated_Source\PSoC5/StripLights.c **** ********************************************************************************
 733:Generated_Source\PSoC5/StripLights.c **** *
 734:Generated_Source\PSoC5/StripLights.c **** * Summary:
 735:Generated_Source\PSoC5/StripLights.c **** *  Draw a circle on the display given a start point and radius.  
 736:Generated_Source\PSoC5/StripLights.c **** *
 737:Generated_Source\PSoC5/StripLights.c **** *  This code uses Bresenham's Circle Algorithm. 
 738:Generated_Source\PSoC5/StripLights.c **** *
 739:Generated_Source\PSoC5/StripLights.c **** * Parameters:  
 740:Generated_Source\PSoC5/StripLights.c **** *  x0, y0: Center of circle
 741:Generated_Source\PSoC5/StripLights.c **** *  radius: Radius of circle
 742:Generated_Source\PSoC5/StripLights.c **** *  color:  Color of circle
 743:Generated_Source\PSoC5/StripLights.c **** *
 744:Generated_Source\PSoC5/StripLights.c **** * Return: 
 745:Generated_Source\PSoC5/StripLights.c **** *  None 
 746:Generated_Source\PSoC5/StripLights.c **** *  
 747:Generated_Source\PSoC5/StripLights.c **** *******************************************************************************/
 748:Generated_Source\PSoC5/StripLights.c **** void StripLights_DrawCircle (int32 x0, int32 y0, int32 radius, uint32 color)
 749:Generated_Source\PSoC5/StripLights.c **** {
 750:Generated_Source\PSoC5/StripLights.c **** 	int32 f = 1 - radius;
 751:Generated_Source\PSoC5/StripLights.c **** 	int32 ddF_x = 0;
 752:Generated_Source\PSoC5/StripLights.c **** 	int32 ddF_y = -2 * radius;
 753:Generated_Source\PSoC5/StripLights.c **** 	int32 x = 0;
 754:Generated_Source\PSoC5/StripLights.c **** 	int32 y = radius;
 755:Generated_Source\PSoC5/StripLights.c **** 
 756:Generated_Source\PSoC5/StripLights.c **** 	StripLights_Pixel(x0, y0 + radius, color);
 757:Generated_Source\PSoC5/StripLights.c **** 	StripLights_Pixel(x0, y0 - radius, color);
 758:Generated_Source\PSoC5/StripLights.c **** 	StripLights_Pixel( x0 + radius, y0, color);
 759:Generated_Source\PSoC5/StripLights.c **** 	StripLights_Pixel( x0 - radius, y0, color);
 760:Generated_Source\PSoC5/StripLights.c **** 
 761:Generated_Source\PSoC5/StripLights.c **** 	while(x < y)
 762:Generated_Source\PSoC5/StripLights.c **** 	{
 763:Generated_Source\PSoC5/StripLights.c **** 		if(f >= 0)
 764:Generated_Source\PSoC5/StripLights.c **** 		{
 765:Generated_Source\PSoC5/StripLights.c **** 			y--;
 766:Generated_Source\PSoC5/StripLights.c **** 			ddF_y += 2;
 767:Generated_Source\PSoC5/StripLights.c **** 			f += ddF_y;
 768:Generated_Source\PSoC5/StripLights.c **** 		}
 769:Generated_Source\PSoC5/StripLights.c **** 		x++;
 770:Generated_Source\PSoC5/StripLights.c **** 		ddF_x += 2;
 771:Generated_Source\PSoC5/StripLights.c **** 		f += ddF_x + 1;
 772:Generated_Source\PSoC5/StripLights.c **** 
 773:Generated_Source\PSoC5/StripLights.c **** 		StripLights_Pixel(x0 + x, y0 + y, color);
 774:Generated_Source\PSoC5/StripLights.c **** 		StripLights_Pixel(x0 - x, y0 + y, color);
ARM GAS  C:\Users\matij\AppData\Local\Temp\ccfrwtxb.s 			page 19


 775:Generated_Source\PSoC5/StripLights.c **** 		StripLights_Pixel( x0 + x, y0 - y, color);
 776:Generated_Source\PSoC5/StripLights.c **** 		StripLights_Pixel( x0 - x, y0 - y, color);
 777:Generated_Source\PSoC5/StripLights.c **** 		StripLights_Pixel( x0 + y, y0 + x, color);
 778:Generated_Source\PSoC5/StripLights.c **** 		StripLights_Pixel( x0 - y, y0 + x, color);
 779:Generated_Source\PSoC5/StripLights.c **** 		StripLights_Pixel( x0 + y, y0 - x, color);
 780:Generated_Source\PSoC5/StripLights.c **** 		StripLights_Pixel( x0 - y, y0 - x, color);
 781:Generated_Source\PSoC5/StripLights.c **** 	}
 782:Generated_Source\PSoC5/StripLights.c **** }
 783:Generated_Source\PSoC5/StripLights.c **** 
 784:Generated_Source\PSoC5/StripLights.c **** 
 785:Generated_Source\PSoC5/StripLights.c **** /*******************************************************************************
 786:Generated_Source\PSoC5/StripLights.c **** * Function Name: StripLights_DrawLine
 787:Generated_Source\PSoC5/StripLights.c **** ********************************************************************************
 788:Generated_Source\PSoC5/StripLights.c **** *
 789:Generated_Source\PSoC5/StripLights.c **** * Summary:
 790:Generated_Source\PSoC5/StripLights.c **** *  Draw a line on the display.  
 791:Generated_Source\PSoC5/StripLights.c **** *
 792:Generated_Source\PSoC5/StripLights.c **** * Parameters:  
 793:Generated_Source\PSoC5/StripLights.c **** *  x0, y0:  The beginning endpoint
 794:Generated_Source\PSoC5/StripLights.c **** *  x1, y1:  The end endpoint.
 795:Generated_Source\PSoC5/StripLights.c **** *  color:   Color of the line.
 796:Generated_Source\PSoC5/StripLights.c **** *
 797:Generated_Source\PSoC5/StripLights.c **** * Return: 
 798:Generated_Source\PSoC5/StripLights.c **** *  None 
 799:Generated_Source\PSoC5/StripLights.c **** *  
 800:Generated_Source\PSoC5/StripLights.c **** *******************************************************************************/
 801:Generated_Source\PSoC5/StripLights.c **** void StripLights_DrawLine(int32 x0, int32 y0, int32 x1, int32 y1, uint32 color)
 802:Generated_Source\PSoC5/StripLights.c **** {
 803:Generated_Source\PSoC5/StripLights.c **** 	int32 dy = y1 - y0; /* Difference between y0 and y1 */
 804:Generated_Source\PSoC5/StripLights.c **** 	int32 dx = x1 - x0; /* Difference between x0 and x1 */
 805:Generated_Source\PSoC5/StripLights.c **** 	int32 stepx, stepy;
 806:Generated_Source\PSoC5/StripLights.c **** 
 807:Generated_Source\PSoC5/StripLights.c **** 	if (dy < 0)
 808:Generated_Source\PSoC5/StripLights.c **** 	{
 809:Generated_Source\PSoC5/StripLights.c **** 		dy = -dy;
 810:Generated_Source\PSoC5/StripLights.c **** 		stepy = -1;
 811:Generated_Source\PSoC5/StripLights.c **** 	}
 812:Generated_Source\PSoC5/StripLights.c **** 	else
 813:Generated_Source\PSoC5/StripLights.c **** 	{
 814:Generated_Source\PSoC5/StripLights.c **** 		stepy = 1;
 815:Generated_Source\PSoC5/StripLights.c **** 	}
 816:Generated_Source\PSoC5/StripLights.c **** 
 817:Generated_Source\PSoC5/StripLights.c **** 	if (dx < 0)
 818:Generated_Source\PSoC5/StripLights.c **** 	{
 819:Generated_Source\PSoC5/StripLights.c **** 		dx = -dx;
 820:Generated_Source\PSoC5/StripLights.c **** 		stepx = -1;
 821:Generated_Source\PSoC5/StripLights.c **** 	}
 822:Generated_Source\PSoC5/StripLights.c **** 	else
 823:Generated_Source\PSoC5/StripLights.c **** 	{
 824:Generated_Source\PSoC5/StripLights.c **** 		stepx = 1;
 825:Generated_Source\PSoC5/StripLights.c **** 	}
 826:Generated_Source\PSoC5/StripLights.c **** 
 827:Generated_Source\PSoC5/StripLights.c **** 	dy <<= 1; /* dy is now 2*dy  */
 828:Generated_Source\PSoC5/StripLights.c **** 	dx <<= 1; /* dx is now 2*dx  */
 829:Generated_Source\PSoC5/StripLights.c **** 	StripLights_Pixel(x0, y0, color);
 830:Generated_Source\PSoC5/StripLights.c **** 
 831:Generated_Source\PSoC5/StripLights.c **** 	if (dx > dy) 
ARM GAS  C:\Users\matij\AppData\Local\Temp\ccfrwtxb.s 			page 20


 832:Generated_Source\PSoC5/StripLights.c **** 	{
 833:Generated_Source\PSoC5/StripLights.c **** 		int fraction = dy - (dx >> 1);
 834:Generated_Source\PSoC5/StripLights.c **** 		while (x0 != x1)
 835:Generated_Source\PSoC5/StripLights.c **** 		{
 836:Generated_Source\PSoC5/StripLights.c **** 			if (fraction >= 0)
 837:Generated_Source\PSoC5/StripLights.c **** 			{
 838:Generated_Source\PSoC5/StripLights.c **** 				y0 += stepy;
 839:Generated_Source\PSoC5/StripLights.c **** 				fraction -= dx;
 840:Generated_Source\PSoC5/StripLights.c **** 			}
 841:Generated_Source\PSoC5/StripLights.c **** 			x0 += stepx;
 842:Generated_Source\PSoC5/StripLights.c **** 			fraction += dy;
 843:Generated_Source\PSoC5/StripLights.c **** 			StripLights_Pixel(x0, y0, color);
 844:Generated_Source\PSoC5/StripLights.c **** 		}
 845:Generated_Source\PSoC5/StripLights.c **** 	}
 846:Generated_Source\PSoC5/StripLights.c **** 	else
 847:Generated_Source\PSoC5/StripLights.c **** 	{
 848:Generated_Source\PSoC5/StripLights.c **** 		int fraction = dx - (dy >> 1);
 849:Generated_Source\PSoC5/StripLights.c **** 		while (y0 != y1)
 850:Generated_Source\PSoC5/StripLights.c **** 		{
 851:Generated_Source\PSoC5/StripLights.c **** 			if (fraction >= 0)
 852:Generated_Source\PSoC5/StripLights.c **** 			{
 853:Generated_Source\PSoC5/StripLights.c **** 				x0 += stepx;
 854:Generated_Source\PSoC5/StripLights.c **** 				fraction -= dy;
 855:Generated_Source\PSoC5/StripLights.c **** 			}
 856:Generated_Source\PSoC5/StripLights.c **** 			y0 += stepy;
 857:Generated_Source\PSoC5/StripLights.c **** 			fraction += dx;
 858:Generated_Source\PSoC5/StripLights.c **** 			StripLights_Pixel( x0, y0, color);
 859:Generated_Source\PSoC5/StripLights.c **** 		}
 860:Generated_Source\PSoC5/StripLights.c **** 	}
 861:Generated_Source\PSoC5/StripLights.c **** }
 862:Generated_Source\PSoC5/StripLights.c **** 
 863:Generated_Source\PSoC5/StripLights.c **** /*******************************************************************************
 864:Generated_Source\PSoC5/StripLights.c **** * Function Name: StripLights_DrawRect
 865:Generated_Source\PSoC5/StripLights.c **** ********************************************************************************
 866:Generated_Source\PSoC5/StripLights.c **** *
 867:Generated_Source\PSoC5/StripLights.c **** * Summary:
 868:Generated_Source\PSoC5/StripLights.c **** *  Draw a rectangle, filled or not.  
 869:Generated_Source\PSoC5/StripLights.c **** *
 870:Generated_Source\PSoC5/StripLights.c **** * Parameters:  
 871:Generated_Source\PSoC5/StripLights.c **** *  x0, y0:  The upper lefthand corner.
 872:Generated_Source\PSoC5/StripLights.c **** *  x1, y1:  The lower right corner.
 873:Generated_Source\PSoC5/StripLights.c **** *  fill:    Non-Zero if retangle is to be filled.
 874:Generated_Source\PSoC5/StripLights.c **** *  color:   Color for rectangle, border and fill.
 875:Generated_Source\PSoC5/StripLights.c **** *
 876:Generated_Source\PSoC5/StripLights.c **** * Return: 
 877:Generated_Source\PSoC5/StripLights.c **** *  None 
 878:Generated_Source\PSoC5/StripLights.c **** *  
 879:Generated_Source\PSoC5/StripLights.c **** *******************************************************************************/
 880:Generated_Source\PSoC5/StripLights.c **** void StripLights_DrawRect(int32 x0, int32 y0, int32 x1, int32 y1, int32 fill, uint32 color)
 881:Generated_Source\PSoC5/StripLights.c **** {	
 882:Generated_Source\PSoC5/StripLights.c ****      int xDiff;
 883:Generated_Source\PSoC5/StripLights.c **** 	/* Check if the rectangle is to be filled    */
 884:Generated_Source\PSoC5/StripLights.c **** 	if (fill != 0)
 885:Generated_Source\PSoC5/StripLights.c **** 	{	
 886:Generated_Source\PSoC5/StripLights.c ****         /* Find the difference between the x vars */
 887:Generated_Source\PSoC5/StripLights.c **** 		if(x0 > x1)
 888:Generated_Source\PSoC5/StripLights.c **** 		{
ARM GAS  C:\Users\matij\AppData\Local\Temp\ccfrwtxb.s 			page 21


 889:Generated_Source\PSoC5/StripLights.c **** 			xDiff = x0 - x1; 
 890:Generated_Source\PSoC5/StripLights.c **** 		}
 891:Generated_Source\PSoC5/StripLights.c **** 		else
 892:Generated_Source\PSoC5/StripLights.c **** 		{
 893:Generated_Source\PSoC5/StripLights.c **** 			xDiff = x1 - x0;
 894:Generated_Source\PSoC5/StripLights.c **** 		}
 895:Generated_Source\PSoC5/StripLights.c **** 	
 896:Generated_Source\PSoC5/StripLights.c **** 	    /* Fill it with lines  */
 897:Generated_Source\PSoC5/StripLights.c **** 		while(xDiff >= 0)
 898:Generated_Source\PSoC5/StripLights.c **** 		{
 899:Generated_Source\PSoC5/StripLights.c **** 			StripLights_DrawLine(x0, y0, x0, y1, color);
 900:Generated_Source\PSoC5/StripLights.c **** 		
 901:Generated_Source\PSoC5/StripLights.c **** 			if(x0 > x1)
 902:Generated_Source\PSoC5/StripLights.c **** 				x0--;
 903:Generated_Source\PSoC5/StripLights.c **** 			else
 904:Generated_Source\PSoC5/StripLights.c **** 				x0++;
 905:Generated_Source\PSoC5/StripLights.c **** 		
 906:Generated_Source\PSoC5/StripLights.c **** 			xDiff--;
 907:Generated_Source\PSoC5/StripLights.c **** 		}
 908:Generated_Source\PSoC5/StripLights.c **** 
 909:Generated_Source\PSoC5/StripLights.c **** 	}
 910:Generated_Source\PSoC5/StripLights.c **** 	else 
 911:Generated_Source\PSoC5/StripLights.c **** 	{
 912:Generated_Source\PSoC5/StripLights.c **** 		/* Draw the four sides of the rectangle */
 913:Generated_Source\PSoC5/StripLights.c **** 		StripLights_DrawLine(x0, y0, x1, y0, color);
 914:Generated_Source\PSoC5/StripLights.c **** 		StripLights_DrawLine(x0, y1, x1, y1, color);
 915:Generated_Source\PSoC5/StripLights.c **** 		StripLights_DrawLine(x0, y0, x0, y1, color);
 916:Generated_Source\PSoC5/StripLights.c **** 		StripLights_DrawLine(x1, y0, x1, y1, color);
 917:Generated_Source\PSoC5/StripLights.c **** 	}
 918:Generated_Source\PSoC5/StripLights.c **** }
 919:Generated_Source\PSoC5/StripLights.c **** 
 920:Generated_Source\PSoC5/StripLights.c **** /*******************************************************************************
 921:Generated_Source\PSoC5/StripLights.c **** * Function Name: StripLights_Dim
 922:Generated_Source\PSoC5/StripLights.c **** ********************************************************************************
 923:Generated_Source\PSoC5/StripLights.c **** *
 924:Generated_Source\PSoC5/StripLights.c **** * Summary:
 925:Generated_Source\PSoC5/StripLights.c **** *  Dim all output by a specific level (0,1,2,3,4)  
 926:Generated_Source\PSoC5/StripLights.c **** *
 927:Generated_Source\PSoC5/StripLights.c **** * Parameters:  
 928:Generated_Source\PSoC5/StripLights.c **** *  dimLevel:  Dim level 1 to 4, 0 => No dimming.
 929:Generated_Source\PSoC5/StripLights.c **** *
 930:Generated_Source\PSoC5/StripLights.c **** * Return: 
 931:Generated_Source\PSoC5/StripLights.c **** *  None 
 932:Generated_Source\PSoC5/StripLights.c **** *
 933:Generated_Source\PSoC5/StripLights.c **** @14092015^MB + dim mask 0..7 0:Min Dim 7:Max Dim
 934:Generated_Source\PSoC5/StripLights.c **** 
 935:Generated_Source\PSoC5/StripLights.c **** *******************************************************************************/
 936:Generated_Source\PSoC5/StripLights.c **** void StripLights_Dim(uint32 dimLevel) 
 937:Generated_Source\PSoC5/StripLights.c **** {
 938:Generated_Source\PSoC5/StripLights.c **** extern uint32  StripLights_DimMask;
 939:Generated_Source\PSoC5/StripLights.c **** extern uint32  StripLights_DimShift;
 940:Generated_Source\PSoC5/StripLights.c **** 
 941:Generated_Source\PSoC5/StripLights.c ****     switch(dimLevel)
 942:Generated_Source\PSoC5/StripLights.c ****     {           
 943:Generated_Source\PSoC5/StripLights.c ****         case 1:
 944:Generated_Source\PSoC5/StripLights.c ****            StripLights_DimMask = 0x007F7F7F;
 945:Generated_Source\PSoC5/StripLights.c ****            StripLights_DimShift = 1;
ARM GAS  C:\Users\matij\AppData\Local\Temp\ccfrwtxb.s 			page 22


 946:Generated_Source\PSoC5/StripLights.c ****            break;
 947:Generated_Source\PSoC5/StripLights.c ****            
 948:Generated_Source\PSoC5/StripLights.c ****         case 2:
 949:Generated_Source\PSoC5/StripLights.c ****            StripLights_DimMask = 0x003F3F3F;
 950:Generated_Source\PSoC5/StripLights.c ****            StripLights_DimShift = 2;
 951:Generated_Source\PSoC5/StripLights.c ****            break;
 952:Generated_Source\PSoC5/StripLights.c ****            
 953:Generated_Source\PSoC5/StripLights.c ****         case 3:
 954:Generated_Source\PSoC5/StripLights.c ****            StripLights_DimMask = 0x001F1F1F;
 955:Generated_Source\PSoC5/StripLights.c ****            StripLights_DimShift = 3;
 956:Generated_Source\PSoC5/StripLights.c ****            break;
 957:Generated_Source\PSoC5/StripLights.c ****        
 958:Generated_Source\PSoC5/StripLights.c ****         case 4:
 959:Generated_Source\PSoC5/StripLights.c ****            StripLights_DimMask = 0x000F0F0F;
 960:Generated_Source\PSoC5/StripLights.c ****            StripLights_DimShift = 4;
 961:Generated_Source\PSoC5/StripLights.c ****            break;
 962:Generated_Source\PSoC5/StripLights.c ****        
 963:Generated_Source\PSoC5/StripLights.c ****         case 5:
 964:Generated_Source\PSoC5/StripLights.c ****            StripLights_DimMask = 0x00070707;
 965:Generated_Source\PSoC5/StripLights.c ****            StripLights_DimShift = 5;
 966:Generated_Source\PSoC5/StripLights.c ****            break;
 967:Generated_Source\PSoC5/StripLights.c ****        
 968:Generated_Source\PSoC5/StripLights.c ****         case 6:
 969:Generated_Source\PSoC5/StripLights.c ****            StripLights_DimMask = 0x00030303;
 970:Generated_Source\PSoC5/StripLights.c ****            StripLights_DimShift = 6;
 971:Generated_Source\PSoC5/StripLights.c ****            break;
 972:Generated_Source\PSoC5/StripLights.c ****         
 973:Generated_Source\PSoC5/StripLights.c ****         case 7:
 974:Generated_Source\PSoC5/StripLights.c ****            StripLights_DimMask = 0x00010101;
 975:Generated_Source\PSoC5/StripLights.c ****            StripLights_DimShift = 7;
 976:Generated_Source\PSoC5/StripLights.c ****            break;
 977:Generated_Source\PSoC5/StripLights.c ****         
 978:Generated_Source\PSoC5/StripLights.c ****         
 979:Generated_Source\PSoC5/StripLights.c ****        default:
 980:Generated_Source\PSoC5/StripLights.c ****            StripLights_DimMask = 0x00FFFFFF;
 238              		.loc 1 980 0
 239 0034 0C4B     		ldr	r3, .L25+12
 240 0036 6FF07F42 		mvn	r2, #-16777216
 241 003a 1A60     		str	r2, [r3]
 981:Generated_Source\PSoC5/StripLights.c ****            StripLights_DimShift = 0;
 242              		.loc 1 981 0
 243 003c 0B4B     		ldr	r3, .L25+16
 244 003e 1D60     		str	r5, [r3]
 245              	.LVL10:
 246              	.LBE5:
 247              	.LBE4:
 250:Generated_Source\PSoC5/StripLights.c ****     {
 248              		.loc 1 250 0
 249 0040 0B4B     		ldr	r3, .L25+20
 250 0042 1A7A     		ldrb	r2, [r3, #8]	@ zero_extendqisi2
 251 0044 32B9     		cbnz	r2, .L24
 259:Generated_Source\PSoC5/StripLights.c **** 		   StripLights_fisr_StartEx(StripLights_FISR);
 252              		.loc 1 259 0
 253 0046 0B48     		ldr	r0, .L25+24
 253:Generated_Source\PSoC5/StripLights.c ****  
 254              		.loc 1 253 0
 255 0048 1C72     		strb	r4, [r3, #8]
ARM GAS  C:\Users\matij\AppData\Local\Temp\ccfrwtxb.s 			page 23


 259:Generated_Source\PSoC5/StripLights.c **** 		   StripLights_fisr_StartEx(StripLights_FISR);
 256              		.loc 1 259 0
 257 004a FFF7FEFF 		bl	StripLights_cisr_StartEx
 258              	.LVL11:
 260:Generated_Source\PSoC5/StripLights.c ****        }
 259              		.loc 1 260 0
 260 004e 0A48     		ldr	r0, .L25+28
 261 0050 FFF7FEFF 		bl	StripLights_fisr_StartEx
 262              	.LVL12:
 263              	.L24:
 268:Generated_Source\PSoC5/StripLights.c **** }
 264              		.loc 1 268 0
 265 0054 094B     		ldr	r3, .L25+32
 266 0056 0122     		movs	r2, #1
 267 0058 1A60     		str	r2, [r3]
 268 005a 38BD     		pop	{r3, r4, r5, pc}
 269              	.L26:
 270              		.align	2
 271              	.L25:
 272 005c 00000000 		.word	StripLights_UseGammaCorrection
 273 0060 9B650040 		.word	1073767835
 274 0064 78640040 		.word	1073767544
 275 0068 00000000 		.word	StripLights_DimMask
 276 006c 00000000 		.word	StripLights_DimShift
 277 0070 00000000 		.word	.LANCHOR0
 278 0074 00000000 		.word	StripLights_CISR
 279 0078 00000000 		.word	StripLights_FISR
 280 007c 00000000 		.word	StripLights_refreshComplete
 281              		.cfi_endproc
 282              	.LFE64:
 283              		.size	StripLights_Start, .-StripLights_Start
 284              		.section	.text.StripLights_WriteColor,"ax",%progbits
 285              		.align	1
 286              		.global	StripLights_WriteColor
 287              		.thumb
 288              		.thumb_func
 289              		.type	StripLights_WriteColor, %function
 290              	StripLights_WriteColor:
 291              	.LFB74:
 556:Generated_Source\PSoC5/StripLights.c ****     while( (StripLights_STATUS & StripLights_FIFO_EMPTY) == 0); 
 292              		.loc 1 556 0
 293              		.cfi_startproc
 294              		@ args = 0, pretend = 0, frame = 0
 295              		@ frame_needed = 0, uses_anonymous_args = 0
 296              		@ link register save eliminated.
 297              	.LVL13:
 557:Generated_Source\PSoC5/StripLights.c **** 
 298              		.loc 1 557 0
 299 0000 074A     		ldr	r2, .L31
 300              	.L28:
 557:Generated_Source\PSoC5/StripLights.c **** 
 301              		.loc 1 557 0 is_stmt 0 discriminator 1
 302 0002 1378     		ldrb	r3, [r2]	@ zero_extendqisi2
 303 0004 DB07     		lsls	r3, r3, #31
 304 0006 FCD5     		bpl	.L28
 305              	.LVL14:
 563:Generated_Source\PSoC5/StripLights.c ****     color = color >> 8;
ARM GAS  C:\Users\matij\AppData\Local\Temp\ccfrwtxb.s 			page 24


 306              		.loc 1 563 0 is_stmt 1
 307 0008 064B     		ldr	r3, .L31+4
 308 000a C2B2     		uxtb	r2, r0
 309 000c 1A70     		strb	r2, [r3]
 565:Generated_Source\PSoC5/StripLights.c ****     color = color >> 8;
 310              		.loc 1 565 0
 311 000e C0F30722 		ubfx	r2, r0, #8, #8
 312 0012 1A70     		strb	r2, [r3]
 567:Generated_Source\PSoC5/StripLights.c ****     color = color >> 8;
 313              		.loc 1 567 0
 314 0014 C0F30742 		ubfx	r2, r0, #16, #8
 569:Generated_Source\PSoC5/StripLights.c ****     
 315              		.loc 1 569 0
 316 0018 000E     		lsrs	r0, r0, #24
 317              	.LVL15:
 567:Generated_Source\PSoC5/StripLights.c ****     color = color >> 8;
 318              		.loc 1 567 0
 319 001a 1A70     		strb	r2, [r3]
 320              	.LVL16:
 569:Generated_Source\PSoC5/StripLights.c ****     
 321              		.loc 1 569 0
 322 001c 1870     		strb	r0, [r3]
 323 001e 7047     		bx	lr
 324              	.L32:
 325              		.align	2
 326              	.L31:
 327 0020 6B640040 		.word	1073767531
 328 0024 48650040 		.word	1073767752
 329              		.cfi_endproc
 330              	.LFE74:
 331              		.size	StripLights_WriteColor, .-StripLights_WriteColor
 332              		.section	.text.StripLights_Trigger,"ax",%progbits
 333              		.align	1
 334              		.global	StripLights_Trigger
 335              		.thumb
 336              		.thumb_func
 337              		.type	StripLights_Trigger, %function
 338              	StripLights_Trigger:
 339              	.LFB65:
 286:Generated_Source\PSoC5/StripLights.c ****     uint32 color;
 340              		.loc 1 286 0
 341              		.cfi_startproc
 342              		@ args = 0, pretend = 0, frame = 0
 343              		@ frame_needed = 0, uses_anonymous_args = 0
 344              	.LVL17:
 345 0000 08B5     		push	{r3, lr}
 346              		.cfi_def_cfa_offset 8
 347              		.cfi_offset 3, -8
 348              		.cfi_offset 14, -4
 349 0002 0B49     		ldr	r1, .L38
 289:Generated_Source\PSoC5/StripLights.c ****     {
 350              		.loc 1 289 0
 351 0004 18B1     		cbz	r0, .L34
 292:Generated_Source\PSoC5/StripLights.c ****     }
 352              		.loc 1 292 0
 353 0006 0B4A     		ldr	r2, .L38+4
 291:Generated_Source\PSoC5/StripLights.c ****         StripLights_Channel = 0;
ARM GAS  C:\Users\matij\AppData\Local\Temp\ccfrwtxb.s 			page 25


 354              		.loc 1 291 0
 355 0008 0023     		movs	r3, #0
 356 000a CB60     		str	r3, [r1, #12]
 292:Generated_Source\PSoC5/StripLights.c ****     }
 357              		.loc 1 292 0
 358 000c 1370     		strb	r3, [r2]
 359              	.L34:
 360              	.LVL18:
 296:Generated_Source\PSoC5/StripLights.c ****     #else  /* Else use lookup table */
 361              		.loc 1 296 0
 362 000e CA68     		ldr	r2, [r1, #12]
 363 0010 4FF49663 		mov	r3, #1200
 364 0014 5343     		muls	r3, r2, r3
 301:Generated_Source\PSoC5/StripLights.c ****     
 365              		.loc 1 301 0
 366 0016 084A     		ldr	r2, .L38+8
 367 0018 D058     		ldr	r0, [r2, r3]
 368              	.LVL19:
 369 001a FFF7FEFF 		bl	StripLights_WriteColor
 370              	.LVL20:
 303:Generated_Source\PSoC5/StripLights.c ****  //   StripLights_CONTROL = StripLights_ENABLE | StripLights_FIFO_IRQ_EN; 
 371              		.loc 1 303 0
 372 001e 0123     		movs	r3, #1
 373 0020 0B61     		str	r3, [r1, #16]
 306:Generated_Source\PSoC5/StripLights.c ****     StripLights_refreshComplete = 0;
 374              		.loc 1 306 0
 375 0022 064B     		ldr	r3, .L38+12
 376 0024 1922     		movs	r2, #25
 377 0026 1A70     		strb	r2, [r3]
 307:Generated_Source\PSoC5/StripLights.c **** }
 378              		.loc 1 307 0
 379 0028 054B     		ldr	r3, .L38+16
 380 002a 0022     		movs	r2, #0
 381 002c 1A60     		str	r2, [r3]
 382 002e 08BD     		pop	{r3, pc}
 383              	.L39:
 384              		.align	2
 385              	.L38:
 386 0030 00000000 		.word	.LANCHOR0
 387 0034 7B640040 		.word	1073767547
 388 0038 00000000 		.word	StripLights_ledArray
 389 003c 78640040 		.word	1073767544
 390 0040 00000000 		.word	StripLights_refreshComplete
 391              		.cfi_endproc
 392              	.LFE65:
 393              		.size	StripLights_Trigger, .-StripLights_Trigger
 394              		.section	.text.StripLights_DisplayClear,"ax",%progbits
 395              		.align	1
 396              		.global	StripLights_DisplayClear
 397              		.thumb
 398              		.thumb_func
 399              		.type	StripLights_DisplayClear, %function
 400              	StripLights_DisplayClear:
 401              	.LFB72:
 504:Generated_Source\PSoC5/StripLights.c ****     StripLights_MemClear(color);
 402              		.loc 1 504 0
 403              		.cfi_startproc
ARM GAS  C:\Users\matij\AppData\Local\Temp\ccfrwtxb.s 			page 26


 404              		@ args = 0, pretend = 0, frame = 0
 405              		@ frame_needed = 0, uses_anonymous_args = 0
 406              	.LVL21:
 407 0000 08B5     		push	{r3, lr}
 408              		.cfi_def_cfa_offset 8
 409              		.cfi_offset 3, -8
 410              		.cfi_offset 14, -4
 505:Generated_Source\PSoC5/StripLights.c ****     StripLights_Trigger(1);
 411              		.loc 1 505 0
 412 0002 FFF7FEFF 		bl	StripLights_MemClear
 413              	.LVL22:
 507:Generated_Source\PSoC5/StripLights.c **** 
 414              		.loc 1 507 0
 415 0006 BDE80840 		pop	{r3, lr}
 416              		.cfi_restore 14
 417              		.cfi_restore 3
 418              		.cfi_def_cfa_offset 0
 506:Generated_Source\PSoC5/StripLights.c **** }
 419              		.loc 1 506 0
 420 000a 0120     		movs	r0, #1
 421 000c FFF7FEBF 		b	StripLights_Trigger
 422              	.LVL23:
 423              		.cfi_endproc
 424              	.LFE72:
 425              		.size	StripLights_DisplayClear, .-StripLights_DisplayClear
 426              		.section	.text.StripLights_FISR,"ax",%progbits
 427              		.align	1
 428              		.global	StripLights_FISR
 429              		.thumb
 430              		.thumb_func
 431              		.type	StripLights_FISR, %function
 432              	StripLights_FISR:
 433              	.LFB70:
 414:Generated_Source\PSoC5/StripLights.c ****     extern uint32  StripLights_DimMask;
 434              		.loc 1 414 0
 435              		.cfi_startproc
 436              		@ args = 0, pretend = 0, frame = 0
 437              		@ frame_needed = 0, uses_anonymous_args = 0
 438              		@ link register save eliminated.
 419:Generated_Source\PSoC5/StripLights.c ****     {
 439              		.loc 1 419 0
 440 0000 0A49     		ldr	r1, .L43
 441 0002 0B69     		ldr	r3, [r1, #16]
 442 0004 B3F5967F 		cmp	r3, #300
 443 0008 0BD2     		bcs	.L42
 422:Generated_Source\PSoC5/StripLights.c ****         #else  /* Else use lookup table */
 444              		.loc 1 422 0
 445 000a CA68     		ldr	r2, [r1, #12]
 446 000c 581C     		adds	r0, r3, #1
 447 000e 0861     		str	r0, [r1, #16]
 448 0010 4FF49671 		mov	r1, #300
 449 0014 01FB0233 		mla	r3, r1, r2, r3
 427:Generated_Source\PSoC5/StripLights.c ****     }
 450              		.loc 1 427 0
 451 0018 054A     		ldr	r2, .L43+4
 452 001a 52F82300 		ldr	r0, [r2, r3, lsl #2]
 453 001e FFF7FEBF 		b	StripLights_WriteColor
ARM GAS  C:\Users\matij\AppData\Local\Temp\ccfrwtxb.s 			page 27


 454              	.LVL24:
 455              	.L42:
 431:Generated_Source\PSoC5/StripLights.c ****     }
 456              		.loc 1 431 0
 457 0022 044B     		ldr	r3, .L43+8
 458 0024 1122     		movs	r2, #17
 459 0026 1A70     		strb	r2, [r3]
 460 0028 7047     		bx	lr
 461              	.L44:
 462 002a 00BF     		.align	2
 463              	.L43:
 464 002c 00000000 		.word	.LANCHOR0
 465 0030 00000000 		.word	StripLights_ledArray
 466 0034 78640040 		.word	1073767544
 467              		.cfi_endproc
 468              	.LFE70:
 469              		.size	StripLights_FISR, .-StripLights_FISR
 470              		.section	.text.StripLights_CISR,"ax",%progbits
 471              		.align	1
 472              		.global	StripLights_CISR
 473              		.thumb
 474              		.thumb_func
 475              		.type	StripLights_CISR, %function
 476              	StripLights_CISR:
 477              	.LFB71:
 454:Generated_Source\PSoC5/StripLights.c ****     extern uint32  StripLights_DimMask;
 478              		.loc 1 454 0
 479              		.cfi_startproc
 480              		@ args = 0, pretend = 0, frame = 0
 481              		@ frame_needed = 0, uses_anonymous_args = 0
 482 0000 10B5     		push	{r4, lr}
 483              		.cfi_def_cfa_offset 8
 484              		.cfi_offset 4, -8
 485              		.cfi_offset 14, -4
 460:Generated_Source\PSoC5/StripLights.c ****     StripLights_row++;
 486              		.loc 1 460 0
 487 0002 104C     		ldr	r4, .L51
 488 0004 2123     		movs	r3, #33
 461:Generated_Source\PSoC5/StripLights.c ****     if( StripLights_row < StripLights_ARRAY_ROWS)  /* More Rows to do  */
 489              		.loc 1 461 0
 490 0006 1049     		ldr	r1, .L51+4
 460:Generated_Source\PSoC5/StripLights.c ****     StripLights_row++;
 491              		.loc 1 460 0
 492 0008 2370     		strb	r3, [r4]
 461:Generated_Source\PSoC5/StripLights.c ****     if( StripLights_row < StripLights_ARRAY_ROWS)  /* More Rows to do  */
 493              		.loc 1 461 0
 494 000a CB68     		ldr	r3, [r1, #12]
 495 000c 0133     		adds	r3, r3, #1
 496 000e CB60     		str	r3, [r1, #12]
 462:Generated_Source\PSoC5/StripLights.c ****     {
 497              		.loc 1 462 0
 498 0010 53B9     		cbnz	r3, .L46
 464:Generated_Source\PSoC5/StripLights.c **** 
 499              		.loc 1 464 0
 500 0012 0E4A     		ldr	r2, .L51+8
 501 0014 1370     		strb	r3, [r2]
 467:Generated_Source\PSoC5/StripLights.c ****         #else  /* Else use lookup table */
ARM GAS  C:\Users\matij\AppData\Local\Temp\ccfrwtxb.s 			page 28


 502              		.loc 1 467 0
 503 0016 0E4B     		ldr	r3, .L51+12
 472:Generated_Source\PSoC5/StripLights.c **** 
 504              		.loc 1 472 0
 505 0018 1868     		ldr	r0, [r3]
 506 001a FFF7FEFF 		bl	StripLights_WriteColor
 507              	.LVL25:
 474:Generated_Source\PSoC5/StripLights.c **** 		StripLights_CONTROL = StripLights_ENABLE | StripLights_FIFO_IRQ_EN; 
 508              		.loc 1 474 0
 509 001e 0123     		movs	r3, #1
 510 0020 0B61     		str	r3, [r1, #16]
 475:Generated_Source\PSoC5/StripLights.c **** 		
 511              		.loc 1 475 0
 512 0022 0923     		movs	r3, #9
 513 0024 2370     		strb	r3, [r4]
 514 0026 10BD     		pop	{r4, pc}
 515              	.L46:
 480:Generated_Source\PSoC5/StripLights.c ****         if (StripLights_Done != NULL ) {
 516              		.loc 1 480 0
 517 0028 0A4B     		ldr	r3, .L51+16
 481:Generated_Source\PSoC5/StripLights.c ****             CyDelay(1);
 518              		.loc 1 481 0
 519 002a 0B4C     		ldr	r4, .L51+20
 480:Generated_Source\PSoC5/StripLights.c ****         if (StripLights_Done != NULL ) {
 520              		.loc 1 480 0
 521 002c 0120     		movs	r0, #1
 522 002e 1860     		str	r0, [r3]
 481:Generated_Source\PSoC5/StripLights.c ****             CyDelay(1);
 523              		.loc 1 481 0
 524 0030 2368     		ldr	r3, [r4]
 525 0032 2BB1     		cbz	r3, .L45
 526              	.LBB8:
 527              	.LBB9:
 482:Generated_Source\PSoC5/StripLights.c ****             StripLights_Done();
 528              		.loc 1 482 0
 529 0034 FFF7FEFF 		bl	CyDelay
 530              	.LVL26:
 483:Generated_Source\PSoC5/StripLights.c ****         }
 531              		.loc 1 483 0
 532 0038 2368     		ldr	r3, [r4]
 533              	.LBE9:
 534              	.LBE8:
 487:Generated_Source\PSoC5/StripLights.c **** 
 535              		.loc 1 487 0
 536 003a BDE81040 		pop	{r4, lr}
 537              		.cfi_remember_state
 538              		.cfi_restore 14
 539              		.cfi_restore 4
 540              		.cfi_def_cfa_offset 0
 541              	.LBB11:
 542              	.LBB10:
 483:Generated_Source\PSoC5/StripLights.c ****         }
 543              		.loc 1 483 0
 544 003e 1847     		bx	r3	@ indirect register sibling call
 545              	.LVL27:
 546              	.L45:
 547              		.cfi_restore_state
ARM GAS  C:\Users\matij\AppData\Local\Temp\ccfrwtxb.s 			page 29


 548 0040 10BD     		pop	{r4, pc}
 549              	.L52:
 550 0042 00BF     		.align	2
 551              	.L51:
 552 0044 78640040 		.word	1073767544
 553 0048 00000000 		.word	.LANCHOR0
 554 004c 7B640040 		.word	1073767547
 555 0050 00000000 		.word	StripLights_ledArray
 556 0054 00000000 		.word	StripLights_refreshComplete
 557 0058 00000000 		.word	StripLights_Done
 558              	.LBE10:
 559              	.LBE11:
 560              		.cfi_endproc
 561              	.LFE71:
 562              		.size	StripLights_CISR, .-StripLights_CISR
 563              		.global	__aeabi_f2d
 564              		.global	__aeabi_i2f
 565              		.global	__aeabi_fcmpeq
 566              		.global	__aeabi_fsub
 567              		.global	__aeabi_fdiv
 568              		.global	__aeabi_fadd
 569              		.global	__aeabi_fmul
 570              		.global	__aeabi_fcmplt
 571              		.section	.text.StripLights_RGBtoHSV,"ax",%progbits
 572              		.align	1
 573              		.global	StripLights_RGBtoHSV
 574              		.thumb
 575              		.thumb_func
 576              		.type	StripLights_RGBtoHSV, %function
 577              	StripLights_RGBtoHSV:
 578              	.LFB75:
 588:Generated_Source\PSoC5/StripLights.c **** 	float min, max, delta;
 579              		.loc 1 588 0
 580              		.cfi_startproc
 581              		@ args = 8, pretend = 0, frame = 16
 582              		@ frame_needed = 0, uses_anonymous_args = 0
 583              	.LVL28:
 584 0000 2DE9F04F 		push	{r4, r5, r6, r7, r8, r9, r10, fp, lr}
 585              		.cfi_def_cfa_offset 36
 586              		.cfi_offset 4, -36
 587              		.cfi_offset 5, -32
 588              		.cfi_offset 6, -28
 589              		.cfi_offset 7, -24
 590              		.cfi_offset 8, -20
 591              		.cfi_offset 9, -16
 592              		.cfi_offset 10, -12
 593              		.cfi_offset 11, -8
 594              		.cfi_offset 14, -4
 595 0004 87B0     		sub	sp, sp, #28
 596              		.cfi_def_cfa_offset 64
 588:Generated_Source\PSoC5/StripLights.c **** 	float min, max, delta;
 597              		.loc 1 588 0
 598 0006 1746     		mov	r7, r2
 599 0008 1C46     		mov	r4, r3
 600 000a 0D46     		mov	r5, r1
 601 000c 0646     		mov	r6, r0
 590:Generated_Source\PSoC5/StripLights.c **** 	max = MAX( r, g, b );
ARM GAS  C:\Users\matij\AppData\Local\Temp\ccfrwtxb.s 			page 30


 602              		.loc 1 590 0
 603 000e FFF7FEFF 		bl	__aeabi_f2d
 604              	.LVL29:
 605 0012 8046     		mov	r8, r0
 606 0014 2846     		mov	r0, r5
 607 0016 8946     		mov	r9, r1
 608 0018 FFF7FEFF 		bl	__aeabi_f2d
 609              	.LVL30:
 610 001c 8246     		mov	r10, r0
 611 001e 3846     		mov	r0, r7
 612 0020 8B46     		mov	fp, r1
 613 0022 FFF7FEFF 		bl	__aeabi_f2d
 614              	.LVL31:
 615 0026 0246     		mov	r2, r0
 616 0028 0B46     		mov	r3, r1
 617 002a CDE90201 		strd	r0, [sp, #8]
 618 002e CDE90023 		strd	r2, [sp]
 619 0032 4946     		mov	r1, r9
 620 0034 5246     		mov	r2, r10
 621 0036 5B46     		mov	r3, fp
 622 0038 4046     		mov	r0, r8
 623 003a FFF7FEFF 		bl	MIN
 624              	.LVL32:
 591:Generated_Source\PSoC5/StripLights.c **** 	*v = max;				// v
 625              		.loc 1 591 0
 626 003e DDE90223 		ldrd	r2, [sp, #8]
 627 0042 4946     		mov	r1, r9
 628 0044 CDE90023 		strd	r2, [sp]
 590:Generated_Source\PSoC5/StripLights.c **** 	max = MAX( r, g, b );
 629              		.loc 1 590 0
 630 0048 0590     		str	r0, [sp, #20]
 631              	.LVL33:
 591:Generated_Source\PSoC5/StripLights.c **** 	*v = max;				// v
 632              		.loc 1 591 0
 633 004a 5B46     		mov	r3, fp
 634 004c 5246     		mov	r2, r10
 635 004e 4046     		mov	r0, r8
 636              	.LVL34:
 637 0050 FFF7FEFF 		bl	MAX
 638              	.LVL35:
 639 0054 FFF7FEFF 		bl	__aeabi_i2f
 640              	.LVL36:
 592:Generated_Source\PSoC5/StripLights.c **** 	delta = max - min;
 641              		.loc 1 592 0
 642 0058 119B     		ldr	r3, [sp, #68]
 594:Generated_Source\PSoC5/StripLights.c **** 		*s = delta / max;		// s
 643              		.loc 1 594 0
 644 005a 4FF00009 		mov	r9, #0
 592:Generated_Source\PSoC5/StripLights.c **** 	delta = max - min;
 645              		.loc 1 592 0
 646 005e 1860     		str	r0, [r3]	@ float
 594:Generated_Source\PSoC5/StripLights.c **** 		*s = delta / max;		// s
 647              		.loc 1 594 0
 648 0060 4946     		mov	r1, r9
 591:Generated_Source\PSoC5/StripLights.c **** 	*v = max;				// v
 649              		.loc 1 591 0
 650 0062 8046     		mov	r8, r0
ARM GAS  C:\Users\matij\AppData\Local\Temp\ccfrwtxb.s 			page 31


 651              	.LVL37:
 594:Generated_Source\PSoC5/StripLights.c **** 		*s = delta / max;		// s
 652              		.loc 1 594 0
 653 0064 FFF7FEFF 		bl	__aeabi_fcmpeq
 654              	.LVL38:
 655 0068 C8B9     		cbnz	r0, .L65
 593:Generated_Source\PSoC5/StripLights.c **** 	if( max != 0 )
 656              		.loc 1 593 0
 657 006a 0598     		ldr	r0, [sp, #20]
 658 006c FFF7FEFF 		bl	__aeabi_i2f
 659              	.LVL39:
 660 0070 0146     		mov	r1, r0
 661 0072 4046     		mov	r0, r8
 662 0074 FFF7FEFF 		bl	__aeabi_fsub
 663              	.LVL40:
 595:Generated_Source\PSoC5/StripLights.c **** 	else {
 664              		.loc 1 595 0
 665 0078 4146     		mov	r1, r8
 593:Generated_Source\PSoC5/StripLights.c **** 	if( max != 0 )
 666              		.loc 1 593 0
 667 007a 8146     		mov	r9, r0
 595:Generated_Source\PSoC5/StripLights.c **** 	else {
 668              		.loc 1 595 0
 669 007c FFF7FEFF 		bl	__aeabi_fdiv
 670              	.LVL41:
 671 0080 109B     		ldr	r3, [sp, #64]
 602:Generated_Source\PSoC5/StripLights.c **** 		*h = ( g - b ) / delta;		// between yellow & magenta
 672              		.loc 1 602 0
 673 0082 4146     		mov	r1, r8
 595:Generated_Source\PSoC5/StripLights.c **** 	else {
 674              		.loc 1 595 0
 675 0084 1860     		str	r0, [r3]	@ float
 602:Generated_Source\PSoC5/StripLights.c **** 		*h = ( g - b ) / delta;		// between yellow & magenta
 676              		.loc 1 602 0
 677 0086 3046     		mov	r0, r6
 678 0088 FFF7FEFF 		bl	__aeabi_fcmpeq
 679              	.LVL42:
 680 008c 68B1     		cbz	r0, .L70
 603:Generated_Source\PSoC5/StripLights.c **** 	else if( g == max )
 681              		.loc 1 603 0
 682 008e 3946     		mov	r1, r7
 683 0090 2846     		mov	r0, r5
 684 0092 FFF7FEFF 		bl	__aeabi_fsub
 685              	.LVL43:
 686 0096 4946     		mov	r1, r9
 687 0098 FFF7FEFF 		bl	__aeabi_fdiv
 688              	.LVL44:
 689 009c 1FE0     		b	.L68
 690              	.L65:
 598:Generated_Source\PSoC5/StripLights.c **** 		*h = -1;
 691              		.loc 1 598 0
 692 009e 109B     		ldr	r3, [sp, #64]
 693 00a0 C3F80090 		str	r9, [r3]	@ float
 599:Generated_Source\PSoC5/StripLights.c **** 		return;
 694              		.loc 1 599 0
 695 00a4 184B     		ldr	r3, .L71
 696 00a6 2360     		str	r3, [r4]	@ float
ARM GAS  C:\Users\matij\AppData\Local\Temp\ccfrwtxb.s 			page 32


 600:Generated_Source\PSoC5/StripLights.c **** 	}
 697              		.loc 1 600 0
 698 00a8 2AE0     		b	.L53
 699              	.L70:
 604:Generated_Source\PSoC5/StripLights.c **** 		*h = 2 + ( b - r ) / delta;	// between cyan & yellow
 700              		.loc 1 604 0
 701 00aa 4146     		mov	r1, r8
 702 00ac 2846     		mov	r0, r5
 703 00ae FFF7FEFF 		bl	__aeabi_fcmpeq
 704              	.LVL45:
 705 00b2 48B1     		cbz	r0, .L67
 605:Generated_Source\PSoC5/StripLights.c **** 	else
 706              		.loc 1 605 0
 707 00b4 3146     		mov	r1, r6
 708 00b6 3846     		mov	r0, r7
 709 00b8 FFF7FEFF 		bl	__aeabi_fsub
 710              	.LVL46:
 711 00bc 4946     		mov	r1, r9
 712 00be FFF7FEFF 		bl	__aeabi_fdiv
 713              	.LVL47:
 714 00c2 4FF08041 		mov	r1, #1073741824
 715 00c6 08E0     		b	.L69
 716              	.L67:
 607:Generated_Source\PSoC5/StripLights.c **** 	*h *= 60;				// degrees
 717              		.loc 1 607 0
 718 00c8 2946     		mov	r1, r5
 719 00ca 3046     		mov	r0, r6
 720 00cc FFF7FEFF 		bl	__aeabi_fsub
 721              	.LVL48:
 722 00d0 4946     		mov	r1, r9
 723 00d2 FFF7FEFF 		bl	__aeabi_fdiv
 724              	.LVL49:
 725 00d6 4FF08141 		mov	r1, #1082130432
 726              	.L69:
 727 00da FFF7FEFF 		bl	__aeabi_fadd
 728              	.LVL50:
 729              	.L68:
 730 00de 2060     		str	r0, [r4]	@ float
 608:Generated_Source\PSoC5/StripLights.c **** 	if( *h < 0 )
 731              		.loc 1 608 0
 732 00e0 0A49     		ldr	r1, .L71+4
 733 00e2 2068     		ldr	r0, [r4]	@ float
 734 00e4 FFF7FEFF 		bl	__aeabi_fmul
 735              	.LVL51:
 609:Generated_Source\PSoC5/StripLights.c **** 		*h += 360;
 736              		.loc 1 609 0
 737 00e8 0021     		movs	r1, #0
 608:Generated_Source\PSoC5/StripLights.c **** 	if( *h < 0 )
 738              		.loc 1 608 0
 739 00ea 0546     		mov	r5, r0
 740              	.LVL52:
 609:Generated_Source\PSoC5/StripLights.c **** 		*h += 360;
 741              		.loc 1 609 0
 742 00ec FFF7FEFF 		bl	__aeabi_fcmplt
 743              	.LVL53:
 744 00f0 08B9     		cbnz	r0, .L62
 608:Generated_Source\PSoC5/StripLights.c **** 	if( *h < 0 )
ARM GAS  C:\Users\matij\AppData\Local\Temp\ccfrwtxb.s 			page 33


 745              		.loc 1 608 0
 746 00f2 2560     		str	r5, [r4]	@ float
 747 00f4 04E0     		b	.L53
 748              	.L62:
 610:Generated_Source\PSoC5/StripLights.c **** }
 749              		.loc 1 610 0
 750 00f6 0649     		ldr	r1, .L71+8
 751 00f8 2846     		mov	r0, r5
 752 00fa FFF7FEFF 		bl	__aeabi_fadd
 753              	.LVL54:
 754 00fe 2060     		str	r0, [r4]	@ float
 755              	.L53:
 611:Generated_Source\PSoC5/StripLights.c **** 
 756              		.loc 1 611 0
 757 0100 07B0     		add	sp, sp, #28
 758              		.cfi_def_cfa_offset 36
 759              		@ sp needed
 760 0102 BDE8F08F 		pop	{r4, r5, r6, r7, r8, r9, r10, fp, pc}
 761              	.LVL55:
 762              	.L72:
 763 0106 00BF     		.align	2
 764              	.L71:
 765 0108 000080BF 		.word	-1082130432
 766 010c 00007042 		.word	1114636288
 767 0110 0000B443 		.word	1135869952
 768              		.cfi_endproc
 769              	.LFE75:
 770              		.size	StripLights_RGBtoHSV, .-StripLights_RGBtoHSV
 771              		.global	__aeabi_f2iz
 772              		.section	.text.StripLights_HSVtoRGB,"ax",%progbits
 773              		.align	1
 774              		.global	StripLights_HSVtoRGB
 775              		.thumb
 776              		.thumb_func
 777              		.type	StripLights_HSVtoRGB, %function
 778              	StripLights_HSVtoRGB:
 779              	.LFB76:
 618:Generated_Source\PSoC5/StripLights.c **** 	int i;
 780              		.loc 1 618 0
 781              		.cfi_startproc
 782              		@ args = 8, pretend = 0, frame = 0
 783              		@ frame_needed = 0, uses_anonymous_args = 0
 784              	.LVL56:
 785 0000 2DE9F84F 		push	{r3, r4, r5, r6, r7, r8, r9, r10, fp, lr}
 786              		.cfi_def_cfa_offset 40
 787              		.cfi_offset 3, -40
 788              		.cfi_offset 4, -36
 789              		.cfi_offset 5, -32
 790              		.cfi_offset 6, -28
 791              		.cfi_offset 7, -24
 792              		.cfi_offset 8, -20
 793              		.cfi_offset 9, -16
 794              		.cfi_offset 10, -12
 795              		.cfi_offset 11, -8
 796              		.cfi_offset 14, -4
 618:Generated_Source\PSoC5/StripLights.c **** 	int i;
 797              		.loc 1 618 0
ARM GAS  C:\Users\matij\AppData\Local\Temp\ccfrwtxb.s 			page 34


 798 0004 0746     		mov	r7, r0
 799 0006 0E46     		mov	r6, r1
 621:Generated_Source\PSoC5/StripLights.c **** 		// achromatic (grey)
 800              		.loc 1 621 0
 801 0008 0A98     		ldr	r0, [sp, #40]	@ float
 802              	.LVL57:
 803 000a 0021     		movs	r1, #0
 804              	.LVL58:
 618:Generated_Source\PSoC5/StripLights.c **** 	int i;
 805              		.loc 1 618 0
 806 000c 1546     		mov	r5, r2
 807 000e 9846     		mov	r8, r3
 808 0010 0B9C     		ldr	r4, [sp, #44]	@ float
 621:Generated_Source\PSoC5/StripLights.c **** 		// achromatic (grey)
 809              		.loc 1 621 0
 810 0012 FFF7FEFF 		bl	__aeabi_fcmpeq
 811              	.LVL59:
 812 0016 20B1     		cbz	r0, .L85
 623:Generated_Source\PSoC5/StripLights.c **** 		return;
 813              		.loc 1 623 0
 814 0018 2C60     		str	r4, [r5]	@ float
 815 001a 3460     		str	r4, [r6]	@ float
 816 001c 3C60     		str	r4, [r7]	@ float
 624:Generated_Source\PSoC5/StripLights.c **** 	}
 817              		.loc 1 624 0
 818 001e BDE8F88F 		pop	{r3, r4, r5, r6, r7, r8, r9, r10, fp, pc}
 819              	.LVL60:
 820              	.L85:
 821              	.LBB14:
 822              	.LBB15:
 626:Generated_Source\PSoC5/StripLights.c **** 	i = (int) h;
 823              		.loc 1 626 0
 824 0022 2F49     		ldr	r1, .L88
 825 0024 4046     		mov	r0, r8
 826 0026 FFF7FEFF 		bl	__aeabi_fdiv
 827              	.LVL61:
 828 002a 8046     		mov	r8, r0
 829              	.LVL62:
 627:Generated_Source\PSoC5/StripLights.c **** 	f = h - i;			// factorial part of h
 830              		.loc 1 627 0
 831 002c FFF7FEFF 		bl	__aeabi_f2iz
 832              	.LVL63:
 833 0030 8246     		mov	r10, r0
 834              	.LVL64:
 628:Generated_Source\PSoC5/StripLights.c **** 	p = v * ( 1 - s );
 835              		.loc 1 628 0
 836 0032 FFF7FEFF 		bl	__aeabi_i2f
 837              	.LVL65:
 838 0036 0146     		mov	r1, r0
 839 0038 4046     		mov	r0, r8
 840 003a FFF7FEFF 		bl	__aeabi_fsub
 841              	.LVL66:
 629:Generated_Source\PSoC5/StripLights.c **** 	q = v * ( 1 - s * f );
 842              		.loc 1 629 0
 843 003e 0A99     		ldr	r1, [sp, #40]	@ float
 628:Generated_Source\PSoC5/StripLights.c **** 	p = v * ( 1 - s );
 844              		.loc 1 628 0
ARM GAS  C:\Users\matij\AppData\Local\Temp\ccfrwtxb.s 			page 35


 845 0040 8346     		mov	fp, r0
 846              	.LVL67:
 629:Generated_Source\PSoC5/StripLights.c **** 	q = v * ( 1 - s * f );
 847              		.loc 1 629 0
 848 0042 4FF07E50 		mov	r0, #1065353216
 849              	.LVL68:
 850 0046 FFF7FEFF 		bl	__aeabi_fsub
 851              	.LVL69:
 852 004a 2146     		mov	r1, r4
 853 004c FFF7FEFF 		bl	__aeabi_fmul
 854              	.LVL70:
 630:Generated_Source\PSoC5/StripLights.c **** 	t = v * ( 1 - s * ( 1 - f ) );
 855              		.loc 1 630 0
 856 0050 5946     		mov	r1, fp
 629:Generated_Source\PSoC5/StripLights.c **** 	q = v * ( 1 - s * f );
 857              		.loc 1 629 0
 858 0052 8046     		mov	r8, r0
 859              	.LVL71:
 630:Generated_Source\PSoC5/StripLights.c **** 	t = v * ( 1 - s * ( 1 - f ) );
 860              		.loc 1 630 0
 861 0054 0A98     		ldr	r0, [sp, #40]	@ float
 862              	.LVL72:
 863 0056 FFF7FEFF 		bl	__aeabi_fmul
 864              	.LVL73:
 865 005a 0146     		mov	r1, r0
 866 005c 4FF07E50 		mov	r0, #1065353216
 867 0060 FFF7FEFF 		bl	__aeabi_fsub
 868              	.LVL74:
 869 0064 2146     		mov	r1, r4
 870 0066 FFF7FEFF 		bl	__aeabi_fmul
 871              	.LVL75:
 631:Generated_Source\PSoC5/StripLights.c **** 	switch( i ) {
 872              		.loc 1 631 0
 873 006a 5946     		mov	r1, fp
 630:Generated_Source\PSoC5/StripLights.c **** 	t = v * ( 1 - s * ( 1 - f ) );
 874              		.loc 1 630 0
 875 006c 8146     		mov	r9, r0
 876              	.LVL76:
 631:Generated_Source\PSoC5/StripLights.c **** 	switch( i ) {
 877              		.loc 1 631 0
 878 006e 4FF07E50 		mov	r0, #1065353216
 879              	.LVL77:
 880 0072 FFF7FEFF 		bl	__aeabi_fsub
 881              	.LVL78:
 882 0076 0A99     		ldr	r1, [sp, #40]	@ float
 883 0078 FFF7FEFF 		bl	__aeabi_fmul
 884              	.LVL79:
 885 007c 0146     		mov	r1, r0
 886 007e 4FF07E50 		mov	r0, #1065353216
 887 0082 FFF7FEFF 		bl	__aeabi_fsub
 888              	.LVL80:
 889 0086 2146     		mov	r1, r4
 890 0088 FFF7FEFF 		bl	__aeabi_fmul
 891              	.LVL81:
 632:Generated_Source\PSoC5/StripLights.c **** 		case 0:
 892              		.loc 1 632 0
 893 008c BAF1040F 		cmp	r10, #4
ARM GAS  C:\Users\matij\AppData\Local\Temp\ccfrwtxb.s 			page 36


 894 0090 1FD8     		bhi	.L77
 895 0092 DFE80AF0 		tbb	[pc, r10]
 896              	.L79:
 897 0096 03       		.byte	(.L78-.L79)/2
 898 0097 06       		.byte	(.L80-.L79)/2
 899 0098 0D       		.byte	(.L81-.L79)/2
 900 0099 13       		.byte	(.L82-.L79)/2
 901 009a 18       		.byte	(.L83-.L79)/2
 902 009b 00       		.p2align 1
 903              	.L78:
 634:Generated_Source\PSoC5/StripLights.c **** 			*g = t;
 904              		.loc 1 634 0
 905 009c 3C60     		str	r4, [r7]	@ float
 635:Generated_Source\PSoC5/StripLights.c **** 			*b = p;
 906              		.loc 1 635 0
 907 009e 3060     		str	r0, [r6]	@ float
 908 00a0 02E0     		b	.L87
 909              	.L80:
 639:Generated_Source\PSoC5/StripLights.c **** 			*g = v;
 910              		.loc 1 639 0
 911 00a2 C7F80090 		str	r9, [r7]	@ float
 640:Generated_Source\PSoC5/StripLights.c **** 			*b = p;
 912              		.loc 1 640 0
 913 00a6 3460     		str	r4, [r6]	@ float
 914              	.L87:
 641:Generated_Source\PSoC5/StripLights.c **** 			break;
 915              		.loc 1 641 0
 916 00a8 C5F80080 		str	r8, [r5]	@ float
 917 00ac BDE8F88F 		pop	{r3, r4, r5, r6, r7, r8, r9, r10, fp, pc}
 918              	.LVL82:
 919              	.L81:
 644:Generated_Source\PSoC5/StripLights.c **** 			*g = v;
 920              		.loc 1 644 0
 921 00b0 C7F80080 		str	r8, [r7]	@ float
 645:Generated_Source\PSoC5/StripLights.c **** 			*b = t;
 922              		.loc 1 645 0
 923 00b4 3460     		str	r4, [r6]	@ float
 646:Generated_Source\PSoC5/StripLights.c **** 			break;
 924              		.loc 1 646 0
 925 00b6 2860     		str	r0, [r5]	@ float
 926 00b8 BDE8F88F 		pop	{r3, r4, r5, r6, r7, r8, r9, r10, fp, pc}
 927              	.LVL83:
 928              	.L82:
 649:Generated_Source\PSoC5/StripLights.c **** 			*g = q;
 929              		.loc 1 649 0
 930 00bc C7F80080 		str	r8, [r7]	@ float
 650:Generated_Source\PSoC5/StripLights.c **** 			*b = v;
 931              		.loc 1 650 0
 932 00c0 C6F80090 		str	r9, [r6]	@ float
 933 00c4 02E0     		b	.L86
 934              	.L83:
 654:Generated_Source\PSoC5/StripLights.c **** 			*g = p;
 935              		.loc 1 654 0
 936 00c6 3860     		str	r0, [r7]	@ float
 655:Generated_Source\PSoC5/StripLights.c **** 			*b = v;
 937              		.loc 1 655 0
 938 00c8 C6F80080 		str	r8, [r6]	@ float
ARM GAS  C:\Users\matij\AppData\Local\Temp\ccfrwtxb.s 			page 37


 939              	.L86:
 656:Generated_Source\PSoC5/StripLights.c **** 			break;
 940              		.loc 1 656 0
 941 00cc 2C60     		str	r4, [r5]	@ float
 942 00ce BDE8F88F 		pop	{r3, r4, r5, r6, r7, r8, r9, r10, fp, pc}
 943              	.LVL84:
 944              	.L77:
 659:Generated_Source\PSoC5/StripLights.c **** 			*g = p;
 945              		.loc 1 659 0
 946 00d2 3C60     		str	r4, [r7]	@ float
 660:Generated_Source\PSoC5/StripLights.c **** 			*b = q;
 947              		.loc 1 660 0
 948 00d4 C6F80080 		str	r8, [r6]	@ float
 661:Generated_Source\PSoC5/StripLights.c **** 			break;
 949              		.loc 1 661 0
 950 00d8 C5F80090 		str	r9, [r5]	@ float
 951 00dc BDE8F88F 		pop	{r3, r4, r5, r6, r7, r8, r9, r10, fp, pc}
 952              	.LVL85:
 953              	.L89:
 954              		.align	2
 955              	.L88:
 956 00e0 00007042 		.word	1114636288
 957              	.LBE15:
 958              	.LBE14:
 959              		.cfi_endproc
 960              	.LFE76:
 961              		.size	StripLights_HSVtoRGB, .-StripLights_HSVtoRGB
 962              		.section	.text.StripLights_Pixel,"ax",%progbits
 963              		.align	1
 964              		.global	StripLights_Pixel
 965              		.thumb
 966              		.thumb_func
 967              		.type	StripLights_Pixel, %function
 968              	StripLights_Pixel:
 969              	.LFB78:
 689:Generated_Source\PSoC5/StripLights.c **** 
 970              		.loc 1 689 0
 971              		.cfi_startproc
 972              		@ args = 0, pretend = 0, frame = 0
 973              		@ frame_needed = 0, uses_anonymous_args = 0
 974              		@ link register save eliminated.
 975              	.LVL86:
 691:Generated_Source\PSoC5/StripLights.c ****     {
 976              		.loc 1 691 0
 977 0000 B0F5967F 		cmp	r0, #300
 978 0004 03D2     		bcs	.L90
 691:Generated_Source\PSoC5/StripLights.c ****     {
 979              		.loc 1 691 0 is_stmt 0 discriminator 3
 980 0006 11B9     		cbnz	r1, .L90
 695:Generated_Source\PSoC5/StripLights.c ****     #else  /* Else use lookup table */
 981              		.loc 1 695 0 is_stmt 1
 982 0008 014B     		ldr	r3, .L92
 983 000a 43F82020 		str	r2, [r3, r0, lsl #2]
 984              	.L90:
 985 000e 7047     		bx	lr
 986              	.L93:
 987              		.align	2
ARM GAS  C:\Users\matij\AppData\Local\Temp\ccfrwtxb.s 			page 38


 988              	.L92:
 989 0010 00000000 		.word	StripLights_ledArray
 990              		.cfi_endproc
 991              	.LFE78:
 992              		.size	StripLights_Pixel, .-StripLights_Pixel
 993              		.section	.text.StripLights_HSV_Pixel,"ax",%progbits
 994              		.align	1
 995              		.global	StripLights_HSV_Pixel
 996              		.thumb
 997              		.thumb_func
 998              		.type	StripLights_HSV_Pixel, %function
 999              	StripLights_HSV_Pixel:
 1000              	.LFB77:
 666:Generated_Source\PSoC5/StripLights.c ****     float R,G,B;
 1001              		.loc 1 666 0
 1002              		.cfi_startproc
 1003              		@ args = 4, pretend = 0, frame = 16
 1004              		@ frame_needed = 0, uses_anonymous_args = 0
 1005              	.LVL87:
 1006 0000 F0B5     		push	{r4, r5, r6, r7, lr}
 1007              		.cfi_def_cfa_offset 20
 1008              		.cfi_offset 4, -20
 1009              		.cfi_offset 5, -16
 1010              		.cfi_offset 6, -12
 1011              		.cfi_offset 7, -8
 1012              		.cfi_offset 14, -4
 1013 0002 87B0     		sub	sp, sp, #28
 1014              		.cfi_def_cfa_offset 48
 666:Generated_Source\PSoC5/StripLights.c ****     float R,G,B;
 1015              		.loc 1 666 0
 1016 0004 0E46     		mov	r6, r1
 668:Generated_Source\PSoC5/StripLights.c ****     //uint32 colour = ((int) (R * 255)) | (((int) (G * 255))<<8) | (((int) (B * 255)) << 16 );
 1017              		.loc 1 668 0
 1018 0006 0C99     		ldr	r1, [sp, #48]	@ float
 1019              	.LVL88:
 666:Generated_Source\PSoC5/StripLights.c ****     float R,G,B;
 1020              		.loc 1 666 0
 1021 0008 0546     		mov	r5, r0
 668:Generated_Source\PSoC5/StripLights.c ****     //uint32 colour = ((int) (R * 255)) | (((int) (G * 255))<<8) | (((int) (B * 255)) << 16 );
 1022              		.loc 1 668 0
 1023 000a 0191     		str	r1, [sp, #4]	@ float
 1024 000c 0093     		str	r3, [sp]	@ float
 1025 000e 04A9     		add	r1, sp, #16
 1026 0010 1346     		mov	r3, r2
 1027              	.LVL89:
 1028 0012 03A8     		add	r0, sp, #12
 1029              	.LVL90:
 1030 0014 05AA     		add	r2, sp, #20
 1031              	.LVL91:
 1032 0016 FFF7FEFF 		bl	StripLights_HSVtoRGB
 1033              	.LVL92:
 671:Generated_Source\PSoC5/StripLights.c **** }
 1034              		.loc 1 671 0
 1035 001a 1249     		ldr	r1, .L95
 1036 001c 0398     		ldr	r0, [sp, #12]	@ float
 1037 001e FFF7FEFF 		bl	__aeabi_fmul
 1038              	.LVL93:
ARM GAS  C:\Users\matij\AppData\Local\Temp\ccfrwtxb.s 			page 39


 1039 0022 FFF7FEFF 		bl	__aeabi_f2iz
 1040              	.LVL94:
 670:Generated_Source\PSoC5/StripLights.c ****     StripLights_Pixel(x,y,colour);
 1041              		.loc 1 670 0
 1042 0026 104B     		ldr	r3, .L95+4
 671:Generated_Source\PSoC5/StripLights.c **** }
 1043              		.loc 1 671 0
 1044 0028 0E49     		ldr	r1, .L95
 1045 002a 5C68     		ldr	r4, [r3, #4]
 670:Generated_Source\PSoC5/StripLights.c ****     StripLights_Pixel(x,y,colour);
 1046              		.loc 1 670 0
 1047 002c 0F4F     		ldr	r7, .L95+8
 671:Generated_Source\PSoC5/StripLights.c **** }
 1048              		.loc 1 671 0
 1049 002e 00FA04F4 		lsl	r4, r0, r4
 1050 0032 0598     		ldr	r0, [sp, #20]	@ float
 1051 0034 FFF7FEFF 		bl	__aeabi_fmul
 1052              	.LVL95:
 1053 0038 FFF7FEFF 		bl	__aeabi_f2iz
 1054              	.LVL96:
 1055 003c 7B68     		ldr	r3, [r7, #4]
 1056 003e 0949     		ldr	r1, .L95
 1057 0040 9840     		lsls	r0, r0, r3
 1058 0042 0443     		orrs	r4, r4, r0
 1059 0044 0498     		ldr	r0, [sp, #16]	@ float
 1060 0046 FFF7FEFF 		bl	__aeabi_fmul
 1061              	.LVL97:
 1062 004a FFF7FEFF 		bl	__aeabi_f2iz
 1063              	.LVL98:
 1064 004e 3A68     		ldr	r2, [r7]
 1065 0050 3146     		mov	r1, r6
 1066 0052 00FA02F2 		lsl	r2, r0, r2
 1067 0056 2243     		orrs	r2, r2, r4
 1068 0058 2846     		mov	r0, r5
 1069 005a FFF7FEFF 		bl	StripLights_Pixel
 1070              	.LVL99:
 672:Generated_Source\PSoC5/StripLights.c **** 
 1071              		.loc 1 672 0
 1072 005e 07B0     		add	sp, sp, #28
 1073              		.cfi_def_cfa_offset 20
 1074              		@ sp needed
 1075 0060 F0BD     		pop	{r4, r5, r6, r7, pc}
 1076              	.LVL100:
 1077              	.L96:
 1078 0062 00BF     		.align	2
 1079              	.L95:
 1080 0064 00007F43 		.word	1132396544
 1081 0068 00000000 		.word	.LANCHOR0
 1082 006c 00000000 		.word	.LANCHOR2
 1083              		.cfi_endproc
 1084              	.LFE77:
 1085              		.size	StripLights_HSV_Pixel, .-StripLights_HSV_Pixel
 1086              		.section	.text.StripLights_GetPixel,"ax",%progbits
 1087              		.align	1
 1088              		.global	StripLights_GetPixel
 1089              		.thumb
 1090              		.thumb_func
ARM GAS  C:\Users\matij\AppData\Local\Temp\ccfrwtxb.s 			page 40


 1091              		.type	StripLights_GetPixel, %function
 1092              	StripLights_GetPixel:
 1093              	.LFB79:
 717:Generated_Source\PSoC5/StripLights.c ****     uint32 color;
 1094              		.loc 1 717 0
 1095              		.cfi_startproc
 1096              		@ args = 0, pretend = 0, frame = 0
 1097              		@ frame_needed = 0, uses_anonymous_args = 0
 1098              		@ link register save eliminated.
 1099              	.LVL101:
 719:Generated_Source\PSoC5/StripLights.c ****     {
 1100              		.loc 1 719 0
 1101 0000 B0F5967F 		cmp	r0, #300
 1102 0004 03D2     		bcs	.L98
 719:Generated_Source\PSoC5/StripLights.c ****     {
 1103              		.loc 1 719 0 is_stmt 0 discriminator 3
 1104 0006 11B9     		cbnz	r1, .L98
 722:Generated_Source\PSoC5/StripLights.c ****     #else  /* Else use lookup table */
 1105              		.loc 1 722 0 is_stmt 1
 1106 0008 024B     		ldr	r3, .L99
 1107 000a 53F82030 		ldr	r3, [r3, r0, lsl #2]
 1108              	.LVL102:
 1109              	.L98:
 728:Generated_Source\PSoC5/StripLights.c **** 
 1110              		.loc 1 728 0
 1111 000e 1846     		mov	r0, r3
 1112              	.LVL103:
 1113 0010 7047     		bx	lr
 1114              	.L100:
 1115 0012 00BF     		.align	2
 1116              	.L99:
 1117 0014 00000000 		.word	StripLights_ledArray
 1118              		.cfi_endproc
 1119              	.LFE79:
 1120              		.size	StripLights_GetPixel, .-StripLights_GetPixel
 1121              		.section	.text.StripLights_DrawCircle,"ax",%progbits
 1122              		.align	1
 1123              		.global	StripLights_DrawCircle
 1124              		.thumb
 1125              		.thumb_func
 1126              		.type	StripLights_DrawCircle, %function
 1127              	StripLights_DrawCircle:
 1128              	.LFB80:
 749:Generated_Source\PSoC5/StripLights.c **** 	int32 f = 1 - radius;
 1129              		.loc 1 749 0
 1130              		.cfi_startproc
 1131              		@ args = 0, pretend = 0, frame = 8
 1132              		@ frame_needed = 0, uses_anonymous_args = 0
 1133              	.LVL104:
 1134 0000 2DE9F74F 		push	{r0, r1, r2, r4, r5, r6, r7, r8, r9, r10, fp, lr}
 1135              		.cfi_def_cfa_offset 48
 1136              		.cfi_offset 4, -36
 1137              		.cfi_offset 5, -32
 1138              		.cfi_offset 6, -28
 1139              		.cfi_offset 7, -24
 1140              		.cfi_offset 8, -20
 1141              		.cfi_offset 9, -16
ARM GAS  C:\Users\matij\AppData\Local\Temp\ccfrwtxb.s 			page 41


 1142              		.cfi_offset 10, -12
 1143              		.cfi_offset 11, -8
 1144              		.cfi_offset 14, -4
 749:Generated_Source\PSoC5/StripLights.c **** 	int32 f = 1 - radius;
 1145              		.loc 1 749 0
 1146 0004 1446     		mov	r4, r2
 1147 0006 1D46     		mov	r5, r3
 1148 0008 0E46     		mov	r6, r1
 752:Generated_Source\PSoC5/StripLights.c **** 	int32 x = 0;
 1149              		.loc 1 752 0
 1150 000a 6FF00103 		mvn	r3, #1
 1151              	.LVL105:
 1152 000e 5343     		muls	r3, r2, r3
 756:Generated_Source\PSoC5/StripLights.c **** 	StripLights_Pixel(x0, y0 - radius, color);
 1153              		.loc 1 756 0
 1154 0010 6118     		adds	r1, r4, r1
 1155              	.LVL106:
 750:Generated_Source\PSoC5/StripLights.c **** 	int32 ddF_x = 0;
 1156              		.loc 1 750 0
 1157 0012 C2F1010A 		rsb	r10, r2, #1
 1158              	.LVL107:
 756:Generated_Source\PSoC5/StripLights.c **** 	StripLights_Pixel(x0, y0 - radius, color);
 1159              		.loc 1 756 0
 1160 0016 2A46     		mov	r2, r5
 1161              	.LVL108:
 749:Generated_Source\PSoC5/StripLights.c **** 	int32 f = 1 - radius;
 1162              		.loc 1 749 0
 1163 0018 8046     		mov	r8, r0
 752:Generated_Source\PSoC5/StripLights.c **** 	int32 x = 0;
 1164              		.loc 1 752 0
 1165 001a 0093     		str	r3, [sp]
 1166              	.LVL109:
 756:Generated_Source\PSoC5/StripLights.c **** 	StripLights_Pixel(x0, y0 - radius, color);
 1167              		.loc 1 756 0
 1168 001c FFF7FEFF 		bl	StripLights_Pixel
 1169              	.LVL110:
 757:Generated_Source\PSoC5/StripLights.c **** 	StripLights_Pixel( x0 + radius, y0, color);
 1170              		.loc 1 757 0
 1171 0020 2A46     		mov	r2, r5
 1172 0022 311B     		subs	r1, r6, r4
 1173 0024 FFF7FEFF 		bl	StripLights_Pixel
 1174              	.LVL111:
 758:Generated_Source\PSoC5/StripLights.c **** 	StripLights_Pixel( x0 - radius, y0, color);
 1175              		.loc 1 758 0
 1176 0028 2A46     		mov	r2, r5
 1177 002a 3146     		mov	r1, r6
 1178 002c 2018     		adds	r0, r4, r0
 1179 002e FFF7FEFF 		bl	StripLights_Pixel
 1180              	.LVL112:
 759:Generated_Source\PSoC5/StripLights.c **** 
 1181              		.loc 1 759 0
 1182 0032 2A46     		mov	r2, r5
 1183 0034 3146     		mov	r1, r6
 1184 0036 C4EB0800 		rsb	r0, r4, r8
 1185 003a FFF7FEFF 		bl	StripLights_Pixel
 1186              	.LVL113:
 761:Generated_Source\PSoC5/StripLights.c **** 	{
ARM GAS  C:\Users\matij\AppData\Local\Temp\ccfrwtxb.s 			page 42


 1187              		.loc 1 761 0
 1188 003e 0127     		movs	r7, #1
 1189              	.LVL114:
 1190              	.L102:
 1191 0040 7B1E     		subs	r3, r7, #1
 1192              	.LVL115:
 1193 0042 9C42     		cmp	r4, r3
 1194 0044 4ADD     		ble	.L105
 763:Generated_Source\PSoC5/StripLights.c **** 		{
 1195              		.loc 1 763 0
 1196 0046 BAF1000F 		cmp	r10, #0
 1197 004a 04DB     		blt	.L103
 766:Generated_Source\PSoC5/StripLights.c **** 			f += ddF_y;
 1198              		.loc 1 766 0
 1199 004c 009B     		ldr	r3, [sp]
 1200              	.LVL116:
 765:Generated_Source\PSoC5/StripLights.c **** 			ddF_y += 2;
 1201              		.loc 1 765 0
 1202 004e 013C     		subs	r4, r4, #1
 1203              	.LVL117:
 766:Generated_Source\PSoC5/StripLights.c **** 			f += ddF_y;
 1204              		.loc 1 766 0
 1205 0050 0233     		adds	r3, r3, #2
 1206 0052 0093     		str	r3, [sp]
 1207              	.LVL118:
 767:Generated_Source\PSoC5/StripLights.c **** 		}
 1208              		.loc 1 767 0
 1209 0054 9A44     		add	r10, r10, r3
 1210              	.LVL119:
 1211              	.L103:
 1212 0056 08EB070B 		add	fp, r8, r7
 773:Generated_Source\PSoC5/StripLights.c **** 		StripLights_Pixel(x0 - x, y0 + y, color);
 1213              		.loc 1 773 0
 1214 005a 04EB0609 		add	r9, r4, r6
 771:Generated_Source\PSoC5/StripLights.c **** 
 1215              		.loc 1 771 0
 1216 005e 7B00     		lsls	r3, r7, #1
 1217              	.LVL120:
 1218 0060 0133     		adds	r3, r3, #1
 1219              	.LVL121:
 773:Generated_Source\PSoC5/StripLights.c **** 		StripLights_Pixel(x0 - x, y0 + y, color);
 1220              		.loc 1 773 0
 1221 0062 4946     		mov	r1, r9
 1222 0064 5846     		mov	r0, fp
 1223 0066 2A46     		mov	r2, r5
 771:Generated_Source\PSoC5/StripLights.c **** 
 1224              		.loc 1 771 0
 1225 0068 9A44     		add	r10, r10, r3
 1226              	.LVL122:
 773:Generated_Source\PSoC5/StripLights.c **** 		StripLights_Pixel(x0 - x, y0 + y, color);
 1227              		.loc 1 773 0
 1228 006a FFF7FEFF 		bl	StripLights_Pixel
 1229              	.LVL123:
 1230 006e 7B00     		lsls	r3, r7, #1
 1231              	.LVL124:
 1232 0070 C3EB0B03 		rsb	r3, r3, fp
 1233              	.LVL125:
ARM GAS  C:\Users\matij\AppData\Local\Temp\ccfrwtxb.s 			page 43


 774:Generated_Source\PSoC5/StripLights.c **** 		StripLights_Pixel( x0 + x, y0 - y, color);
 1234              		.loc 1 774 0
 1235 0074 1846     		mov	r0, r3
 1236 0076 4946     		mov	r1, r9
 1237 0078 2A46     		mov	r2, r5
 775:Generated_Source\PSoC5/StripLights.c **** 		StripLights_Pixel( x0 - x, y0 - y, color);
 1238              		.loc 1 775 0
 1239 007a C4EB0609 		rsb	r9, r4, r6
 774:Generated_Source\PSoC5/StripLights.c **** 		StripLights_Pixel( x0 + x, y0 - y, color);
 1240              		.loc 1 774 0
 1241 007e 0193     		str	r3, [sp, #4]
 1242 0080 FFF7FEFF 		bl	StripLights_Pixel
 1243              	.LVL126:
 775:Generated_Source\PSoC5/StripLights.c **** 		StripLights_Pixel( x0 - x, y0 - y, color);
 1244              		.loc 1 775 0
 1245 0084 4946     		mov	r1, r9
 1246 0086 5846     		mov	r0, fp
 1247 0088 2A46     		mov	r2, r5
 1248 008a FFF7FEFF 		bl	StripLights_Pixel
 1249              	.LVL127:
 776:Generated_Source\PSoC5/StripLights.c **** 		StripLights_Pixel( x0 + y, y0 + x, color);
 1250              		.loc 1 776 0
 1251 008e 019B     		ldr	r3, [sp, #4]
 1252 0090 4946     		mov	r1, r9
 1253 0092 1846     		mov	r0, r3
 1254 0094 2A46     		mov	r2, r5
 1255 0096 FFF7FEFF 		bl	StripLights_Pixel
 1256              	.LVL128:
 1257 009a 06EB0709 		add	r9, r6, r7
 777:Generated_Source\PSoC5/StripLights.c **** 		StripLights_Pixel( x0 - y, y0 + x, color);
 1258              		.loc 1 777 0
 1259 009e 04EB0803 		add	r3, r4, r8
 1260 00a2 1846     		mov	r0, r3
 1261 00a4 4946     		mov	r1, r9
 1262 00a6 2A46     		mov	r2, r5
 778:Generated_Source\PSoC5/StripLights.c **** 		StripLights_Pixel( x0 + y, y0 - x, color);
 1263              		.loc 1 778 0
 1264 00a8 C4EB080B 		rsb	fp, r4, r8
 777:Generated_Source\PSoC5/StripLights.c **** 		StripLights_Pixel( x0 - y, y0 + x, color);
 1265              		.loc 1 777 0
 1266 00ac 0193     		str	r3, [sp, #4]
 1267 00ae FFF7FEFF 		bl	StripLights_Pixel
 1268              	.LVL129:
 778:Generated_Source\PSoC5/StripLights.c **** 		StripLights_Pixel( x0 + y, y0 - x, color);
 1269              		.loc 1 778 0
 1270 00b2 4946     		mov	r1, r9
 1271 00b4 2A46     		mov	r2, r5
 1272 00b6 5846     		mov	r0, fp
 1273 00b8 FFF7FEFF 		bl	StripLights_Pixel
 1274              	.LVL130:
 1275 00bc 7B00     		lsls	r3, r7, #1
 1276              	.LVL131:
 1277 00be C3EB0909 		rsb	r9, r3, r9
 779:Generated_Source\PSoC5/StripLights.c **** 		StripLights_Pixel( x0 - y, y0 - x, color);
 1278              		.loc 1 779 0
 1279 00c2 019B     		ldr	r3, [sp, #4]
 1280              	.LVL132:
ARM GAS  C:\Users\matij\AppData\Local\Temp\ccfrwtxb.s 			page 44


 1281 00c4 2A46     		mov	r2, r5
 1282 00c6 1846     		mov	r0, r3
 1283 00c8 4946     		mov	r1, r9
 1284 00ca FFF7FEFF 		bl	StripLights_Pixel
 1285              	.LVL133:
 780:Generated_Source\PSoC5/StripLights.c **** 	}
 1286              		.loc 1 780 0
 1287 00ce 2A46     		mov	r2, r5
 1288 00d0 4946     		mov	r1, r9
 1289 00d2 5846     		mov	r0, fp
 1290 00d4 FFF7FEFF 		bl	StripLights_Pixel
 1291              	.LVL134:
 1292 00d8 0137     		adds	r7, r7, #1
 1293              	.LVL135:
 1294 00da B1E7     		b	.L102
 1295              	.LVL136:
 1296              	.L105:
 782:Generated_Source\PSoC5/StripLights.c **** 
 1297              		.loc 1 782 0
 1298 00dc 03B0     		add	sp, sp, #12
 1299              		.cfi_def_cfa_offset 36
 1300              	.LVL137:
 1301              		@ sp needed
 1302 00de BDE8F08F 		pop	{r4, r5, r6, r7, r8, r9, r10, fp, pc}
 1303              		.cfi_endproc
 1304              	.LFE80:
 1305              		.size	StripLights_DrawCircle, .-StripLights_DrawCircle
 1306              		.section	.text.StripLights_DrawLine,"ax",%progbits
 1307              		.align	1
 1308              		.global	StripLights_DrawLine
 1309              		.thumb
 1310              		.thumb_func
 1311              		.type	StripLights_DrawLine, %function
 1312              	StripLights_DrawLine:
 1313              	.LFB81:
 802:Generated_Source\PSoC5/StripLights.c **** 	int32 dy = y1 - y0; /* Difference between y0 and y1 */
 1314              		.loc 1 802 0
 1315              		.cfi_startproc
 1316              		@ args = 4, pretend = 0, frame = 0
 1317              		@ frame_needed = 0, uses_anonymous_args = 0
 1318              	.LVL138:
 1319 0000 2DE9F84F 		push	{r3, r4, r5, r6, r7, r8, r9, r10, fp, lr}
 1320              		.cfi_def_cfa_offset 40
 1321              		.cfi_offset 3, -40
 1322              		.cfi_offset 4, -36
 1323              		.cfi_offset 5, -32
 1324              		.cfi_offset 6, -28
 1325              		.cfi_offset 7, -24
 1326              		.cfi_offset 8, -20
 1327              		.cfi_offset 9, -16
 1328              		.cfi_offset 10, -12
 1329              		.cfi_offset 11, -8
 1330              		.cfi_offset 14, -4
 807:Generated_Source\PSoC5/StripLights.c **** 	{
 1331              		.loc 1 807 0
 1332 0004 5E1A     		subs	r6, r3, r1
 1333              	.LVL139:
ARM GAS  C:\Users\matij\AppData\Local\Temp\ccfrwtxb.s 			page 45


 804:Generated_Source\PSoC5/StripLights.c **** 	int32 stepx, stepy;
 1334              		.loc 1 804 0
 1335 0006 A2EB0005 		sub	r5, r2, r0
 1336              	.LVL140:
 809:Generated_Source\PSoC5/StripLights.c **** 		stepy = -1;
 1337              		.loc 1 809 0
 1338 000a 46BF     		itte	mi
 1339 000c 7642     		rsbmi	r6, r6, #0
 1340              	.LVL141:
 810:Generated_Source\PSoC5/StripLights.c **** 	}
 1341              		.loc 1 810 0
 1342 000e 4FF0FF3B 		movmi	fp, #-1
 814:Generated_Source\PSoC5/StripLights.c **** 	}
 1343              		.loc 1 814 0
 1344 0012 4FF0010B 		movpl	fp, #1
 1345              	.LVL142:
 817:Generated_Source\PSoC5/StripLights.c **** 	{
 1346              		.loc 1 817 0
 1347 0016 002D     		cmp	r5, #0
 819:Generated_Source\PSoC5/StripLights.c **** 		stepx = -1;
 1348              		.loc 1 819 0
 1349 0018 B8BF     		it	lt
 1350 001a 6D42     		rsblt	r5, r5, #0
 1351              	.LVL143:
 802:Generated_Source\PSoC5/StripLights.c **** 	int32 dy = y1 - y0; /* Difference between y0 and y1 */
 1352              		.loc 1 802 0
 1353 001c 9046     		mov	r8, r2
 827:Generated_Source\PSoC5/StripLights.c **** 	dx <<= 1; /* dx is now 2*dx  */
 1354              		.loc 1 827 0
 1355 001e 4FEA4606 		lsl	r6, r6, #1
 1356              	.LVL144:
 828:Generated_Source\PSoC5/StripLights.c **** 	StripLights_Pixel(x0, y0, color);
 1357              		.loc 1 828 0
 1358 0022 4FEA4505 		lsl	r5, r5, #1
 1359              	.LVL145:
 829:Generated_Source\PSoC5/StripLights.c **** 
 1360              		.loc 1 829 0
 1361 0026 0A9A     		ldr	r2, [sp, #40]
 1362              	.LVL146:
 820:Generated_Source\PSoC5/StripLights.c **** 	}
 1363              		.loc 1 820 0
 1364 0028 B4BF     		ite	lt
 1365 002a 4FF0FF3A 		movlt	r10, #-1
 824:Generated_Source\PSoC5/StripLights.c **** 	}
 1366              		.loc 1 824 0
 1367 002e 4FF0010A 		movge	r10, #1
 1368              	.LVL147:
 802:Generated_Source\PSoC5/StripLights.c **** 	int32 dy = y1 - y0; /* Difference between y0 and y1 */
 1369              		.loc 1 802 0
 1370 0032 0746     		mov	r7, r0
 1371 0034 0C46     		mov	r4, r1
 1372 0036 9946     		mov	r9, r3
 829:Generated_Source\PSoC5/StripLights.c **** 
 1373              		.loc 1 829 0
 1374 0038 FFF7FEFF 		bl	StripLights_Pixel
 1375              	.LVL148:
 831:Generated_Source\PSoC5/StripLights.c **** 	{
ARM GAS  C:\Users\matij\AppData\Local\Temp\ccfrwtxb.s 			page 46


 1376              		.loc 1 831 0
 1377 003c AE42     		cmp	r6, r5
 1378 003e 14DA     		bge	.L109
 1379              	.LBB16:
 833:Generated_Source\PSoC5/StripLights.c **** 		while (x0 != x1)
 1380              		.loc 1 833 0
 1381 0040 A6EB6509 		sub	r9, r6, r5, asr #1
 1382              	.LVL149:
 1383              	.L110:
 834:Generated_Source\PSoC5/StripLights.c **** 		{
 1384              		.loc 1 834 0
 1385 0044 4745     		cmp	r7, r8
 1386 0046 0ED0     		beq	.L119
 836:Generated_Source\PSoC5/StripLights.c **** 			{
 1387              		.loc 1 836 0
 1388 0048 B9F1000F 		cmp	r9, #0
 838:Generated_Source\PSoC5/StripLights.c **** 				fraction -= dx;
 1389              		.loc 1 838 0
 1390 004c A8BF     		it	ge
 1391 004e 5C44     		addge	r4, r4, fp
 1392              	.LVL150:
 841:Generated_Source\PSoC5/StripLights.c **** 			fraction += dy;
 1393              		.loc 1 841 0
 1394 0050 5744     		add	r7, r7, r10
 1395              	.LVL151:
 839:Generated_Source\PSoC5/StripLights.c **** 			}
 1396              		.loc 1 839 0
 1397 0052 A8BF     		it	ge
 1398 0054 C5EB0909 		rsbge	r9, r5, r9
 1399              	.LVL152:
 843:Generated_Source\PSoC5/StripLights.c **** 		}
 1400              		.loc 1 843 0
 1401 0058 0A9A     		ldr	r2, [sp, #40]
 1402 005a 2146     		mov	r1, r4
 1403 005c 3846     		mov	r0, r7
 842:Generated_Source\PSoC5/StripLights.c **** 			StripLights_Pixel(x0, y0, color);
 1404              		.loc 1 842 0
 1405 005e B144     		add	r9, r9, r6
 1406              	.LVL153:
 843:Generated_Source\PSoC5/StripLights.c **** 		}
 1407              		.loc 1 843 0
 1408 0060 FFF7FEFF 		bl	StripLights_Pixel
 1409              	.LVL154:
 1410 0064 EEE7     		b	.L110
 1411              	.L119:
 1412 0066 BDE8F88F 		pop	{r3, r4, r5, r6, r7, r8, r9, r10, fp, pc}
 1413              	.LVL155:
 1414              	.L109:
 1415              	.LBE16:
 1416              	.LBB17:
 848:Generated_Source\PSoC5/StripLights.c **** 		while (y0 != y1)
 1417              		.loc 1 848 0
 1418 006a A5EB6608 		sub	r8, r5, r6, asr #1
 1419              	.LVL156:
 1420              	.L113:
 849:Generated_Source\PSoC5/StripLights.c **** 		{
 1421              		.loc 1 849 0
ARM GAS  C:\Users\matij\AppData\Local\Temp\ccfrwtxb.s 			page 47


 1422 006e 4C45     		cmp	r4, r9
 1423 0070 0ED0     		beq	.L120
 851:Generated_Source\PSoC5/StripLights.c **** 			{
 1424              		.loc 1 851 0
 1425 0072 B8F1000F 		cmp	r8, #0
 853:Generated_Source\PSoC5/StripLights.c **** 				fraction -= dy;
 1426              		.loc 1 853 0
 1427 0076 A8BF     		it	ge
 1428 0078 5744     		addge	r7, r7, r10
 1429              	.LVL157:
 856:Generated_Source\PSoC5/StripLights.c **** 			fraction += dx;
 1430              		.loc 1 856 0
 1431 007a 5C44     		add	r4, r4, fp
 1432              	.LVL158:
 854:Generated_Source\PSoC5/StripLights.c **** 			}
 1433              		.loc 1 854 0
 1434 007c A8BF     		it	ge
 1435 007e C6EB0808 		rsbge	r8, r6, r8
 1436              	.LVL159:
 858:Generated_Source\PSoC5/StripLights.c **** 		}
 1437              		.loc 1 858 0
 1438 0082 0A9A     		ldr	r2, [sp, #40]
 1439 0084 2146     		mov	r1, r4
 1440 0086 3846     		mov	r0, r7
 857:Generated_Source\PSoC5/StripLights.c **** 			StripLights_Pixel( x0, y0, color);
 1441              		.loc 1 857 0
 1442 0088 A844     		add	r8, r8, r5
 1443              	.LVL160:
 858:Generated_Source\PSoC5/StripLights.c **** 		}
 1444              		.loc 1 858 0
 1445 008a FFF7FEFF 		bl	StripLights_Pixel
 1446              	.LVL161:
 1447 008e EEE7     		b	.L113
 1448              	.L120:
 1449 0090 BDE8F88F 		pop	{r3, r4, r5, r6, r7, r8, r9, r10, fp, pc}
 1450              	.LBE17:
 1451              		.cfi_endproc
 1452              	.LFE81:
 1453              		.size	StripLights_DrawLine, .-StripLights_DrawLine
 1454              		.section	.text.StripLights_DrawRect,"ax",%progbits
 1455              		.align	1
 1456              		.global	StripLights_DrawRect
 1457              		.thumb
 1458              		.thumb_func
 1459              		.type	StripLights_DrawRect, %function
 1460              	StripLights_DrawRect:
 1461              	.LFB82:
 881:Generated_Source\PSoC5/StripLights.c ****      int xDiff;
 1462              		.loc 1 881 0
 1463              		.cfi_startproc
 1464              		@ args = 8, pretend = 0, frame = 0
 1465              		@ frame_needed = 0, uses_anonymous_args = 0
 1466              	.LVL162:
 1467 0000 2DE9F743 		push	{r0, r1, r2, r4, r5, r6, r7, r8, r9, lr}
 1468              		.cfi_def_cfa_offset 40
 1469              		.cfi_offset 4, -28
 1470              		.cfi_offset 5, -24
ARM GAS  C:\Users\matij\AppData\Local\Temp\ccfrwtxb.s 			page 48


 1471              		.cfi_offset 6, -20
 1472              		.cfi_offset 7, -16
 1473              		.cfi_offset 8, -12
 1474              		.cfi_offset 9, -8
 1475              		.cfi_offset 14, -4
 881:Generated_Source\PSoC5/StripLights.c ****      int xDiff;
 1476              		.loc 1 881 0
 1477 0004 1E46     		mov	r6, r3
 1478 0006 0A9B     		ldr	r3, [sp, #40]
 1479              	.LVL163:
 1480 0008 0446     		mov	r4, r0
 1481 000a 8846     		mov	r8, r1
 1482 000c 1546     		mov	r5, r2
 1483 000e 0B9F     		ldr	r7, [sp, #44]
 884:Generated_Source\PSoC5/StripLights.c **** 	{	
 1484              		.loc 1 884 0
 1485 0010 ABB1     		cbz	r3, .L122
 887:Generated_Source\PSoC5/StripLights.c **** 		{
 1486              		.loc 1 887 0
 1487 0012 9042     		cmp	r0, r2
 889:Generated_Source\PSoC5/StripLights.c **** 		}
 1488              		.loc 1 889 0
 1489 0014 CCBF     		ite	gt
 1490 0016 C2EB0009 		rsbgt	r9, r2, r0
 1491              	.LVL164:
 893:Generated_Source\PSoC5/StripLights.c **** 		}
 1492              		.loc 1 893 0
 1493 001a C0EB0209 		rsble	r9, r0, r2
 1494              	.LVL165:
 1495              	.L127:
 899:Generated_Source\PSoC5/StripLights.c **** 		
 1496              		.loc 1 899 0
 1497 001e 2246     		mov	r2, r4
 1498 0020 2046     		mov	r0, r4
 1499 0022 0097     		str	r7, [sp]
 1500 0024 3346     		mov	r3, r6
 1501 0026 4146     		mov	r1, r8
 1502 0028 FFF7FEFF 		bl	StripLights_DrawLine
 1503              	.LVL166:
 901:Generated_Source\PSoC5/StripLights.c **** 				x0--;
 1504              		.loc 1 901 0
 1505 002c A542     		cmp	r5, r4
 902:Generated_Source\PSoC5/StripLights.c **** 			else
 1506              		.loc 1 902 0
 1507 002e B4BF     		ite	lt
 1508 0030 04F1FF34 		addlt	r4, r4, #-1
 1509              	.LVL167:
 904:Generated_Source\PSoC5/StripLights.c **** 		
 1510              		.loc 1 904 0
 1511 0034 0134     		addge	r4, r4, #1
 1512              	.LVL168:
 897:Generated_Source\PSoC5/StripLights.c **** 		{
 1513              		.loc 1 897 0
 1514 0036 19F1FF39 		adds	r9, r9, #-1
 1515              	.LVL169:
 1516 003a F0D2     		bcs	.L127
 1517 003c 1BE0     		b	.L131
ARM GAS  C:\Users\matij\AppData\Local\Temp\ccfrwtxb.s 			page 49


 1518              	.LVL170:
 1519              	.L122:
 913:Generated_Source\PSoC5/StripLights.c **** 		StripLights_DrawLine(x0, y1, x1, y1, color);
 1520              		.loc 1 913 0
 1521 003e 0B46     		mov	r3, r1
 1522 0040 0097     		str	r7, [sp]
 1523 0042 FFF7FEFF 		bl	StripLights_DrawLine
 1524              	.LVL171:
 914:Generated_Source\PSoC5/StripLights.c **** 		StripLights_DrawLine(x0, y0, x0, y1, color);
 1525              		.loc 1 914 0
 1526 0046 3346     		mov	r3, r6
 1527 0048 2A46     		mov	r2, r5
 1528 004a 3146     		mov	r1, r6
 1529 004c 2046     		mov	r0, r4
 1530 004e 0097     		str	r7, [sp]
 1531 0050 FFF7FEFF 		bl	StripLights_DrawLine
 1532              	.LVL172:
 915:Generated_Source\PSoC5/StripLights.c **** 		StripLights_DrawLine(x1, y0, x1, y1, color);
 1533              		.loc 1 915 0
 1534 0054 3346     		mov	r3, r6
 1535 0056 2246     		mov	r2, r4
 1536 0058 4146     		mov	r1, r8
 1537 005a 2046     		mov	r0, r4
 1538 005c 0097     		str	r7, [sp]
 1539 005e FFF7FEFF 		bl	StripLights_DrawLine
 1540              	.LVL173:
 916:Generated_Source\PSoC5/StripLights.c **** 	}
 1541              		.loc 1 916 0
 1542 0062 3346     		mov	r3, r6
 1543 0064 2A46     		mov	r2, r5
 1544 0066 4146     		mov	r1, r8
 1545 0068 2846     		mov	r0, r5
 1546 006a 0A97     		str	r7, [sp, #40]
 918:Generated_Source\PSoC5/StripLights.c **** 
 1547              		.loc 1 918 0
 1548 006c 03B0     		add	sp, sp, #12
 1549              		.cfi_remember_state
 1550              		.cfi_def_cfa_offset 28
 1551              		@ sp needed
 1552 006e BDE8F043 		pop	{r4, r5, r6, r7, r8, r9, lr}
 1553              		.cfi_restore 14
 1554              		.cfi_restore 9
 1555              		.cfi_restore 8
 1556              		.cfi_restore 7
 1557              		.cfi_restore 6
 1558              		.cfi_restore 5
 1559              		.cfi_restore 4
 1560              		.cfi_def_cfa_offset 0
 1561              	.LVL174:
 916:Generated_Source\PSoC5/StripLights.c **** 	}
 1562              		.loc 1 916 0
 1563 0072 FFF7FEBF 		b	StripLights_DrawLine
 1564              	.LVL175:
 1565              	.L131:
 1566              		.cfi_restore_state
 918:Generated_Source\PSoC5/StripLights.c **** 
 1567              		.loc 1 918 0
ARM GAS  C:\Users\matij\AppData\Local\Temp\ccfrwtxb.s 			page 50


 1568 0076 03B0     		add	sp, sp, #12
 1569              		.cfi_def_cfa_offset 28
 1570              		@ sp needed
 1571 0078 BDE8F083 		pop	{r4, r5, r6, r7, r8, r9, pc}
 1572              		.cfi_endproc
 1573              	.LFE82:
 1574              		.size	StripLights_DrawRect, .-StripLights_DrawRect
 1575              		.section	.text.StripLights_Dim,"ax",%progbits
 1576              		.align	1
 1577              		.global	StripLights_Dim
 1578              		.thumb
 1579              		.thumb_func
 1580              		.type	StripLights_Dim, %function
 1581              	StripLights_Dim:
 1582              	.LFB83:
 937:Generated_Source\PSoC5/StripLights.c **** extern uint32  StripLights_DimMask;
 1583              		.loc 1 937 0
 1584              		.cfi_startproc
 1585              		@ args = 0, pretend = 0, frame = 0
 1586              		@ frame_needed = 0, uses_anonymous_args = 0
 1587              		@ link register save eliminated.
 1588              	.LVL176:
 941:Generated_Source\PSoC5/StripLights.c ****     {           
 1589              		.loc 1 941 0
 1590 0000 0138     		subs	r0, r0, #1
 1591              	.LVL177:
 1592 0002 164A     		ldr	r2, .L144
 1593 0004 164B     		ldr	r3, .L144+4
 1594 0006 0628     		cmp	r0, #6
 1595 0008 21D8     		bhi	.L133
 1596 000a DFE800F0 		tbb	[pc, r0]
 1597              	.L135:
 1598 000e 04       		.byte	(.L134-.L135)/2
 1599 000f 08       		.byte	(.L136-.L135)/2
 1600 0010 0C       		.byte	(.L137-.L135)/2
 1601 0011 10       		.byte	(.L138-.L135)/2
 1602 0012 14       		.byte	(.L139-.L135)/2
 1603 0013 18       		.byte	(.L140-.L135)/2
 1604 0014 1C       		.byte	(.L141-.L135)/2
 1605 0015 00       		.p2align 1
 1606              	.L134:
 944:Generated_Source\PSoC5/StripLights.c ****            StripLights_DimShift = 1;
 1607              		.loc 1 944 0
 1608 0016 1349     		ldr	r1, .L144+8
 1609 0018 1160     		str	r1, [r2]
 945:Generated_Source\PSoC5/StripLights.c ****            break;
 1610              		.loc 1 945 0
 1611 001a 0122     		movs	r2, #1
 1612 001c 1BE0     		b	.L143
 1613              	.L136:
 949:Generated_Source\PSoC5/StripLights.c ****            StripLights_DimShift = 2;
 1614              		.loc 1 949 0
 1615 001e 1249     		ldr	r1, .L144+12
 1616 0020 1160     		str	r1, [r2]
 950:Generated_Source\PSoC5/StripLights.c ****            break;
 1617              		.loc 1 950 0
 1618 0022 0222     		movs	r2, #2
ARM GAS  C:\Users\matij\AppData\Local\Temp\ccfrwtxb.s 			page 51


 1619 0024 17E0     		b	.L143
 1620              	.L137:
 954:Generated_Source\PSoC5/StripLights.c ****            StripLights_DimShift = 3;
 1621              		.loc 1 954 0
 1622 0026 1149     		ldr	r1, .L144+16
 1623 0028 1160     		str	r1, [r2]
 955:Generated_Source\PSoC5/StripLights.c ****            break;
 1624              		.loc 1 955 0
 1625 002a 0322     		movs	r2, #3
 1626 002c 13E0     		b	.L143
 1627              	.L138:
 959:Generated_Source\PSoC5/StripLights.c ****            StripLights_DimShift = 4;
 1628              		.loc 1 959 0
 1629 002e 1049     		ldr	r1, .L144+20
 1630 0030 1160     		str	r1, [r2]
 960:Generated_Source\PSoC5/StripLights.c ****            break;
 1631              		.loc 1 960 0
 1632 0032 0422     		movs	r2, #4
 1633 0034 0FE0     		b	.L143
 1634              	.L139:
 964:Generated_Source\PSoC5/StripLights.c ****            StripLights_DimShift = 5;
 1635              		.loc 1 964 0
 1636 0036 0F49     		ldr	r1, .L144+24
 1637 0038 1160     		str	r1, [r2]
 965:Generated_Source\PSoC5/StripLights.c ****            break;
 1638              		.loc 1 965 0
 1639 003a 0522     		movs	r2, #5
 1640 003c 0BE0     		b	.L143
 1641              	.L140:
 969:Generated_Source\PSoC5/StripLights.c ****            StripLights_DimShift = 6;
 1642              		.loc 1 969 0
 1643 003e 0E49     		ldr	r1, .L144+28
 1644 0040 1160     		str	r1, [r2]
 970:Generated_Source\PSoC5/StripLights.c ****            break;
 1645              		.loc 1 970 0
 1646 0042 0622     		movs	r2, #6
 1647 0044 07E0     		b	.L143
 1648              	.L141:
 974:Generated_Source\PSoC5/StripLights.c ****            StripLights_DimShift = 7;
 1649              		.loc 1 974 0
 1650 0046 0D49     		ldr	r1, .L144+32
 1651 0048 1160     		str	r1, [r2]
 975:Generated_Source\PSoC5/StripLights.c ****            break;
 1652              		.loc 1 975 0
 1653 004a 0722     		movs	r2, #7
 1654 004c 03E0     		b	.L143
 1655              	.L133:
 980:Generated_Source\PSoC5/StripLights.c ****            StripLights_DimShift = 0;
 1656              		.loc 1 980 0
 1657 004e 6FF07F41 		mvn	r1, #-16777216
 1658 0052 1160     		str	r1, [r2]
 1659              		.loc 1 981 0
 1660 0054 0022     		movs	r2, #0
 1661              	.L143:
 1662 0056 1A60     		str	r2, [r3]
 1663 0058 7047     		bx	lr
 1664              	.L145:
ARM GAS  C:\Users\matij\AppData\Local\Temp\ccfrwtxb.s 			page 52


 1665 005a 00BF     		.align	2
 1666              	.L144:
 1667 005c 00000000 		.word	StripLights_DimMask
 1668 0060 00000000 		.word	StripLights_DimShift
 1669 0064 7F7F7F00 		.word	8355711
 1670 0068 3F3F3F00 		.word	4144959
 1671 006c 1F1F1F00 		.word	2039583
 1672 0070 0F0F0F00 		.word	986895
 1673 0074 07070700 		.word	460551
 1674 0078 03030300 		.word	197379
 1675 007c 01010100 		.word	65793
 1676              		.cfi_endproc
 1677              	.LFE83:
 1678              		.size	StripLights_Dim, .-StripLights_Dim
 1679              		.section	.text.StripLights_bplot,"ax",%progbits
 1680              		.align	1
 1681              		.global	StripLights_bplot
 1682              		.thumb
 1683              		.thumb_func
 1684              		.type	StripLights_bplot, %function
 1685              	StripLights_bplot:
 1686              	.LFB84:
 982:Generated_Source\PSoC5/StripLights.c ****            break;
 983:Generated_Source\PSoC5/StripLights.c ****         
 984:Generated_Source\PSoC5/StripLights.c ****     }
 985:Generated_Source\PSoC5/StripLights.c **** }
 986:Generated_Source\PSoC5/StripLights.c **** 
 987:Generated_Source\PSoC5/StripLights.c **** void StripLights_bplot( int32 x, int32 y, uint8 * bitMap, int32 update)
 988:Generated_Source\PSoC5/StripLights.c **** {
 1687              		.loc 1 988 0
 1688              		.cfi_startproc
 1689              		@ args = 0, pretend = 0, frame = 8
 1690              		@ frame_needed = 0, uses_anonymous_args = 0
 1691              	.LVL178:
 1692 0000 2DE9F74F 		push	{r0, r1, r2, r4, r5, r6, r7, r8, r9, r10, fp, lr}
 1693              		.cfi_def_cfa_offset 48
 1694              		.cfi_offset 4, -36
 1695              		.cfi_offset 5, -32
 1696              		.cfi_offset 6, -28
 1697              		.cfi_offset 7, -24
 1698              		.cfi_offset 8, -20
 1699              		.cfi_offset 9, -16
 1700              		.cfi_offset 10, -12
 1701              		.cfi_offset 11, -8
 1702              		.cfi_offset 14, -4
 1703              		.loc 1 988 0
 1704 0004 0646     		mov	r6, r0
 1705 0006 0D46     		mov	r5, r1
 989:Generated_Source\PSoC5/StripLights.c ****     int32 dx, dy;
 990:Generated_Source\PSoC5/StripLights.c ****     int32 aindex = 0;
 991:Generated_Source\PSoC5/StripLights.c ****     int32 maxX, maxY;
 992:Generated_Source\PSoC5/StripLights.c **** 
 993:Generated_Source\PSoC5/StripLights.c ****     maxX = x + (int32)bitMap[aindex++];
 1706              		.loc 1 993 0
 1707 0008 92F80080 		ldrb	r8, [r2]	@ zero_extendqisi2
 994:Generated_Source\PSoC5/StripLights.c ****     maxY = y  + (int32)bitMap[aindex++];
 1708              		.loc 1 994 0
ARM GAS  C:\Users\matij\AppData\Local\Temp\ccfrwtxb.s 			page 53


 1709 000c 92F80190 		ldrb	r9, [r2, #1]	@ zero_extendqisi2
 988:Generated_Source\PSoC5/StripLights.c ****     int32 dx, dy;
 1710              		.loc 1 988 0
 1711 0010 1746     		mov	r7, r2
 993:Generated_Source\PSoC5/StripLights.c ****     maxY = y  + (int32)bitMap[aindex++];
 1712              		.loc 1 993 0
 1713 0012 8044     		add	r8, r8, r0
 1714              	.LVL179:
 1715              		.loc 1 994 0
 1716 0014 8944     		add	r9, r9, r1
 1717              	.LVL180:
 1718 0016 0222     		movs	r2, #2
 1719              	.LVL181:
 1720              	.L147:
 995:Generated_Source\PSoC5/StripLights.c **** 
 996:Generated_Source\PSoC5/StripLights.c **** 	for(dy = y; dy < maxY; dy++)
 1721              		.loc 1 996 0 discriminator 1
 1722 0018 4D45     		cmp	r5, r9
 1723 001a 14DA     		bge	.L149
 1724              		.loc 1 996 0 is_stmt 0
 1725 001c 3446     		mov	r4, r6
 1726 001e 07EB020A 		add	r10, r7, r2
 1727 0022 C6EB020B 		rsb	fp, r6, r2
 1728              	.L150:
 997:Generated_Source\PSoC5/StripLights.c ****     {
 998:Generated_Source\PSoC5/StripLights.c **** 		for(dx = x; dx < maxX; dx++)
 1729              		.loc 1 998 0 is_stmt 1 discriminator 1
 1730 0026 4445     		cmp	r4, r8
 1731 0028 0BEB0402 		add	r2, fp, r4
 1732              	.LVL182:
 1733 002c 09DA     		bge	.L152
 999:Generated_Source\PSoC5/StripLights.c ****         {
1000:Generated_Source\PSoC5/StripLights.c ****             StripLights_Pixel(dx, dy, bitMap[aindex++]);
 1734              		.loc 1 1000 0 discriminator 3
 1735 002e 2046     		mov	r0, r4
 1736 0030 1AF8012B 		ldrb	r2, [r10], #1	@ zero_extendqisi2
 1737 0034 2946     		mov	r1, r5
 1738 0036 0193     		str	r3, [sp, #4]
 1739              	.LVL183:
 998:Generated_Source\PSoC5/StripLights.c ****         {
 1740              		.loc 1 998 0 discriminator 3
 1741 0038 0134     		adds	r4, r4, #1
 1742              	.LVL184:
 1743              		.loc 1 1000 0 discriminator 3
 1744 003a FFF7FEFF 		bl	StripLights_Pixel
 1745              	.LVL185:
 998:Generated_Source\PSoC5/StripLights.c ****         {
 1746              		.loc 1 998 0 discriminator 3
 1747 003e 019B     		ldr	r3, [sp, #4]
 1748              	.LVL186:
 1749 0040 F1E7     		b	.L150
 1750              	.LVL187:
 1751              	.L152:
 996:Generated_Source\PSoC5/StripLights.c ****     {
 1752              		.loc 1 996 0 discriminator 2
 1753 0042 0135     		adds	r5, r5, #1
 1754              	.LVL188:
ARM GAS  C:\Users\matij\AppData\Local\Temp\ccfrwtxb.s 			page 54


 1755 0044 E8E7     		b	.L147
 1756              	.LVL189:
 1757              	.L149:
1001:Generated_Source\PSoC5/StripLights.c ****         }
1002:Generated_Source\PSoC5/StripLights.c ****     }
1003:Generated_Source\PSoC5/StripLights.c **** 	if(update) StripLights_Trigger(1);
 1758              		.loc 1 1003 0
 1759 0046 2BB1     		cbz	r3, .L146
 1760              		.loc 1 1003 0 is_stmt 0 discriminator 1
 1761 0048 0120     		movs	r0, #1
1004:Generated_Source\PSoC5/StripLights.c **** }
 1762              		.loc 1 1004 0 is_stmt 1 discriminator 1
 1763 004a 03B0     		add	sp, sp, #12
 1764              		.cfi_remember_state
 1765              		.cfi_def_cfa_offset 36
 1766              		@ sp needed
 1767 004c BDE8F04F 		pop	{r4, r5, r6, r7, r8, r9, r10, fp, lr}
 1768              		.cfi_restore 14
 1769              		.cfi_restore 11
 1770              		.cfi_restore 10
 1771              		.cfi_restore 9
 1772              		.cfi_restore 8
 1773              		.cfi_restore 7
 1774              		.cfi_restore 6
 1775              		.cfi_restore 5
 1776              		.cfi_restore 4
 1777              		.cfi_def_cfa_offset 0
 1778              	.LVL190:
1003:Generated_Source\PSoC5/StripLights.c **** }
 1779              		.loc 1 1003 0 discriminator 1
 1780 0050 FFF7FEBF 		b	StripLights_Trigger
 1781              	.LVL191:
 1782              	.L146:
 1783              		.cfi_restore_state
 1784              		.loc 1 1004 0
 1785 0054 03B0     		add	sp, sp, #12
 1786              		.cfi_def_cfa_offset 36
 1787              		@ sp needed
 1788 0056 BDE8F08F 		pop	{r4, r5, r6, r7, r8, r9, r10, fp, pc}
 1789              		.cfi_endproc
 1790              	.LFE84:
 1791              		.size	StripLights_bplot, .-StripLights_bplot
 1792              		.global	gamma
 1793              		.global	StripLights_CLUT
 1794              		.global	StripLights_Blue_Shift
 1795              		.global	StripLights_Green_Shift
 1796              		.global	StripLights_Red_Shift
 1797              		.comm	StripLights_DimShift,4,4
 1798              		.comm	StripLights_DimMask,4,4
 1799              		.comm	StripLights_refreshComplete,4,4
 1800              		.global	StripLights_row
 1801              		.global	StripLights_ledIndex
 1802              		.comm	StripLights_ledArray,1200,4
 1803              		.global	StripLights_initvar
 1804              		.comm	Config,44,4
 1805              		.comm	System_u,1,1
 1806              		.comm	StripLights_UseGammaCorrection,1,1
ARM GAS  C:\Users\matij\AppData\Local\Temp\ccfrwtxb.s 			page 55


 1807              		.comm	StripLights_Done,4,4
 1808              		.section	.rodata
 1809              		.align	2
 1810              		.set	.LANCHOR1,. + 0
 1811              		.type	StripLights_CLUT, %object
 1812              		.size	StripLights_CLUT, 480
 1813              	StripLights_CLUT:
 1814 0000 FFFF0000 		.word	65535
 1815 0004 FFCC0000 		.word	52479
 1816 0008 FF990000 		.word	39423
 1817 000c FF330000 		.word	13311
 1818 0010 FF000000 		.word	255
 1819 0014 B3006600 		.word	6684851
 1820 0018 99009900 		.word	10027161
 1821 001c 6600B300 		.word	11731046
 1822 0020 3300CC00 		.word	13369395
 1823 0024 1919B300 		.word	11737369
 1824 0028 00339900 		.word	10040064
 1825 002c 00409900 		.word	10043392
 1826 0030 00669900 		.word	10053120
 1827 0034 00999900 		.word	10066176
 1828 0038 00CC9900 		.word	10079232
 1829 003c 00E66600 		.word	6743552
 1830 0040 00FF0000 		.word	65280
 1831 0044 33FF0000 		.word	65331
 1832 0048 66FF0000 		.word	65382
 1833 004c 80FF0000 		.word	65408
 1834 0050 99FF0000 		.word	65433
 1835 0054 B2FF0000 		.word	65458
 1836 0058 CCFF0000 		.word	65484
 1837 005c E5FF0000 		.word	65509
 1838 0060 00000000 		.word	0
 1839 0064 00005500 		.word	5570560
 1840 0068 0000AA00 		.word	11141120
 1841 006c 0000FF00 		.word	16711680
 1842 0070 55000000 		.word	85
 1843 0074 55005500 		.word	5570645
 1844 0078 5500AA00 		.word	11141205
 1845 007c 5500FF00 		.word	16711765
 1846 0080 AA000000 		.word	170
 1847 0084 AA005500 		.word	5570730
 1848 0088 AA00AA00 		.word	11141290
 1849 008c AA00FF00 		.word	16711850
 1850 0090 FF000000 		.word	255
 1851 0094 FF005500 		.word	5570815
 1852 0098 FF00AA00 		.word	11141375
 1853 009c FF00FF00 		.word	16711935
 1854 00a0 00550000 		.word	21760
 1855 00a4 00555500 		.word	5592320
 1856 00a8 0055AA00 		.word	11162880
 1857 00ac 0055FF00 		.word	16733440
 1858 00b0 55550000 		.word	21845
 1859 00b4 55555500 		.word	5592405
 1860 00b8 5555AA00 		.word	11162965
 1861 00bc 5555FF00 		.word	16733525
 1862 00c0 AA550000 		.word	21930
 1863 00c4 AA555500 		.word	5592490
ARM GAS  C:\Users\matij\AppData\Local\Temp\ccfrwtxb.s 			page 56


 1864 00c8 AA55AA00 		.word	11163050
 1865 00cc AA55FF00 		.word	16733610
 1866 00d0 FF550000 		.word	22015
 1867 00d4 FF555500 		.word	5592575
 1868 00d8 FF55AA00 		.word	11163135
 1869 00dc FF55FF00 		.word	16733695
 1870 00e0 00AA0000 		.word	43520
 1871 00e4 00AA5500 		.word	5614080
 1872 00e8 00AAAA00 		.word	11184640
 1873 00ec 00AAFF00 		.word	16755200
 1874 00f0 55AA0000 		.word	43605
 1875 00f4 55AA5500 		.word	5614165
 1876 00f8 55AAAA00 		.word	11184725
 1877 00fc 55AAFF00 		.word	16755285
 1878 0100 AAAA0000 		.word	43690
 1879 0104 AAAA5500 		.word	5614250
 1880 0108 AAAAAA00 		.word	11184810
 1881 010c AAAAFF00 		.word	16755370
 1882 0110 FFAA0000 		.word	43775
 1883 0114 FFAA5500 		.word	5614335
 1884 0118 FFAAAA00 		.word	11184895
 1885 011c FFAAFF00 		.word	16755455
 1886 0120 00FF0000 		.word	65280
 1887 0124 00FF5500 		.word	5635840
 1888 0128 00FFAA00 		.word	11206400
 1889 012c 00FFFF00 		.word	16776960
 1890 0130 55FF0000 		.word	65365
 1891 0134 55FF5500 		.word	5635925
 1892 0138 55FFAA00 		.word	11206485
 1893 013c 55FFFF00 		.word	16777045
 1894 0140 AAFF0000 		.word	65450
 1895 0144 AAFF5500 		.word	5636010
 1896 0148 AAFFAA00 		.word	11206570
 1897 014c AAFFFF00 		.word	16777130
 1898 0150 FFFF0000 		.word	65535
 1899 0154 FFFF5500 		.word	5636095
 1900 0158 FFFFAA00 		.word	11206655
 1901 015c FFFFFF00 		.word	16777215
 1902 0160 FF800000 		.word	33023
 1903 0164 FF008000 		.word	8388863
 1904 0168 FF00FF00 		.word	16711935
 1905 016c 8000FF00 		.word	16711808
 1906 0170 0080FF00 		.word	16744448
 1907 0174 00FF8000 		.word	8453888
 1908 0178 FF000000 		.word	255
 1909 017c 20202000 		.word	2105376
 1910 0180 00002000 		.word	2097152
 1911 0184 00000010 		.word	268435456
 1912 0188 00000000 		.word	0
 1913 018c 00000000 		.word	0
 1914 0190 00000000 		.word	0
 1915 0194 00000000 		.word	0
 1916 0198 00000000 		.word	0
 1917 019c 00000000 		.word	0
 1918 01a0 0000FF00 		.word	16711680
 1919 01a4 0010F000 		.word	15732736
 1920 01a8 0020E000 		.word	14688256
ARM GAS  C:\Users\matij\AppData\Local\Temp\ccfrwtxb.s 			page 57


 1921 01ac 0030D000 		.word	13643776
 1922 01b0 0040C000 		.word	12599296
 1923 01b4 0050B000 		.word	11554816
 1924 01b8 0060A000 		.word	10510336
 1925 01bc 00709000 		.word	9465856
 1926 01c0 00808000 		.word	8421376
 1927 01c4 00907000 		.word	7376896
 1928 01c8 00A06000 		.word	6332416
 1929 01cc 00B05000 		.word	5287936
 1930 01d0 00C04000 		.word	4243456
 1931 01d4 00D03000 		.word	3198976
 1932 01d8 00E02000 		.word	2154496
 1933 01dc 00FF0000 		.word	65280
 1934              		.type	gamma, %object
 1935              		.size	gamma, 256
 1936              	gamma:
 1937 01e0 00       		.byte	0
 1938 01e1 00       		.byte	0
 1939 01e2 00       		.byte	0
 1940 01e3 00       		.byte	0
 1941 01e4 00       		.byte	0
 1942 01e5 00       		.byte	0
 1943 01e6 00       		.byte	0
 1944 01e7 00       		.byte	0
 1945 01e8 00       		.byte	0
 1946 01e9 00       		.byte	0
 1947 01ea 00       		.byte	0
 1948 01eb 00       		.byte	0
 1949 01ec 00       		.byte	0
 1950 01ed 00       		.byte	0
 1951 01ee 00       		.byte	0
 1952 01ef 00       		.byte	0
 1953 01f0 00       		.byte	0
 1954 01f1 00       		.byte	0
 1955 01f2 00       		.byte	0
 1956 01f3 00       		.byte	0
 1957 01f4 00       		.byte	0
 1958 01f5 00       		.byte	0
 1959 01f6 00       		.byte	0
 1960 01f7 00       		.byte	0
 1961 01f8 00       		.byte	0
 1962 01f9 00       		.byte	0
 1963 01fa 00       		.byte	0
 1964 01fb 00       		.byte	0
 1965 01fc 01       		.byte	1
 1966 01fd 01       		.byte	1
 1967 01fe 01       		.byte	1
 1968 01ff 01       		.byte	1
 1969 0200 01       		.byte	1
 1970 0201 01       		.byte	1
 1971 0202 01       		.byte	1
 1972 0203 01       		.byte	1
 1973 0204 01       		.byte	1
 1974 0205 01       		.byte	1
 1975 0206 01       		.byte	1
 1976 0207 01       		.byte	1
 1977 0208 01       		.byte	1
ARM GAS  C:\Users\matij\AppData\Local\Temp\ccfrwtxb.s 			page 58


 1978 0209 02       		.byte	2
 1979 020a 02       		.byte	2
 1980 020b 02       		.byte	2
 1981 020c 02       		.byte	2
 1982 020d 02       		.byte	2
 1983 020e 02       		.byte	2
 1984 020f 02       		.byte	2
 1985 0210 02       		.byte	2
 1986 0211 03       		.byte	3
 1987 0212 03       		.byte	3
 1988 0213 03       		.byte	3
 1989 0214 03       		.byte	3
 1990 0215 03       		.byte	3
 1991 0216 03       		.byte	3
 1992 0217 03       		.byte	3
 1993 0218 04       		.byte	4
 1994 0219 04       		.byte	4
 1995 021a 04       		.byte	4
 1996 021b 04       		.byte	4
 1997 021c 04       		.byte	4
 1998 021d 05       		.byte	5
 1999 021e 05       		.byte	5
 2000 021f 05       		.byte	5
 2001 0220 05       		.byte	5
 2002 0221 06       		.byte	6
 2003 0222 06       		.byte	6
 2004 0223 06       		.byte	6
 2005 0224 06       		.byte	6
 2006 0225 07       		.byte	7
 2007 0226 07       		.byte	7
 2008 0227 07       		.byte	7
 2009 0228 07       		.byte	7
 2010 0229 08       		.byte	8
 2011 022a 08       		.byte	8
 2012 022b 08       		.byte	8
 2013 022c 09       		.byte	9
 2014 022d 09       		.byte	9
 2015 022e 09       		.byte	9
 2016 022f 0A       		.byte	10
 2017 0230 0A       		.byte	10
 2018 0231 0A       		.byte	10
 2019 0232 0B       		.byte	11
 2020 0233 0B       		.byte	11
 2021 0234 0B       		.byte	11
 2022 0235 0C       		.byte	12
 2023 0236 0C       		.byte	12
 2024 0237 0D       		.byte	13
 2025 0238 0D       		.byte	13
 2026 0239 0D       		.byte	13
 2027 023a 0E       		.byte	14
 2028 023b 0E       		.byte	14
 2029 023c 0F       		.byte	15
 2030 023d 0F       		.byte	15
 2031 023e 10       		.byte	16
 2032 023f 10       		.byte	16
 2033 0240 11       		.byte	17
 2034 0241 11       		.byte	17
ARM GAS  C:\Users\matij\AppData\Local\Temp\ccfrwtxb.s 			page 59


 2035 0242 12       		.byte	18
 2036 0243 12       		.byte	18
 2037 0244 13       		.byte	19
 2038 0245 13       		.byte	19
 2039 0246 14       		.byte	20
 2040 0247 14       		.byte	20
 2041 0248 15       		.byte	21
 2042 0249 15       		.byte	21
 2043 024a 16       		.byte	22
 2044 024b 16       		.byte	22
 2045 024c 17       		.byte	23
 2046 024d 18       		.byte	24
 2047 024e 18       		.byte	24
 2048 024f 19       		.byte	25
 2049 0250 19       		.byte	25
 2050 0251 1A       		.byte	26
 2051 0252 1B       		.byte	27
 2052 0253 1B       		.byte	27
 2053 0254 1C       		.byte	28
 2054 0255 1D       		.byte	29
 2055 0256 1D       		.byte	29
 2056 0257 1E       		.byte	30
 2057 0258 1F       		.byte	31
 2058 0259 20       		.byte	32
 2059 025a 20       		.byte	32
 2060 025b 21       		.byte	33
 2061 025c 22       		.byte	34
 2062 025d 23       		.byte	35
 2063 025e 23       		.byte	35
 2064 025f 24       		.byte	36
 2065 0260 25       		.byte	37
 2066 0261 26       		.byte	38
 2067 0262 27       		.byte	39
 2068 0263 27       		.byte	39
 2069 0264 28       		.byte	40
 2070 0265 29       		.byte	41
 2071 0266 2A       		.byte	42
 2072 0267 2B       		.byte	43
 2073 0268 2C       		.byte	44
 2074 0269 2D       		.byte	45
 2075 026a 2E       		.byte	46
 2076 026b 2F       		.byte	47
 2077 026c 30       		.byte	48
 2078 026d 31       		.byte	49
 2079 026e 32       		.byte	50
 2080 026f 32       		.byte	50
 2081 0270 33       		.byte	51
 2082 0271 34       		.byte	52
 2083 0272 36       		.byte	54
 2084 0273 37       		.byte	55
 2085 0274 38       		.byte	56
 2086 0275 39       		.byte	57
 2087 0276 3A       		.byte	58
 2088 0277 3B       		.byte	59
 2089 0278 3C       		.byte	60
 2090 0279 3D       		.byte	61
 2091 027a 3E       		.byte	62
ARM GAS  C:\Users\matij\AppData\Local\Temp\ccfrwtxb.s 			page 60


 2092 027b 3F       		.byte	63
 2093 027c 40       		.byte	64
 2094 027d 42       		.byte	66
 2095 027e 43       		.byte	67
 2096 027f 44       		.byte	68
 2097 0280 45       		.byte	69
 2098 0281 46       		.byte	70
 2099 0282 48       		.byte	72
 2100 0283 49       		.byte	73
 2101 0284 4A       		.byte	74
 2102 0285 4B       		.byte	75
 2103 0286 4D       		.byte	77
 2104 0287 4E       		.byte	78
 2105 0288 4F       		.byte	79
 2106 0289 51       		.byte	81
 2107 028a 52       		.byte	82
 2108 028b 53       		.byte	83
 2109 028c 55       		.byte	85
 2110 028d 56       		.byte	86
 2111 028e 57       		.byte	87
 2112 028f 59       		.byte	89
 2113 0290 5A       		.byte	90
 2114 0291 5C       		.byte	92
 2115 0292 5D       		.byte	93
 2116 0293 5F       		.byte	95
 2117 0294 60       		.byte	96
 2118 0295 62       		.byte	98
 2119 0296 63       		.byte	99
 2120 0297 65       		.byte	101
 2121 0298 66       		.byte	102
 2122 0299 68       		.byte	104
 2123 029a 69       		.byte	105
 2124 029b 6B       		.byte	107
 2125 029c 6D       		.byte	109
 2126 029d 6E       		.byte	110
 2127 029e 70       		.byte	112
 2128 029f 72       		.byte	114
 2129 02a0 73       		.byte	115
 2130 02a1 75       		.byte	117
 2131 02a2 77       		.byte	119
 2132 02a3 78       		.byte	120
 2133 02a4 7A       		.byte	122
 2134 02a5 7C       		.byte	124
 2135 02a6 7E       		.byte	126
 2136 02a7 7F       		.byte	127
 2137 02a8 81       		.byte	-127
 2138 02a9 83       		.byte	-125
 2139 02aa 85       		.byte	-123
 2140 02ab 87       		.byte	-121
 2141 02ac 89       		.byte	-119
 2142 02ad 8A       		.byte	-118
 2143 02ae 8C       		.byte	-116
 2144 02af 8E       		.byte	-114
 2145 02b0 90       		.byte	-112
 2146 02b1 92       		.byte	-110
 2147 02b2 94       		.byte	-108
 2148 02b3 96       		.byte	-106
ARM GAS  C:\Users\matij\AppData\Local\Temp\ccfrwtxb.s 			page 61


 2149 02b4 98       		.byte	-104
 2150 02b5 9A       		.byte	-102
 2151 02b6 9C       		.byte	-100
 2152 02b7 9E       		.byte	-98
 2153 02b8 A0       		.byte	-96
 2154 02b9 A2       		.byte	-94
 2155 02ba A4       		.byte	-92
 2156 02bb A7       		.byte	-89
 2157 02bc A9       		.byte	-87
 2158 02bd AB       		.byte	-85
 2159 02be AD       		.byte	-83
 2160 02bf AF       		.byte	-81
 2161 02c0 B1       		.byte	-79
 2162 02c1 B4       		.byte	-76
 2163 02c2 B6       		.byte	-74
 2164 02c3 B8       		.byte	-72
 2165 02c4 BA       		.byte	-70
 2166 02c5 BD       		.byte	-67
 2167 02c6 BF       		.byte	-65
 2168 02c7 C1       		.byte	-63
 2169 02c8 C4       		.byte	-60
 2170 02c9 C6       		.byte	-58
 2171 02ca C8       		.byte	-56
 2172 02cb CB       		.byte	-53
 2173 02cc CD       		.byte	-51
 2174 02cd D0       		.byte	-48
 2175 02ce D2       		.byte	-46
 2176 02cf D5       		.byte	-43
 2177 02d0 D7       		.byte	-41
 2178 02d1 DA       		.byte	-38
 2179 02d2 DC       		.byte	-36
 2180 02d3 DF       		.byte	-33
 2181 02d4 E1       		.byte	-31
 2182 02d5 E4       		.byte	-28
 2183 02d6 E7       		.byte	-25
 2184 02d7 E9       		.byte	-23
 2185 02d8 EC       		.byte	-20
 2186 02d9 EF       		.byte	-17
 2187 02da F1       		.byte	-15
 2188 02db F4       		.byte	-12
 2189 02dc F7       		.byte	-9
 2190 02dd F9       		.byte	-7
 2191 02de FC       		.byte	-4
 2192 02df FF       		.byte	-1
 2193              		.data
 2194              		.align	2
 2195              		.set	.LANCHOR2,. + 0
 2196              		.type	StripLights_Green_Shift, %object
 2197              		.size	StripLights_Green_Shift, 4
 2198              	StripLights_Green_Shift:
 2199 0000 08000000 		.word	8
 2200              		.type	StripLights_Blue_Shift, %object
 2201              		.size	StripLights_Blue_Shift, 4
 2202              	StripLights_Blue_Shift:
 2203 0004 10000000 		.word	16
 2204              		.bss
 2205              		.align	2
ARM GAS  C:\Users\matij\AppData\Local\Temp\ccfrwtxb.s 			page 62


 2206              		.set	.LANCHOR0,. + 0
 2207              		.type	colorIndex.7250, %object
 2208              		.size	colorIndex.7250, 4
 2209              	colorIndex.7250:
 2210 0000 00000000 		.space	4
 2211              		.type	StripLights_Red_Shift, %object
 2212              		.size	StripLights_Red_Shift, 4
 2213              	StripLights_Red_Shift:
 2214 0004 00000000 		.space	4
 2215              		.type	StripLights_initvar, %object
 2216              		.size	StripLights_initvar, 1
 2217              	StripLights_initvar:
 2218 0008 00       		.space	1
 2219 0009 000000   		.space	3
 2220              		.type	StripLights_row, %object
 2221              		.size	StripLights_row, 4
 2222              	StripLights_row:
 2223 000c 00000000 		.space	4
 2224              		.type	StripLights_ledIndex, %object
 2225              		.size	StripLights_ledIndex, 4
 2226              	StripLights_ledIndex:
 2227 0010 00000000 		.space	4
 2228              		.text
 2229              	.Letext0:
 2230              		.file 2 "c:\\program files (x86)\\cypress\\psoc creator\\4.2\\psoc creator\\import\\gnu\\arm\\5.4.
 2231              		.file 3 "c:\\program files (x86)\\cypress\\psoc creator\\4.2\\psoc creator\\import\\gnu\\arm\\5.4.
 2232              		.file 4 "Generated_Source\\PSoC5/cytypes.h"
 2233              		.file 5 "Generated_Source\\PSoC5/StripLights.h"
 2234              		.file 6 "Generated_Source\\PSoC5/BCom_1_BCom.h"
 2235              		.file 7 "Generated_Source\\PSoC5/BCom_1_checksum.h"
 2236              		.file 8 "Generated_Source\\PSoC5/core_cm3.h"
 2237              		.file 9 "Generated_Source\\PSoC5\\StripLights_fonts.h"
 2238              		.file 10 "Generated_Source\\PSoC5/StripLights_cisr.h"
 2239              		.file 11 "Generated_Source\\PSoC5/StripLights_fisr.h"
 2240              		.file 12 "Generated_Source\\PSoC5/CyLib.h"