ARM GAS  C:\Users\matij\AppData\Local\Temp\ccfrwtxb.s 			page 1


   1              		.syntax unified
   2              		.cpu cortex-m3
   3              		.fpu softvfp
   4              		.eabi_attribute 20, 1
   5              		.eabi_attribute 21, 1
   6              		.eabi_attribute 23, 3
   7              		.eabi_attribute 24, 1
   8              		.eabi_attribute 25, 1
   9              		.eabi_attribute 26, 1
  10              		.eabi_attribute 30, 4
  11              		.eabi_attribute 34, 1
  12              		.eabi_attribute 18, 4
  13              		.thumb
  14              		.syntax unified
  15              		.file	"StripLights.c"
  16              		.text
  17              	.Ltext0:
  18              		.cfi_sections	.debug_frame
  19              		.section	.text.StripLights_Ready,"ax",%progbits
  20              		.align	1
  21              		.global	StripLights_Ready
  22              		.thumb
  23              		.thumb_func
  24              		.type	StripLights_Ready, %function
  25              	StripLights_Ready:
  26              	.LFB66:
  27              		.file 1 "Generated_Source\\PSoC5\\StripLights.c"
   1:Generated_Source\PSoC5/StripLights.c **** /* =========================================================
   2:Generated_Source\PSoC5/StripLights.c ****  *
   3:Generated_Source\PSoC5/StripLights.c ****  * Strip Light Controller
   4:Generated_Source\PSoC5/StripLights.c ****  * By Mark Hastings
   5:Generated_Source\PSoC5/StripLights.c ****  *
   6:Generated_Source\PSoC5/StripLights.c ****  * 05/27/2013  v1.0  Mark Hastings   Initial working version
   7:Generated_Source\PSoC5/StripLights.c ****  * 09/04/2013  v1.3  Mark Hastings   Add more features and color lookup.
   8:Generated_Source\PSoC5/StripLights.c ****  * 12/02/2013  v1.6  Mark Hastings   Added a couple more functions.
   9:Generated_Source\PSoC5/StripLights.c ****  *
  10:Generated_Source\PSoC5/StripLights.c ****  * This file contains the functions required to control each
  11:Generated_Source\PSoC5/StripLights.c ****  * lighting control channel.
  12:Generated_Source\PSoC5/StripLights.c ****  *
  13:Generated_Source\PSoC5/StripLights.c ****  * =========================================================
  14:Generated_Source\PSoC5/StripLights.c **** */
  15:Generated_Source\PSoC5/StripLights.c **** 
  16:Generated_Source\PSoC5/StripLights.c **** #include <project.h>
  17:Generated_Source\PSoC5/StripLights.c **** #include "cytypes.h"
  18:Generated_Source\PSoC5/StripLights.c **** #include "stdlib.h"
  19:Generated_Source\PSoC5/StripLights.c **** #include "cyfitter.h"
  20:Generated_Source\PSoC5/StripLights.c **** #include "StripLights.h"
  21:Generated_Source\PSoC5/StripLights.c **** #include "StripLights_fonts.h"
  22:Generated_Source\PSoC5/StripLights.c **** 
  23:Generated_Source\PSoC5/StripLights.c **** uint8  StripLights_initvar = 0;
  24:Generated_Source\PSoC5/StripLights.c **** 
  25:Generated_Source\PSoC5/StripLights.c **** #if(StripLights_MEMORY_TYPE == StripLights_MEMORY_RGB)
  26:Generated_Source\PSoC5/StripLights.c **** uint32  StripLights_ledArray[StripLights_ARRAY_ROWS][StripLights_ARRAY_COLS];
  27:Generated_Source\PSoC5/StripLights.c **** #else
  28:Generated_Source\PSoC5/StripLights.c **** uint8   StripLights_ledArray[StripLights_ARRAY_ROWS][StripLights_ARRAY_COLS];
  29:Generated_Source\PSoC5/StripLights.c **** #endif
  30:Generated_Source\PSoC5/StripLights.c **** 
ARM GAS  C:\Users\matij\AppData\Local\Temp\ccfrwtxb.s 			page 2


  31:Generated_Source\PSoC5/StripLights.c **** uint32  StripLights_ledIndex = 0;  
  32:Generated_Source\PSoC5/StripLights.c **** uint32  StripLights_row = 0;
  33:Generated_Source\PSoC5/StripLights.c **** uint32  StripLights_refreshComplete;
  34:Generated_Source\PSoC5/StripLights.c **** 
  35:Generated_Source\PSoC5/StripLights.c **** uint32  StripLights_DimMask;
  36:Generated_Source\PSoC5/StripLights.c **** uint32  StripLights_DimShift;
  37:Generated_Source\PSoC5/StripLights.c **** 
  38:Generated_Source\PSoC5/StripLights.c **** uint32 StripLights_Red_Shift = 0;
  39:Generated_Source\PSoC5/StripLights.c **** uint32 StripLights_Green_Shift = 8;
  40:Generated_Source\PSoC5/StripLights.c **** uint32 StripLights_Blue_Shift = 16;
  41:Generated_Source\PSoC5/StripLights.c **** 
  42:Generated_Source\PSoC5/StripLights.c **** #if(StripLights_CHIP == StripLights_CHIP_WS2812)
  43:Generated_Source\PSoC5/StripLights.c **** const uint32 StripLights_CLUT[ ] = {
  44:Generated_Source\PSoC5/StripLights.c **** //xxBBRRGG (WS2812)
  45:Generated_Source\PSoC5/StripLights.c **** //     (24)   [ Index = 0 ]
  46:Generated_Source\PSoC5/StripLights.c **** 0x0000FFFF,  // 0 Yellow
  47:Generated_Source\PSoC5/StripLights.c **** 0x0000CCFF,
  48:Generated_Source\PSoC5/StripLights.c **** 0x000099FF,
  49:Generated_Source\PSoC5/StripLights.c **** 0x000033FF,
  50:Generated_Source\PSoC5/StripLights.c **** 0x000000FF,  // 5  Green
  51:Generated_Source\PSoC5/StripLights.c **** 0x006600B3,
  52:Generated_Source\PSoC5/StripLights.c **** 0x00990099, 
  53:Generated_Source\PSoC5/StripLights.c **** 0x00B30066, 
  54:Generated_Source\PSoC5/StripLights.c **** 0x00CC0033,  // 9 Blue
  55:Generated_Source\PSoC5/StripLights.c **** 0x00B31919, 
  56:Generated_Source\PSoC5/StripLights.c **** 0x00993300, 
  57:Generated_Source\PSoC5/StripLights.c **** 0x00994000, 
  58:Generated_Source\PSoC5/StripLights.c **** 0x00996600, 
  59:Generated_Source\PSoC5/StripLights.c **** 0x00999900, 
  60:Generated_Source\PSoC5/StripLights.c **** 0x0099CC00, 
  61:Generated_Source\PSoC5/StripLights.c **** 0x0066E600, 
  62:Generated_Source\PSoC5/StripLights.c **** 0x0000FF00, 
  63:Generated_Source\PSoC5/StripLights.c **** 0x0000FF33, 
  64:Generated_Source\PSoC5/StripLights.c **** 0x0000FF66, 
  65:Generated_Source\PSoC5/StripLights.c **** 0x0000FF80, 
  66:Generated_Source\PSoC5/StripLights.c **** 0x0000FF99,  // 20 Orange
  67:Generated_Source\PSoC5/StripLights.c **** 0x0000FFB2, 
  68:Generated_Source\PSoC5/StripLights.c **** 0x0000FFCC, 
  69:Generated_Source\PSoC5/StripLights.c **** 0x0000FFE5,
  70:Generated_Source\PSoC5/StripLights.c **** // #24
  71:Generated_Source\PSoC5/StripLights.c **** 
  72:Generated_Source\PSoC5/StripLights.c **** //xxBBRRGG  (64)  [ Index = 24 ]
  73:Generated_Source\PSoC5/StripLights.c **** 0x00000000, 0x00550000, 0x00AA0000, 0x00FF0000,  // 0, Black,  LtBlue, MBlue, Blue
  74:Generated_Source\PSoC5/StripLights.c **** 0x00000055, 0x00550055, 0x00AA0055, 0x00FF0055,  // 4, LtGreen
  75:Generated_Source\PSoC5/StripLights.c **** 0x000000AA, 0x005500AA, 0x00AA00AA, 0x00FF00AA,  // 8, MGreen
  76:Generated_Source\PSoC5/StripLights.c **** 0x000000FF, 0x005500FF, 0x00AA00FF, 0x00FF00FF,  // 12 Green
  77:Generated_Source\PSoC5/StripLights.c **** 
  78:Generated_Source\PSoC5/StripLights.c **** 0x00005500, 0x00555500, 0x00AA5500, 0x00FF5500,  // 16, LtRed
  79:Generated_Source\PSoC5/StripLights.c **** 0x00005555, 0x00555555, 0x00AA5555, 0x00FF5555,  // 20, LtYellow
  80:Generated_Source\PSoC5/StripLights.c **** 0x000055AA, 0x005555AA, 0x00AA55AA, 0x00FF55AA,  // 24, 
  81:Generated_Source\PSoC5/StripLights.c **** 0x000055FF, 0x005555FF, 0x00AA55FF, 0x00FF55FF,  // 28,
  82:Generated_Source\PSoC5/StripLights.c **** 
  83:Generated_Source\PSoC5/StripLights.c **** 0x0000AA00, 0x0055AA00, 0x00AAAA00, 0x00FFAA00,  // 32, MRed
  84:Generated_Source\PSoC5/StripLights.c **** 0x0000AA55, 0x0055AA55, 0x00AAAA55, 0x00FFAA55,  // 36, 
  85:Generated_Source\PSoC5/StripLights.c **** 0x0000AAAA, 0x0055AAAA, 0x00AAAAAA, 0x00FFAAAA,  // 55, 
  86:Generated_Source\PSoC5/StripLights.c **** 0x0000AAFF, 0x0055AAFF, 0x00AAAAFF, 0x00FFAAFF,  // 44, 
  87:Generated_Source\PSoC5/StripLights.c **** 
ARM GAS  C:\Users\matij\AppData\Local\Temp\ccfrwtxb.s 			page 3


  88:Generated_Source\PSoC5/StripLights.c **** 0x0000FF00, 0x0055FF00, 0x00AAFF00, 0x00FFFF00,  // 48, Red, ??, ??, Magenta
  89:Generated_Source\PSoC5/StripLights.c **** 0x0000FF55, 0x0055FF55, 0x00AAFF55, 0x00FFFF55,  // 52,
  90:Generated_Source\PSoC5/StripLights.c **** 0x0000FFAA, 0x0055FFAA, 0x00AAFFAA, 0x00FFFFAA,  // 56,
  91:Generated_Source\PSoC5/StripLights.c **** 0x0000FFFF, 0x0055FFFF, 0x00AAFFFF, 0x00FFFFFF,  // 60, Yellow,??, ??, White
  92:Generated_Source\PSoC5/StripLights.c **** 
  93:Generated_Source\PSoC5/StripLights.c **** // Misc ( 16 )  [ Index = 88 ]
  94:Generated_Source\PSoC5/StripLights.c **** 0x000080FF,  // SPRING_GREEN
  95:Generated_Source\PSoC5/StripLights.c **** 0x008000FF,  // TURQUOSE
  96:Generated_Source\PSoC5/StripLights.c **** 0x00FF00FF,  // CYAN
  97:Generated_Source\PSoC5/StripLights.c **** 0x00FF0080,  // OCEAN
  98:Generated_Source\PSoC5/StripLights.c **** 0x00FF8000,  // VIOLET
  99:Generated_Source\PSoC5/StripLights.c **** 0x0080FF00,  // RASPBERRY
 100:Generated_Source\PSoC5/StripLights.c **** 0x000000FF,  // GREEN
 101:Generated_Source\PSoC5/StripLights.c **** 0x00202020,  // DIM WHITE
 102:Generated_Source\PSoC5/StripLights.c **** 0x00200000,  // DIM BLUE
 103:Generated_Source\PSoC5/StripLights.c **** 0x10000000,  // INVISIBLE
 104:Generated_Source\PSoC5/StripLights.c **** 0x00000000,  // Spare
 105:Generated_Source\PSoC5/StripLights.c **** 0x00000000,  // Spare
 106:Generated_Source\PSoC5/StripLights.c **** 0x00000000,  // Spare
 107:Generated_Source\PSoC5/StripLights.c **** 0x00000000,  // Spare
 108:Generated_Source\PSoC5/StripLights.c **** 0x00000000,  // Spare
 109:Generated_Source\PSoC5/StripLights.c **** 0x00000000,  // Spare
 110:Generated_Source\PSoC5/StripLights.c **** 
 111:Generated_Source\PSoC5/StripLights.c **** // Temperture Color Blue to Red (16) [ Index = 104 ]
 112:Generated_Source\PSoC5/StripLights.c **** 0x00FF0000, 0x00F01000, 0x00E02000, 0x00D03000,
 113:Generated_Source\PSoC5/StripLights.c **** 0x00C04000, 0x00B05000, 0x00A06000, 0x00907000,
 114:Generated_Source\PSoC5/StripLights.c **** 0x00808000, 0x00709000, 0x0060A000, 0x0050B000,
 115:Generated_Source\PSoC5/StripLights.c **** 0x0040C000, 0x0030D000, 0x0020E000, 0x0000FF00
 116:Generated_Source\PSoC5/StripLights.c **** };
 117:Generated_Source\PSoC5/StripLights.c **** #else  //xxBBGGRR (WS2811)
 118:Generated_Source\PSoC5/StripLights.c **** const uint32 StripLights_CLUT[ ] = {
 119:Generated_Source\PSoC5/StripLights.c **** //     (24)   [ Index = 0 ]
 120:Generated_Source\PSoC5/StripLights.c **** 0x0000FFFF,  // 0 Yellow
 121:Generated_Source\PSoC5/StripLights.c **** 0x0000FFCC,
 122:Generated_Source\PSoC5/StripLights.c **** 0x0000FF99,
 123:Generated_Source\PSoC5/StripLights.c **** 0x0000FF33,
 124:Generated_Source\PSoC5/StripLights.c **** 0x0000FF00,  // 5  Green
 125:Generated_Source\PSoC5/StripLights.c **** 0x0066B300,
 126:Generated_Source\PSoC5/StripLights.c **** 0x00999900, 
 127:Generated_Source\PSoC5/StripLights.c **** 0x00B36600, 
 128:Generated_Source\PSoC5/StripLights.c **** 0x00CC3300,  // 9 Blue
 129:Generated_Source\PSoC5/StripLights.c **** 0x00B31919, 
 130:Generated_Source\PSoC5/StripLights.c **** 0x00990033, 
 131:Generated_Source\PSoC5/StripLights.c **** 0x00990040, 
 132:Generated_Source\PSoC5/StripLights.c **** 0x00990066, 
 133:Generated_Source\PSoC5/StripLights.c **** 0x00990099, 
 134:Generated_Source\PSoC5/StripLights.c **** 0x009900CC, 
 135:Generated_Source\PSoC5/StripLights.c **** 0x006600E6, 
 136:Generated_Source\PSoC5/StripLights.c **** 0x000000FF, 
 137:Generated_Source\PSoC5/StripLights.c **** 0x000033FF, 
 138:Generated_Source\PSoC5/StripLights.c **** 0x000066FF, 
 139:Generated_Source\PSoC5/StripLights.c **** 0x000080FF, 
 140:Generated_Source\PSoC5/StripLights.c **** 0x000099FF,  // 20 Orange
 141:Generated_Source\PSoC5/StripLights.c **** 0x0000B2FF, 
 142:Generated_Source\PSoC5/StripLights.c **** 0x0000CCFF, 
 143:Generated_Source\PSoC5/StripLights.c **** 0x0000E5FF,
 144:Generated_Source\PSoC5/StripLights.c **** // #24
ARM GAS  C:\Users\matij\AppData\Local\Temp\ccfrwtxb.s 			page 4


 145:Generated_Source\PSoC5/StripLights.c **** 
 146:Generated_Source\PSoC5/StripLights.c **** //xxBBRRGG  (64)  [ Index = 24 ]
 147:Generated_Source\PSoC5/StripLights.c **** 0x00000000, 0x00550000, 0x00AA0000, 0x00FF0000,  // 0, Black,  LtBlue, MBlue, Blue
 148:Generated_Source\PSoC5/StripLights.c **** 0x00005500, 0x00555500, 0x00AA5500, 0x00FF5500,  // 4, LtGreen
 149:Generated_Source\PSoC5/StripLights.c **** 0x0000AA00, 0x0055AA00, 0x00AAAA00, 0x00FFAA00,  // 8, MGreen
 150:Generated_Source\PSoC5/StripLights.c **** 0x0000FF00, 0x0055FF00, 0x00AAFF00, 0x00FFFF00,  // 12 Green
 151:Generated_Source\PSoC5/StripLights.c **** 
 152:Generated_Source\PSoC5/StripLights.c **** 0x00000055, 0x00550055, 0x00AA0055, 0x00FF0055,  // 16, LtRed
 153:Generated_Source\PSoC5/StripLights.c **** 0x00005555, 0x00555555, 0x00AA5555, 0x00FF5555,  // 20, LtYellow
 154:Generated_Source\PSoC5/StripLights.c **** 0x0000AA55, 0x0055AA55, 0x00AAAA55, 0x00FFAA55,  // 24, 
 155:Generated_Source\PSoC5/StripLights.c **** 0x0000FF55, 0x0055FF55, 0x00AAFF55, 0x00FFFF55,  // 28,
 156:Generated_Source\PSoC5/StripLights.c **** 
 157:Generated_Source\PSoC5/StripLights.c **** 0x000000AA, 0x005500AA, 0x00AA00AA, 0x00FF00AA,  // 32, MRed
 158:Generated_Source\PSoC5/StripLights.c **** 0x000055AA, 0x005555AA, 0x00AA55AA, 0x00FF55AA,  // 36, 
 159:Generated_Source\PSoC5/StripLights.c **** 0x0000AAAA, 0x0055AAAA, 0x00AAAAAA, 0x00FFAAAA,  // 55, 
 160:Generated_Source\PSoC5/StripLights.c **** 0x0000FFAA, 0x0055FFAA, 0x00AAFFAA, 0x00FFFFAA,  // 44, 
 161:Generated_Source\PSoC5/StripLights.c **** 
 162:Generated_Source\PSoC5/StripLights.c **** 0x000000FF, 0x005500FF, 0x00AA00FF, 0x00F00FFF,  // 48, Red, ??, ??, Magenta
 163:Generated_Source\PSoC5/StripLights.c **** 0x000055FF, 0x005555FF, 0x00AA55FF, 0x00FF55FF,  // 52,
 164:Generated_Source\PSoC5/StripLights.c **** 0x0000AAFF, 0x0055AAFF, 0x00AAAAFF, 0x00FFAAFF,  // 56,
 165:Generated_Source\PSoC5/StripLights.c **** 0x0000FFFF, 0x0055FFFF, 0x00AAFFFF, 0x00FFFFFF,  // 60, Yellow,??, ??, White
 166:Generated_Source\PSoC5/StripLights.c **** 
 167:Generated_Source\PSoC5/StripLights.c **** // Misc ( 16 )  [ Index = 88 ]
 168:Generated_Source\PSoC5/StripLights.c **** 0x0000FF80,  // SPRING_GREEN
 169:Generated_Source\PSoC5/StripLights.c **** 0x0080FF00,  // TURQUOSE
 170:Generated_Source\PSoC5/StripLights.c **** 0x00FFFF00,  // CYAN
 171:Generated_Source\PSoC5/StripLights.c **** 0x00FF8000,  // OCEAN
 172:Generated_Source\PSoC5/StripLights.c **** 0x00FF0080,  // VIOLET
 173:Generated_Source\PSoC5/StripLights.c **** 0x008000FF,  // RASPBERRY
 174:Generated_Source\PSoC5/StripLights.c **** 0x0000FF00,  // GREEN
 175:Generated_Source\PSoC5/StripLights.c **** 0x00202020,  // DIM WHITE
 176:Generated_Source\PSoC5/StripLights.c **** 0x00200000,  // DIM BLUE
 177:Generated_Source\PSoC5/StripLights.c **** 0x10000000,  // INVISIBLE
 178:Generated_Source\PSoC5/StripLights.c **** 0x00000000,  // Spare
 179:Generated_Source\PSoC5/StripLights.c **** 0x00000000,  // Spare
 180:Generated_Source\PSoC5/StripLights.c **** 0x00000000,  // Spare
 181:Generated_Source\PSoC5/StripLights.c **** 0x00000000,  // Spare
 182:Generated_Source\PSoC5/StripLights.c **** 0x00000000,  // Spare
 183:Generated_Source\PSoC5/StripLights.c **** 0x00000000,  // Spare
 184:Generated_Source\PSoC5/StripLights.c **** 
 185:Generated_Source\PSoC5/StripLights.c **** // Temperture Color Blue to Red (16) [ Index = 104 ]
 186:Generated_Source\PSoC5/StripLights.c **** 0x00FF0000, 0x00F00010, 0x00E00020, 0x00D00030,
 187:Generated_Source\PSoC5/StripLights.c **** 0x00C00040, 0x00B00050, 0x00A00060, 0x00900070,
 188:Generated_Source\PSoC5/StripLights.c **** 0x00800080, 0x00700090, 0x006000A0, 0x005000B0,
 189:Generated_Source\PSoC5/StripLights.c **** 0x004000C0, 0x003000D0, 0x002000E0, 0x000000FF
 190:Generated_Source\PSoC5/StripLights.c **** };
 191:Generated_Source\PSoC5/StripLights.c **** #endif
 192:Generated_Source\PSoC5/StripLights.c **** 
 193:Generated_Source\PSoC5/StripLights.c **** // Gamma Correction Table NeoPixel / WS2812
 194:Generated_Source\PSoC5/StripLights.c **** const uint8_t CYCODE gamma[] = {
 195:Generated_Source\PSoC5/StripLights.c ****     0,  0,  0,  0,  0,  0,  0,  0,  0,  0,  0,  0,  0,  0,  0,  0,
 196:Generated_Source\PSoC5/StripLights.c ****     0,  0,  0,  0,  0,  0,  0,  0,  0,  0,  0,  0,  1,  1,  1,  1,
 197:Generated_Source\PSoC5/StripLights.c ****     1,  1,  1,  1,  1,  1,  1,  1,  1,  2,  2,  2,  2,  2,  2,  2,
 198:Generated_Source\PSoC5/StripLights.c ****     2,  3,  3,  3,  3,  3,  3,  3,  4,  4,  4,  4,  4,  5,  5,  5,
 199:Generated_Source\PSoC5/StripLights.c ****     5,  6,  6,  6,  6,  7,  7,  7,  7,  8,  8,  8,  9,  9,  9, 10,
 200:Generated_Source\PSoC5/StripLights.c ****    10, 10, 11, 11, 11, 12, 12, 13, 13, 13, 14, 14, 15, 15, 16, 16,
 201:Generated_Source\PSoC5/StripLights.c ****    17, 17, 18, 18, 19, 19, 20, 20, 21, 21, 22, 22, 23, 24, 24, 25,
ARM GAS  C:\Users\matij\AppData\Local\Temp\ccfrwtxb.s 			page 5


 202:Generated_Source\PSoC5/StripLights.c ****    25, 26, 27, 27, 28, 29, 29, 30, 31, 32, 32, 33, 34, 35, 35, 36,
 203:Generated_Source\PSoC5/StripLights.c ****    37, 38, 39, 39, 40, 41, 42, 43, 44, 45, 46, 47, 48, 49, 50, 50,
 204:Generated_Source\PSoC5/StripLights.c ****    51, 52, 54, 55, 56, 57, 58, 59, 60, 61, 62, 63, 64, 66, 67, 68,
 205:Generated_Source\PSoC5/StripLights.c ****    69, 70, 72, 73, 74, 75, 77, 78, 79, 81, 82, 83, 85, 86, 87, 89,
 206:Generated_Source\PSoC5/StripLights.c ****    90, 92, 93, 95, 96, 98, 99,101,102,104,105,107,109,110,112,114,
 207:Generated_Source\PSoC5/StripLights.c ****   115,117,119,120,122,124,126,127,129,131,133,135,137,138,140,142,
 208:Generated_Source\PSoC5/StripLights.c ****   144,146,148,150,152,154,156,158,160,162,164,167,169,171,173,175,
 209:Generated_Source\PSoC5/StripLights.c ****   177,180,182,184,186,189,191,193,196,198,200,203,205,208,210,213,
 210:Generated_Source\PSoC5/StripLights.c ****   215,218,220,223,225,228,231,233,236,239,241,244,247,249,252,255 };
 211:Generated_Source\PSoC5/StripLights.c **** 
 212:Generated_Source\PSoC5/StripLights.c **** 
 213:Generated_Source\PSoC5/StripLights.c **** 
 214:Generated_Source\PSoC5/StripLights.c **** 
 215:Generated_Source\PSoC5/StripLights.c **** /*******************************************************************************
 216:Generated_Source\PSoC5/StripLights.c **** * Function Name: StripLights_Start
 217:Generated_Source\PSoC5/StripLights.c **** ********************************************************************************
 218:Generated_Source\PSoC5/StripLights.c **** * Summary:
 219:Generated_Source\PSoC5/StripLights.c **** *  Initialize the hardware. 
 220:Generated_Source\PSoC5/StripLights.c **** *
 221:Generated_Source\PSoC5/StripLights.c **** * Parameters:  
 222:Generated_Source\PSoC5/StripLights.c **** *  void  
 223:Generated_Source\PSoC5/StripLights.c **** *
 224:Generated_Source\PSoC5/StripLights.c **** * Return: 
 225:Generated_Source\PSoC5/StripLights.c **** *  void
 226:Generated_Source\PSoC5/StripLights.c **** *
 227:Generated_Source\PSoC5/StripLights.c **** *******************************************************************************/
 228:Generated_Source\PSoC5/StripLights.c **** void StripLights_Start()
 229:Generated_Source\PSoC5/StripLights.c **** {
 230:Generated_Source\PSoC5/StripLights.c ****     extern uint8 StripLights_initvar;
 231:Generated_Source\PSoC5/StripLights.c ****     extern uint32 StripLights_refreshComplete;
 232:Generated_Source\PSoC5/StripLights.c **** 
 233:Generated_Source\PSoC5/StripLights.c ****     StripLights_UseGammaCorrection = 1;
 234:Generated_Source\PSoC5/StripLights.c ****     StripLights_ACTL0_REG = StripLights_DISABLE_FIFO;
 235:Generated_Source\PSoC5/StripLights.c ****     
 236:Generated_Source\PSoC5/StripLights.c ****     StripLights_Period   = StripLights_PERIOD-1;
 237:Generated_Source\PSoC5/StripLights.c ****     StripLights_Compare0 = StripLights_DATA_ZERO;
 238:Generated_Source\PSoC5/StripLights.c ****     StripLights_Compare1 = StripLights_DATA_ONE;
 239:Generated_Source\PSoC5/StripLights.c ****     
 240:Generated_Source\PSoC5/StripLights.c ****     StripLights_CONTROL = StripLights_ENABLE;
 241:Generated_Source\PSoC5/StripLights.c ****     StripLights_MemClear(StripLights_OFF);
 242:Generated_Source\PSoC5/StripLights.c ****     StripLights_CONTROL = StripLights_DISABLE;
 243:Generated_Source\PSoC5/StripLights.c ****     
 244:Generated_Source\PSoC5/StripLights.c ****     StripLights_SetFont( StripLights_FONT_5X7);
 245:Generated_Source\PSoC5/StripLights.c ****     
 246:Generated_Source\PSoC5/StripLights.c ****     /* Set no dimming, full brightness */
 247:Generated_Source\PSoC5/StripLights.c ****     StripLights_Dim(0); 
 248:Generated_Source\PSoC5/StripLights.c **** 
 249:Generated_Source\PSoC5/StripLights.c ****     
 250:Generated_Source\PSoC5/StripLights.c ****     if(StripLights_initvar == 0)
 251:Generated_Source\PSoC5/StripLights.c ****     {
 252:Generated_Source\PSoC5/StripLights.c **** 
 253:Generated_Source\PSoC5/StripLights.c ****         StripLights_initvar = 1;
 254:Generated_Source\PSoC5/StripLights.c ****  
 255:Generated_Source\PSoC5/StripLights.c ****          /* Start and set interrupt vector */
 256:Generated_Source\PSoC5/StripLights.c **** 
 257:Generated_Source\PSoC5/StripLights.c **** #if(StripLights_TRANSFER == StripLights_TRANSFER_ISR)
 258:Generated_Source\PSoC5/StripLights.c ****        {
ARM GAS  C:\Users\matij\AppData\Local\Temp\ccfrwtxb.s 			page 6


 259:Generated_Source\PSoC5/StripLights.c ****            StripLights_cisr_StartEx(StripLights_CISR);
 260:Generated_Source\PSoC5/StripLights.c **** 		   StripLights_fisr_StartEx(StripLights_FISR);
 261:Generated_Source\PSoC5/StripLights.c ****        }
 262:Generated_Source\PSoC5/StripLights.c **** #endif       
 263:Generated_Source\PSoC5/StripLights.c ****        if(StripLights_TRANSFER == StripLights_TRANSFER_FIRMWARE)
 264:Generated_Source\PSoC5/StripLights.c ****        {
 265:Generated_Source\PSoC5/StripLights.c ****            StripLights_CONTROL = StripLights_ENABLE;    
 266:Generated_Source\PSoC5/StripLights.c ****        }
 267:Generated_Source\PSoC5/StripLights.c ****     }
 268:Generated_Source\PSoC5/StripLights.c ****     StripLights_refreshComplete = 1;
 269:Generated_Source\PSoC5/StripLights.c **** }
 270:Generated_Source\PSoC5/StripLights.c **** 
 271:Generated_Source\PSoC5/StripLights.c **** 
 272:Generated_Source\PSoC5/StripLights.c **** /*******************************************************************************
 273:Generated_Source\PSoC5/StripLights.c **** * Function Name: StripLights_Trigger
 274:Generated_Source\PSoC5/StripLights.c **** ********************************************************************************
 275:Generated_Source\PSoC5/StripLights.c **** * Summary:
 276:Generated_Source\PSoC5/StripLights.c **** *   Update the LEDs with graphics memory.
 277:Generated_Source\PSoC5/StripLights.c **** *
 278:Generated_Source\PSoC5/StripLights.c **** * Parameters:  
 279:Generated_Source\PSoC5/StripLights.c **** *  void  
 280:Generated_Source\PSoC5/StripLights.c **** *
 281:Generated_Source\PSoC5/StripLights.c **** * Return: 
 282:Generated_Source\PSoC5/StripLights.c **** *  void
 283:Generated_Source\PSoC5/StripLights.c **** *
 284:Generated_Source\PSoC5/StripLights.c **** *******************************************************************************/
 285:Generated_Source\PSoC5/StripLights.c **** void StripLights_Trigger(uint32 rst)
 286:Generated_Source\PSoC5/StripLights.c **** {
 287:Generated_Source\PSoC5/StripLights.c ****     uint32 color;
 288:Generated_Source\PSoC5/StripLights.c ****     
 289:Generated_Source\PSoC5/StripLights.c ****     if(rst) 
 290:Generated_Source\PSoC5/StripLights.c ****     {
 291:Generated_Source\PSoC5/StripLights.c ****         StripLights_row = 0;  /* Reset the row */
 292:Generated_Source\PSoC5/StripLights.c ****         StripLights_Channel = 0;
 293:Generated_Source\PSoC5/StripLights.c ****     }
 294:Generated_Source\PSoC5/StripLights.c ****     
 295:Generated_Source\PSoC5/StripLights.c ****     #if(StripLights_MEMORY_TYPE == StripLights_MEMORY_RGB)
 296:Generated_Source\PSoC5/StripLights.c ****        color = StripLights_ledArray[StripLights_row][0];
 297:Generated_Source\PSoC5/StripLights.c ****     #else  /* Else use lookup table */
 298:Generated_Source\PSoC5/StripLights.c ****        color = StripLights_CLUT[ (StripLights_ledArray[StripLights_row][0]) ];
 299:Generated_Source\PSoC5/StripLights.c ****     #endif
 300:Generated_Source\PSoC5/StripLights.c ****     
 301:Generated_Source\PSoC5/StripLights.c ****     StripLights_WriteColor(color);
 302:Generated_Source\PSoC5/StripLights.c ****     
 303:Generated_Source\PSoC5/StripLights.c ****     StripLights_ledIndex = 1;
 304:Generated_Source\PSoC5/StripLights.c ****  //   StripLights_CONTROL = StripLights_ENABLE | StripLights_FIFO_IRQ_EN; 
 305:Generated_Source\PSoC5/StripLights.c **** 	
 306:Generated_Source\PSoC5/StripLights.c **** 	StripLights_CONTROL = StripLights_ENABLE | StripLights_XFRCMPT_IRQ_EN | StripLights_FIFO_IRQ_EN; 
 307:Generated_Source\PSoC5/StripLights.c ****     StripLights_refreshComplete = 0;
 308:Generated_Source\PSoC5/StripLights.c **** }
 309:Generated_Source\PSoC5/StripLights.c **** 
 310:Generated_Source\PSoC5/StripLights.c **** /*******************************************************************************
 311:Generated_Source\PSoC5/StripLights.c **** * Function Name: StripLights_Ready
 312:Generated_Source\PSoC5/StripLights.c **** ********************************************************************************
 313:Generated_Source\PSoC5/StripLights.c **** * Summary:
 314:Generated_Source\PSoC5/StripLights.c **** *  Checks to see if transfer is complete.
 315:Generated_Source\PSoC5/StripLights.c **** *
ARM GAS  C:\Users\matij\AppData\Local\Temp\ccfrwtxb.s 			page 7


 316:Generated_Source\PSoC5/StripLights.c **** * Parameters:  
 317:Generated_Source\PSoC5/StripLights.c **** *  none  
 318:Generated_Source\PSoC5/StripLights.c **** *
 319:Generated_Source\PSoC5/StripLights.c **** * Return: 
 320:Generated_Source\PSoC5/StripLights.c **** *  Zero if not complete, non-zero if transfer complete.
 321:Generated_Source\PSoC5/StripLights.c **** *
 322:Generated_Source\PSoC5/StripLights.c **** *******************************************************************************/
 323:Generated_Source\PSoC5/StripLights.c **** uint32 StripLights_Ready(void)
 324:Generated_Source\PSoC5/StripLights.c **** {
  28              		.loc 1 324 0
  29              		.cfi_startproc
  30              		@ args = 0, pretend = 0, frame = 0
  31              		@ frame_needed = 0, uses_anonymous_args = 0
  32              		@ link register save eliminated.
 325:Generated_Source\PSoC5/StripLights.c ****     if(StripLights_refreshComplete )
  33              		.loc 1 325 0
  34 0000 034B     		ldr	r3, .L7
  35 0002 1868     		ldr	r0, [r3]
  36 0004 18B1     		cbz	r0, .L2
 326:Generated_Source\PSoC5/StripLights.c ****     {
 327:Generated_Source\PSoC5/StripLights.c ****         StripLights_CONTROL = StripLights_DISABLE;
  37              		.loc 1 327 0
  38 0006 034B     		ldr	r3, .L7+4
  39 0008 0022     		movs	r2, #0
  40 000a 1A70     		strb	r2, [r3]
 328:Generated_Source\PSoC5/StripLights.c ****         return((uint32)1);
  41              		.loc 1 328 0
  42 000c 0120     		movs	r0, #1
  43              	.L2:
 329:Generated_Source\PSoC5/StripLights.c ****     }
 330:Generated_Source\PSoC5/StripLights.c ****     else
 331:Generated_Source\PSoC5/StripLights.c ****     {
 332:Generated_Source\PSoC5/StripLights.c ****          return((uint32)0);
 333:Generated_Source\PSoC5/StripLights.c ****     }
 334:Generated_Source\PSoC5/StripLights.c **** }
  44              		.loc 1 334 0
  45 000e 7047     		bx	lr
  46              	.L8:
  47              		.align	2
  48              	.L7:
  49 0010 00000000 		.word	StripLights_refreshComplete
  50 0014 78640040 		.word	1073767544
  51              		.cfi_endproc
  52              	.LFE66:
  53              		.size	StripLights_Ready, .-StripLights_Ready
  54              		.section	.text.StripLights_Stop,"ax",%progbits
  55              		.align	1
  56              		.global	StripLights_Stop
  57              		.thumb
  58              		.thumb_func
  59              		.type	StripLights_Stop, %function
  60              	StripLights_Stop:
  61              	.LFB67:
 335:Generated_Source\PSoC5/StripLights.c **** 
 336:Generated_Source\PSoC5/StripLights.c **** 
 337:Generated_Source\PSoC5/StripLights.c **** /*******************************************************************************
 338:Generated_Source\PSoC5/StripLights.c **** * Function Name: StripLights_Stop
ARM GAS  C:\Users\matij\AppData\Local\Temp\ccfrwtxb.s 			page 8


 339:Generated_Source\PSoC5/StripLights.c **** ********************************************************************************
 340:Generated_Source\PSoC5/StripLights.c **** * Summary:
 341:Generated_Source\PSoC5/StripLights.c **** *  Stop all transfers.
 342:Generated_Source\PSoC5/StripLights.c **** *
 343:Generated_Source\PSoC5/StripLights.c **** * Parameters:  
 344:Generated_Source\PSoC5/StripLights.c **** *  None 
 345:Generated_Source\PSoC5/StripLights.c **** *
 346:Generated_Source\PSoC5/StripLights.c **** * Return: 
 347:Generated_Source\PSoC5/StripLights.c **** *  void
 348:Generated_Source\PSoC5/StripLights.c **** *
 349:Generated_Source\PSoC5/StripLights.c **** *******************************************************************************/
 350:Generated_Source\PSoC5/StripLights.c **** void StripLights_Stop()
 351:Generated_Source\PSoC5/StripLights.c **** {
  62              		.loc 1 351 0
  63              		.cfi_startproc
  64              		@ args = 0, pretend = 0, frame = 0
  65              		@ frame_needed = 0, uses_anonymous_args = 0
  66              		@ link register save eliminated.
 352:Generated_Source\PSoC5/StripLights.c **** 
 353:Generated_Source\PSoC5/StripLights.c ****     StripLights_CONTROL = StripLights_DISABLE;
  67              		.loc 1 353 0
  68 0000 014B     		ldr	r3, .L10
  69 0002 0022     		movs	r2, #0
  70 0004 1A70     		strb	r2, [r3]
  71 0006 7047     		bx	lr
  72              	.L11:
  73              		.align	2
  74              	.L10:
  75 0008 78640040 		.word	1073767544
  76              		.cfi_endproc
  77              	.LFE67:
  78              		.size	StripLights_Stop, .-StripLights_Stop
  79              		.section	.text.StripLights_ColorInc,"ax",%progbits
  80              		.align	1
  81              		.global	StripLights_ColorInc
  82              		.thumb
  83              		.thumb_func
  84              		.type	StripLights_ColorInc, %function
  85              	StripLights_ColorInc:
  86              	.LFB68:
 354:Generated_Source\PSoC5/StripLights.c **** }
 355:Generated_Source\PSoC5/StripLights.c **** 
 356:Generated_Source\PSoC5/StripLights.c **** 
 357:Generated_Source\PSoC5/StripLights.c **** /*******************************************************************************
 358:Generated_Source\PSoC5/StripLights.c **** * Function Name: StripLights_ColorInc
 359:Generated_Source\PSoC5/StripLights.c **** ********************************************************************************
 360:Generated_Source\PSoC5/StripLights.c **** * Summary:
 361:Generated_Source\PSoC5/StripLights.c **** *  Increment color throught the color lookup table.
 362:Generated_Source\PSoC5/StripLights.c **** *
 363:Generated_Source\PSoC5/StripLights.c **** * Parameters:  
 364:Generated_Source\PSoC5/StripLights.c **** *  uint32 incValue: Increment through color table by incValue. 
 365:Generated_Source\PSoC5/StripLights.c **** *
 366:Generated_Source\PSoC5/StripLights.c **** * Return: Color at next location.
 367:Generated_Source\PSoC5/StripLights.c **** *  
 368:Generated_Source\PSoC5/StripLights.c **** *
 369:Generated_Source\PSoC5/StripLights.c **** *******************************************************************************/
 370:Generated_Source\PSoC5/StripLights.c **** uint32 StripLights_ColorInc(uint32 incValue)
ARM GAS  C:\Users\matij\AppData\Local\Temp\ccfrwtxb.s 			page 9


 371:Generated_Source\PSoC5/StripLights.c **** {
  87              		.loc 1 371 0
  88              		.cfi_startproc
  89              		@ args = 0, pretend = 0, frame = 0
  90              		@ frame_needed = 0, uses_anonymous_args = 0
  91              		@ link register save eliminated.
  92              	.LVL0:
 372:Generated_Source\PSoC5/StripLights.c ****     uint32 color;
 373:Generated_Source\PSoC5/StripLights.c ****     extern const uint32 StripLights_CLUT[];
 374:Generated_Source\PSoC5/StripLights.c ****     static uint32 colorIndex = 0;
 375:Generated_Source\PSoC5/StripLights.c ****     
 376:Generated_Source\PSoC5/StripLights.c ****     colorIndex += incValue;
  93              		.loc 1 376 0
  94 0000 064A     		ldr	r2, .L13
 377:Generated_Source\PSoC5/StripLights.c ****     colorIndex = colorIndex % StripLights_COLOR_WHEEL_SIZE;
  95              		.loc 1 377 0
  96 0002 1821     		movs	r1, #24
  97 0004 1368     		ldr	r3, [r2]
  98 0006 1844     		add	r0, r0, r3
  99              	.LVL1:
 100 0008 B0FBF1F3 		udiv	r3, r0, r1
 101 000c 01FB1300 		mls	r0, r1, r3, r0
 378:Generated_Source\PSoC5/StripLights.c **** 
 379:Generated_Source\PSoC5/StripLights.c ****     #if(StripLights_MEMORY_TYPE == StripLights_MEMORY_RGB)
 380:Generated_Source\PSoC5/StripLights.c ****        color = StripLights_CLUT[ colorIndex ];
 381:Generated_Source\PSoC5/StripLights.c ****     #else
 382:Generated_Source\PSoC5/StripLights.c ****         color = colorIndex;
 383:Generated_Source\PSoC5/StripLights.c ****     #endif
 384:Generated_Source\PSoC5/StripLights.c **** 
 385:Generated_Source\PSoC5/StripLights.c **** 
 386:Generated_Source\PSoC5/StripLights.c ****     return(color);
 387:Generated_Source\PSoC5/StripLights.c **** }
 102              		.loc 1 387 0
 103 0010 034B     		ldr	r3, .L13+4
 377:Generated_Source\PSoC5/StripLights.c ****     colorIndex = colorIndex % StripLights_COLOR_WHEEL_SIZE;
 104              		.loc 1 377 0
 105 0012 1060     		str	r0, [r2]
 106              	.LVL2:
 107              		.loc 1 387 0
 108 0014 53F82000 		ldr	r0, [r3, r0, lsl #2]
 109              	.LVL3:
 110 0018 7047     		bx	lr
 111              	.L14:
 112 001a 00BF     		.align	2
 113              	.L13:
 114 001c 00000000 		.word	.LANCHOR0
 115 0020 00000000 		.word	.LANCHOR1
 116              		.cfi_endproc
 117              	.LFE68:
 118              		.size	StripLights_ColorInc, .-StripLights_ColorInc
 119              		.section	.text.StripLights_SetBitShifts,"ax",%progbits
 120              		.align	1
 121              		.global	StripLights_SetBitShifts
 122              		.thumb
 123              		.thumb_func
 124              		.type	StripLights_SetBitShifts, %function
 125              	StripLights_SetBitShifts:
ARM GAS  C:\Users\matij\AppData\Local\Temp\ccfrwtxb.s 			page 10


 126              	.LFB69:
 388:Generated_Source\PSoC5/StripLights.c **** 
 389:Generated_Source\PSoC5/StripLights.c **** void   StripLights_SetBitShifts(uint32 Red, uint32 Green, uint32 Blue) {
 127              		.loc 1 389 0
 128              		.cfi_startproc
 129              		@ args = 0, pretend = 0, frame = 0
 130              		@ frame_needed = 0, uses_anonymous_args = 0
 131              		@ link register save eliminated.
 132              	.LVL4:
 390:Generated_Source\PSoC5/StripLights.c ****     StripLights_Red_Shift = Red;
 133              		.loc 1 390 0
 134 0000 024B     		ldr	r3, .L16
 135 0002 5860     		str	r0, [r3, #4]
 391:Generated_Source\PSoC5/StripLights.c ****     StripLights_Green_Shift = Green;
 136              		.loc 1 391 0
 137 0004 024B     		ldr	r3, .L16+4
 392:Generated_Source\PSoC5/StripLights.c ****     StripLights_Blue_Shift = Blue;
 138              		.loc 1 392 0
 139 0006 83E80600 		stmia	r3, {r1, r2}
 140 000a 7047     		bx	lr
 141              	.L17:
 142              		.align	2
 143              	.L16:
 144 000c 00000000 		.word	.LANCHOR0
 145 0010 00000000 		.word	.LANCHOR2
 146              		.cfi_endproc
 147              	.LFE69:
 148              		.size	StripLights_SetBitShifts, .-StripLights_SetBitShifts
 149              		.section	.text.StripLights_MemClear,"ax",%progbits
 150              		.align	1
 151              		.global	StripLights_MemClear
 152              		.thumb
 153              		.thumb_func
 154              		.type	StripLights_MemClear, %function
 155              	StripLights_MemClear:
 156              	.LFB73:
 393:Generated_Source\PSoC5/StripLights.c **** }
 394:Generated_Source\PSoC5/StripLights.c **** 
 395:Generated_Source\PSoC5/StripLights.c **** 
 396:Generated_Source\PSoC5/StripLights.c **** /*****************************************************************************
 397:Generated_Source\PSoC5/StripLights.c **** * Function Name: StripLights_FISR
 398:Generated_Source\PSoC5/StripLights.c **** ******************************************************************************
 399:Generated_Source\PSoC5/StripLights.c **** *
 400:Generated_Source\PSoC5/StripLights.c **** * Summary:
 401:Generated_Source\PSoC5/StripLights.c **** *  Interrupt service handler for data transfer for each LED 
 402:Generated_Source\PSoC5/StripLights.c **** *
 403:Generated_Source\PSoC5/StripLights.c **** * Parameters:  
 404:Generated_Source\PSoC5/StripLights.c **** *  void
 405:Generated_Source\PSoC5/StripLights.c **** *
 406:Generated_Source\PSoC5/StripLights.c **** * Return: 
 407:Generated_Source\PSoC5/StripLights.c **** *  void 
 408:Generated_Source\PSoC5/StripLights.c **** *
 409:Generated_Source\PSoC5/StripLights.c **** * Reentrant: 
 410:Generated_Source\PSoC5/StripLights.c **** *  No
 411:Generated_Source\PSoC5/StripLights.c **** *
 412:Generated_Source\PSoC5/StripLights.c **** *****************************************************************************/
 413:Generated_Source\PSoC5/StripLights.c **** CY_ISR( StripLights_FISR)
ARM GAS  C:\Users\matij\AppData\Local\Temp\ccfrwtxb.s 			page 11


 414:Generated_Source\PSoC5/StripLights.c **** {
 415:Generated_Source\PSoC5/StripLights.c ****     extern uint32  StripLights_DimMask;
 416:Generated_Source\PSoC5/StripLights.c ****     extern uint32  StripLights_DimShift;
 417:Generated_Source\PSoC5/StripLights.c ****     uint32 static color;
 418:Generated_Source\PSoC5/StripLights.c **** 
 419:Generated_Source\PSoC5/StripLights.c ****     if(StripLights_ledIndex < StripLights_ARRAY_COLS)
 420:Generated_Source\PSoC5/StripLights.c ****     {
 421:Generated_Source\PSoC5/StripLights.c ****         #if(StripLights_MEMORY_TYPE == StripLights_MEMORY_RGB)
 422:Generated_Source\PSoC5/StripLights.c ****             color = StripLights_ledArray[StripLights_row][StripLights_ledIndex++];
 423:Generated_Source\PSoC5/StripLights.c ****         #else  /* Else use lookup table */
 424:Generated_Source\PSoC5/StripLights.c ****             color = StripLights_CLUT[ (StripLights_ledArray[StripLights_row][StripLights_ledIndex++
 425:Generated_Source\PSoC5/StripLights.c ****         #endif
 426:Generated_Source\PSoC5/StripLights.c **** 
 427:Generated_Source\PSoC5/StripLights.c ****         StripLights_WriteColor(color);
 428:Generated_Source\PSoC5/StripLights.c ****     }
 429:Generated_Source\PSoC5/StripLights.c ****     else 
 430:Generated_Source\PSoC5/StripLights.c ****     {
 431:Generated_Source\PSoC5/StripLights.c ****          StripLights_CONTROL = StripLights_ENABLE | StripLights_XFRCMPT_IRQ_EN; 
 432:Generated_Source\PSoC5/StripLights.c ****     }
 433:Generated_Source\PSoC5/StripLights.c **** 
 434:Generated_Source\PSoC5/StripLights.c **** }
 435:Generated_Source\PSoC5/StripLights.c **** 
 436:Generated_Source\PSoC5/StripLights.c **** /*****************************************************************************
 437:Generated_Source\PSoC5/StripLights.c **** * Function Name: StripLights_CISR
 438:Generated_Source\PSoC5/StripLights.c **** ******************************************************************************
 439:Generated_Source\PSoC5/StripLights.c **** *
 440:Generated_Source\PSoC5/StripLights.c **** * Summary:
 441:Generated_Source\PSoC5/StripLights.c **** *  Interrupt service handler after each row is complete.
 442:Generated_Source\PSoC5/StripLights.c **** *
 443:Generated_Source\PSoC5/StripLights.c **** * Parameters:  
 444:Generated_Source\PSoC5/StripLights.c **** *  void
 445:Generated_Source\PSoC5/StripLights.c **** *
 446:Generated_Source\PSoC5/StripLights.c **** * Return: 
 447:Generated_Source\PSoC5/StripLights.c **** *  void 
 448:Generated_Source\PSoC5/StripLights.c **** *
 449:Generated_Source\PSoC5/StripLights.c **** * Reentrant: 
 450:Generated_Source\PSoC5/StripLights.c **** *  No
 451:Generated_Source\PSoC5/StripLights.c **** *
 452:Generated_Source\PSoC5/StripLights.c **** *****************************************************************************/
 453:Generated_Source\PSoC5/StripLights.c **** CY_ISR( StripLights_CISR)
 454:Generated_Source\PSoC5/StripLights.c **** {
 455:Generated_Source\PSoC5/StripLights.c ****     extern uint32  StripLights_DimMask;
 456:Generated_Source\PSoC5/StripLights.c ****     extern uint32  StripLights_DimShift;
 457:Generated_Source\PSoC5/StripLights.c ****     uint32 static color;
 458:Generated_Source\PSoC5/StripLights.c ****     extern uint32 StripLights_refreshComplete;
 459:Generated_Source\PSoC5/StripLights.c **** 
 460:Generated_Source\PSoC5/StripLights.c **** 	StripLights_CONTROL = StripLights_ENABLE |StripLights_NEXT_ROW;
 461:Generated_Source\PSoC5/StripLights.c ****     StripLights_row++;
 462:Generated_Source\PSoC5/StripLights.c ****     if( StripLights_row < StripLights_ARRAY_ROWS)  /* More Rows to do  */
 463:Generated_Source\PSoC5/StripLights.c ****     {
 464:Generated_Source\PSoC5/StripLights.c ****         StripLights_Channel = StripLights_row;  
 465:Generated_Source\PSoC5/StripLights.c **** 
 466:Generated_Source\PSoC5/StripLights.c **** 		#if(StripLights_MEMORY_TYPE == StripLights_MEMORY_RGB)
 467:Generated_Source\PSoC5/StripLights.c ****              color = StripLights_ledArray[StripLights_row][0];
 468:Generated_Source\PSoC5/StripLights.c ****         #else  /* Else use lookup table */
 469:Generated_Source\PSoC5/StripLights.c ****              color = StripLights_CLUT[ (StripLights_ledArray[StripLights_row][0]) ];
 470:Generated_Source\PSoC5/StripLights.c ****         #endif
ARM GAS  C:\Users\matij\AppData\Local\Temp\ccfrwtxb.s 			page 12


 471:Generated_Source\PSoC5/StripLights.c **** 
 472:Generated_Source\PSoC5/StripLights.c ****         StripLights_WriteColor(color);
 473:Generated_Source\PSoC5/StripLights.c **** 
 474:Generated_Source\PSoC5/StripLights.c ****         StripLights_ledIndex = 1;
 475:Generated_Source\PSoC5/StripLights.c **** 		StripLights_CONTROL = StripLights_ENABLE | StripLights_FIFO_IRQ_EN; 
 476:Generated_Source\PSoC5/StripLights.c **** 		
 477:Generated_Source\PSoC5/StripLights.c ****     }
 478:Generated_Source\PSoC5/StripLights.c ****     else
 479:Generated_Source\PSoC5/StripLights.c ****     {
 480:Generated_Source\PSoC5/StripLights.c ****         StripLights_refreshComplete = 1u;
 481:Generated_Source\PSoC5/StripLights.c ****         if (StripLights_Done != NULL ) {
 482:Generated_Source\PSoC5/StripLights.c ****             CyDelay(1);
 483:Generated_Source\PSoC5/StripLights.c ****             StripLights_Done();
 484:Generated_Source\PSoC5/StripLights.c ****         }
 485:Generated_Source\PSoC5/StripLights.c ****     }
 486:Generated_Source\PSoC5/StripLights.c ****   
 487:Generated_Source\PSoC5/StripLights.c **** }
 488:Generated_Source\PSoC5/StripLights.c **** 
 489:Generated_Source\PSoC5/StripLights.c **** 
 490:Generated_Source\PSoC5/StripLights.c **** /*******************************************************************************
 491:Generated_Source\PSoC5/StripLights.c **** * Function Name: StripLights_DisplayClear
 492:Generated_Source\PSoC5/StripLights.c **** ********************************************************************************
 493:Generated_Source\PSoC5/StripLights.c **** * Summary:
 494:Generated_Source\PSoC5/StripLights.c **** *   Clear memory with a given value and update the display.
 495:Generated_Source\PSoC5/StripLights.c **** *
 496:Generated_Source\PSoC5/StripLights.c **** * Parameters:  
 497:Generated_Source\PSoC5/StripLights.c **** *  uint32 color: Color to clear display. 
 498:Generated_Source\PSoC5/StripLights.c **** *
 499:Generated_Source\PSoC5/StripLights.c **** * Return: 
 500:Generated_Source\PSoC5/StripLights.c **** *  void
 501:Generated_Source\PSoC5/StripLights.c **** *
 502:Generated_Source\PSoC5/StripLights.c **** *******************************************************************************/
 503:Generated_Source\PSoC5/StripLights.c **** void StripLights_DisplayClear(uint32 color)
 504:Generated_Source\PSoC5/StripLights.c **** {   
 505:Generated_Source\PSoC5/StripLights.c ****     StripLights_MemClear(color);
 506:Generated_Source\PSoC5/StripLights.c ****     StripLights_Trigger(1);
 507:Generated_Source\PSoC5/StripLights.c **** }
 508:Generated_Source\PSoC5/StripLights.c **** 
 509:Generated_Source\PSoC5/StripLights.c **** /*******************************************************************************
 510:Generated_Source\PSoC5/StripLights.c **** * Function Name: StripLights_MemClear
 511:Generated_Source\PSoC5/StripLights.c **** ********************************************************************************
 512:Generated_Source\PSoC5/StripLights.c **** * Summary:
 513:Generated_Source\PSoC5/StripLights.c **** *   Clear LED memory with given color, but do not update display.
 514:Generated_Source\PSoC5/StripLights.c **** *
 515:Generated_Source\PSoC5/StripLights.c **** * Parameters:  
 516:Generated_Source\PSoC5/StripLights.c **** *  uint32 color: Color to clear display.  
 517:Generated_Source\PSoC5/StripLights.c **** *
 518:Generated_Source\PSoC5/StripLights.c **** * Return: 
 519:Generated_Source\PSoC5/StripLights.c **** *  void
 520:Generated_Source\PSoC5/StripLights.c **** *
 521:Generated_Source\PSoC5/StripLights.c **** *******************************************************************************/
 522:Generated_Source\PSoC5/StripLights.c **** void StripLights_MemClear(uint32 color)
 523:Generated_Source\PSoC5/StripLights.c **** {
 157              		.loc 1 523 0
 158              		.cfi_startproc
 159              		@ args = 0, pretend = 0, frame = 0
 160              		@ frame_needed = 0, uses_anonymous_args = 0
ARM GAS  C:\Users\matij\AppData\Local\Temp\ccfrwtxb.s 			page 13


 161              		@ link register save eliminated.
 162              	.LVL5:
 524:Generated_Source\PSoC5/StripLights.c ****     uint32  row, col;
 525:Generated_Source\PSoC5/StripLights.c ****     
 526:Generated_Source\PSoC5/StripLights.c ****     for(row=0; row < StripLights_ARRAY_ROWS; row++)
 527:Generated_Source\PSoC5/StripLights.c ****     {
 528:Generated_Source\PSoC5/StripLights.c ****         for(col=0; col < StripLights_ARRAY_COLS; col++)
 529:Generated_Source\PSoC5/StripLights.c ****         {
 530:Generated_Source\PSoC5/StripLights.c ****             StripLights_ledArray[row][col] = color;
 163              		.loc 1 530 0
 164 0000 044A     		ldr	r2, .L21
 523:Generated_Source\PSoC5/StripLights.c ****     uint32  row, col;
 165              		.loc 1 523 0
 166 0002 0023     		movs	r3, #0
 167              	.LVL6:
 168              	.L19:
 169              		.loc 1 530 0 discriminator 3
 170 0004 42F82300 		str	r0, [r2, r3, lsl #2]
 528:Generated_Source\PSoC5/StripLights.c ****         {
 171              		.loc 1 528 0 discriminator 3
 172 0008 0133     		adds	r3, r3, #1
 173              	.LVL7:
 174 000a B3F5967F 		cmp	r3, #300
 175 000e F9D1     		bne	.L19
 531:Generated_Source\PSoC5/StripLights.c ****             #if(StripLights_MEMORY_TYPE == StripLights_MEMORY_RGB)
 532:Generated_Source\PSoC5/StripLights.c ****                 StripLights_ledArray[row][col] = color;
 533:Generated_Source\PSoC5/StripLights.c ****             #else  /* Else use lookup table */
 534:Generated_Source\PSoC5/StripLights.c ****                  StripLights_ledArray[row][col] = (uint8)color;
 535:Generated_Source\PSoC5/StripLights.c ****             #endif
 536:Generated_Source\PSoC5/StripLights.c ****         }
 537:Generated_Source\PSoC5/StripLights.c ****     }
 538:Generated_Source\PSoC5/StripLights.c **** }
 176              		.loc 1 538 0
 177 0010 7047     		bx	lr
 178              	.L22:
 179 0012 00BF     		.align	2
 180              	.L21:
 181 0014 00000000 		.word	StripLights_ledArray
 182              		.cfi_endproc
 183              	.LFE73:
 184              		.size	StripLights_MemClear, .-StripLights_MemClear
 185              		.section	.text.StripLights_Start,"ax",%progbits
 186              		.align	1
 187              		.global	StripLights_Start
 188              		.thumb
 189              		.thumb_func
 190              		.type	StripLights_Start, %function
 191              	StripLights_Start:
 192              	.LFB64:
 229:Generated_Source\PSoC5/StripLights.c ****     extern uint8 StripLights_initvar;
 193              		.loc 1 229 0
 194              		.cfi_startproc
 195              		@ args = 0, pretend = 0, frame = 0
 196              		@ frame_needed = 0, uses_anonymous_args = 0
 197 0000 38B5     		push	{r3, r4, r5, lr}
 198              		.cfi_def_cfa_offset 16
 199              		.cfi_offset 3, -16
ARM GAS  C:\Users\matij\AppData\Local\Temp\ccfrwtxb.s 			page 14


 200              		.cfi_offset 4, -12
 201              		.cfi_offset 5, -8
 202              		.cfi_offset 14, -4
 233:Generated_Source\PSoC5/StripLights.c ****     StripLights_ACTL0_REG = StripLights_DISABLE_FIFO;
 203              		.loc 1 233 0
 204 0002 164B     		ldr	r3, .L25
 205 0004 0124     		movs	r4, #1
 206 0006 1C70     		strb	r4, [r3]
 234:Generated_Source\PSoC5/StripLights.c ****     
 207              		.loc 1 234 0
 208 0008 154B     		ldr	r3, .L25+4
 209 000a 0322     		movs	r2, #3
 210 000c 1A70     		strb	r2, [r3]
 236:Generated_Source\PSoC5/StripLights.c ****     StripLights_Compare0 = StripLights_DATA_ZERO;
 211              		.loc 1 236 0
 212 000e 1D22     		movs	r2, #29
 213 0010 03F8502C 		strb	r2, [r3, #-80]
 240:Generated_Source\PSoC5/StripLights.c ****     StripLights_MemClear(StripLights_OFF);
 214              		.loc 1 240 0
 215 0014 1349     		ldr	r1, .L25+8
 237:Generated_Source\PSoC5/StripLights.c ****     StripLights_Compare1 = StripLights_DATA_ONE;
 216              		.loc 1 237 0
 217 0016 1822     		movs	r2, #24
 218 0018 03F8702C 		strb	r2, [r3, #-112]
 238:Generated_Source\PSoC5/StripLights.c ****     
 219              		.loc 1 238 0
 220 001c 0E22     		movs	r2, #14
 221 001e 03F8602C 		strb	r2, [r3, #-96]
 241:Generated_Source\PSoC5/StripLights.c ****     StripLights_CONTROL = StripLights_DISABLE;
 222              		.loc 1 241 0
 223 0022 0020     		movs	r0, #0
 240:Generated_Source\PSoC5/StripLights.c ****     StripLights_MemClear(StripLights_OFF);
 224              		.loc 1 240 0
 225 0024 0C70     		strb	r4, [r1]
 241:Generated_Source\PSoC5/StripLights.c ****     StripLights_CONTROL = StripLights_DISABLE;
 226              		.loc 1 241 0
 227 0026 FFF7FEFF 		bl	StripLights_MemClear
 228              	.LVL8:
 242:Generated_Source\PSoC5/StripLights.c ****     
 229              		.loc 1 242 0
 230 002a 0025     		movs	r5, #0
 231 002c 0D70     		strb	r5, [r1]
 244:Generated_Source\PSoC5/StripLights.c ****     
 232              		.loc 1 244 0
 233 002e 2846     		mov	r0, r5
 234 0030 FFF7FEFF 		bl	StripLights_SetFont
 235              	.LVL9:
 236              	.LBB4:
 237              	.LBB5:
 539:Generated_Source\PSoC5/StripLights.c **** 
 540:Generated_Source\PSoC5/StripLights.c **** 
 541:Generated_Source\PSoC5/StripLights.c **** 
 542:Generated_Source\PSoC5/StripLights.c **** /*******************************************************************************
 543:Generated_Source\PSoC5/StripLights.c **** * Function Name: StripLights_WriteColor
 544:Generated_Source\PSoC5/StripLights.c **** ********************************************************************************
 545:Generated_Source\PSoC5/StripLights.c **** * Summary:
 546:Generated_Source\PSoC5/StripLights.c **** *   Write given color directly to output register.
ARM GAS  C:\Users\matij\AppData\Local\Temp\ccfrwtxb.s 			page 15


 547:Generated_Source\PSoC5/StripLights.c **** *
 548:Generated_Source\PSoC5/StripLights.c **** * Parameters:  
 549:Generated_Source\PSoC5/StripLights.c **** *  uint32 color: Color to write to display. 
 550:Generated_Source\PSoC5/StripLights.c **** *
 551:Generated_Source\PSoC5/StripLights.c **** * Return: 
 552:Generated_Source\PSoC5/StripLights.c **** *  void
 553:Generated_Source\PSoC5/StripLights.c **** *
 554:Generated_Source\PSoC5/StripLights.c **** *******************************************************************************/
 555:Generated_Source\PSoC5/StripLights.c **** void StripLights_WriteColor(uint32 color)
 556:Generated_Source\PSoC5/StripLights.c **** {
 557:Generated_Source\PSoC5/StripLights.c ****     while( (StripLights_STATUS & StripLights_FIFO_EMPTY) == 0); 
 558:Generated_Source\PSoC5/StripLights.c **** 
 559:Generated_Source\PSoC5/StripLights.c ****     
 560:Generated_Source\PSoC5/StripLights.c ****     
 561:Generated_Source\PSoC5/StripLights.c ****     #if(StripLights_UseGammaCorrection == 0 ) 
 562:Generated_Source\PSoC5/StripLights.c ****     
 563:Generated_Source\PSoC5/StripLights.c ****     StripLights_DATA = (uint8)(color & 0x000000FF);  // Write Red
 564:Generated_Source\PSoC5/StripLights.c ****     color = color >> 8;
 565:Generated_Source\PSoC5/StripLights.c ****     StripLights_DATA = (uint8)(color & 0x000000FF);  // Write green
 566:Generated_Source\PSoC5/StripLights.c ****     color = color >> 8;
 567:Generated_Source\PSoC5/StripLights.c ****     StripLights_DATA = (uint8)(color & 0x000000FF);  // Write green
 568:Generated_Source\PSoC5/StripLights.c ****     color = color >> 8;
 569:Generated_Source\PSoC5/StripLights.c ****     StripLights_DATA = (uint8)(color & 0x000000FF);  // Write green
 570:Generated_Source\PSoC5/StripLights.c ****     
 571:Generated_Source\PSoC5/StripLights.c ****     #else 
 572:Generated_Source\PSoC5/StripLights.c ****         
 573:Generated_Source\PSoC5/StripLights.c ****     StripLights_DATA = gamma[(uint8)(color & 0x000000FF)];  // Write Green
 574:Generated_Source\PSoC5/StripLights.c ****     color = color >> 8;
 575:Generated_Source\PSoC5/StripLights.c ****     StripLights_DATA = gamma[(uint8)(color & 0x000000FF)];  // Write Red
 576:Generated_Source\PSoC5/StripLights.c ****     color = color >> 8;
 577:Generated_Source\PSoC5/StripLights.c ****     StripLights_DATA = gamma[(uint8)(color & 0x000000FF)];  // Write Blue
 578:Generated_Source\PSoC5/StripLights.c ****     color = color >> 8;
 579:Generated_Source\PSoC5/StripLights.c ****     StripLights_DATA = (uint8)(color & 0x000000FF);  // Write green
 580:Generated_Source\PSoC5/StripLights.c ****     
 581:Generated_Source\PSoC5/StripLights.c ****     #endif 
 582:Generated_Source\PSoC5/StripLights.c **** }
 583:Generated_Source\PSoC5/StripLights.c **** 
 584:Generated_Source\PSoC5/StripLights.c **** 
 585:Generated_Source\PSoC5/StripLights.c **** 
 586:Generated_Source\PSoC5/StripLights.c **** 
 587:Generated_Source\PSoC5/StripLights.c **** void StripLights_RGBtoHSV( float r, float g, float b, float *h, float *s, float *v )
 588:Generated_Source\PSoC5/StripLights.c **** {
 589:Generated_Source\PSoC5/StripLights.c **** 	float min, max, delta;
 590:Generated_Source\PSoC5/StripLights.c **** 	min = MIN( r, g, b );
 591:Generated_Source\PSoC5/StripLights.c **** 	max = MAX( r, g, b );
 592:Generated_Source\PSoC5/StripLights.c **** 	*v = max;				// v
 593:Generated_Source\PSoC5/StripLights.c **** 	delta = max - min;
 594:Generated_Source\PSoC5/StripLights.c **** 	if( max != 0 )
 595:Generated_Source\PSoC5/StripLights.c **** 		*s = delta / max;		// s
 596:Generated_Source\PSoC5/StripLights.c **** 	else {
 597:Generated_Source\PSoC5/StripLights.c **** 		// r = g = b = 0		// s = 0, v is undefined
 598:Generated_Source\PSoC5/StripLights.c **** 		*s = 0;
 599:Generated_Source\PSoC5/StripLights.c **** 		*h = -1;
 600:Generated_Source\PSoC5/StripLights.c **** 		return;
 601:Generated_Source\PSoC5/StripLights.c **** 	}
 602:Generated_Source\PSoC5/StripLights.c **** 	if( r == max )
 603:Generated_Source\PSoC5/StripLights.c **** 		*h = ( g - b ) / delta;		// between yellow & magenta
ARM GAS  C:\Users\matij\AppData\Local\Temp\ccfrwtxb.s 			page 16


 604:Generated_Source\PSoC5/StripLights.c **** 	else if( g == max )
 605:Generated_Source\PSoC5/StripLights.c **** 		*h = 2 + ( b - r ) / delta;	// between cyan & yellow
 606:Generated_Source\PSoC5/StripLights.c **** 	else
 607:Generated_Source\PSoC5/StripLights.c **** 		*h = 4 + ( r - g ) / delta;	// between magenta & cyan
 608:Generated_Source\PSoC5/StripLights.c **** 	*h *= 60;				// degrees
 609:Generated_Source\PSoC5/StripLights.c **** 	if( *h < 0 )
 610:Generated_Source\PSoC5/StripLights.c **** 		*h += 360;
 611:Generated_Source\PSoC5/StripLights.c **** }
 612:Generated_Source\PSoC5/StripLights.c **** 
 613:Generated_Source\PSoC5/StripLights.c **** /*!
 614:Generated_Source\PSoC5/StripLights.c **** 	@fn void HSVtoRGB( float *r, float *g, float *b, float h, float s, float v )
 615:Generated_Source\PSoC5/StripLights.c **** 	@brief convert HSV to RGB
 616:Generated_Source\PSoC5/StripLights.c **** */
 617:Generated_Source\PSoC5/StripLights.c **** void StripLights_HSVtoRGB( float *r, float *g, float *b, float h, float s, float v )
 618:Generated_Source\PSoC5/StripLights.c **** {
 619:Generated_Source\PSoC5/StripLights.c **** 	int i;
 620:Generated_Source\PSoC5/StripLights.c **** 	float f, p, q, t;
 621:Generated_Source\PSoC5/StripLights.c **** 	if( s == 0 ) {
 622:Generated_Source\PSoC5/StripLights.c **** 		// achromatic (grey)
 623:Generated_Source\PSoC5/StripLights.c **** 		*r = *g = *b = v;
 624:Generated_Source\PSoC5/StripLights.c **** 		return;
 625:Generated_Source\PSoC5/StripLights.c **** 	}
 626:Generated_Source\PSoC5/StripLights.c **** 	h /= 60;			// sector 0 to 5
 627:Generated_Source\PSoC5/StripLights.c **** 	i = (int) h;
 628:Generated_Source\PSoC5/StripLights.c **** 	f = h - i;			// factorial part of h
 629:Generated_Source\PSoC5/StripLights.c **** 	p = v * ( 1 - s );
 630:Generated_Source\PSoC5/StripLights.c **** 	q = v * ( 1 - s * f );
 631:Generated_Source\PSoC5/StripLights.c **** 	t = v * ( 1 - s * ( 1 - f ) );
 632:Generated_Source\PSoC5/StripLights.c **** 	switch( i ) {
 633:Generated_Source\PSoC5/StripLights.c **** 		case 0:
 634:Generated_Source\PSoC5/StripLights.c **** 			*r = v;
 635:Generated_Source\PSoC5/StripLights.c **** 			*g = t;
 636:Generated_Source\PSoC5/StripLights.c **** 			*b = p;
 637:Generated_Source\PSoC5/StripLights.c **** 			break;
 638:Generated_Source\PSoC5/StripLights.c **** 		case 1:
 639:Generated_Source\PSoC5/StripLights.c **** 			*r = q;
 640:Generated_Source\PSoC5/StripLights.c **** 			*g = v;
 641:Generated_Source\PSoC5/StripLights.c **** 			*b = p;
 642:Generated_Source\PSoC5/StripLights.c **** 			break;
 643:Generated_Source\PSoC5/StripLights.c **** 		case 2:
 644:Generated_Source\PSoC5/StripLights.c **** 			*r = p;
 645:Generated_Source\PSoC5/StripLights.c **** 			*g = v;
 646:Generated_Source\PSoC5/StripLights.c **** 			*b = t;
 647:Generated_Source\PSoC5/StripLights.c **** 			break;
 648:Generated_Source\PSoC5/StripLights.c **** 		case 3:
 649:Generated_Source\PSoC5/StripLights.c **** 			*r = p;
 650:Generated_Source\PSoC5/StripLights.c **** 			*g = q;
 651:Generated_Source\PSoC5/StripLights.c **** 			*b = v;
 652:Generated_Source\PSoC5/StripLights.c **** 			break;
 653:Generated_Source\PSoC5/StripLights.c **** 		case 4:
 654:Generated_Source\PSoC5/StripLights.c **** 			*r = t;
 655:Generated_Source\PSoC5/StripLights.c **** 			*g = p;
 656:Generated_Source\PSoC5/StripLights.c **** 			*b = v;
 657:Generated_Source\PSoC5/StripLights.c **** 			break;
 658:Generated_Source\PSoC5/StripLights.c **** 		default:		// case 5:
 659:Generated_Source\PSoC5/StripLights.c **** 			*r = v;
 660:Generated_Source\PSoC5/StripLights.c **** 			*g = p;
ARM GAS  C:\Users\matij\AppData\Local\Temp\ccfrwtxb.s 			page 17


 661:Generated_Source\PSoC5/StripLights.c **** 			*b = q;
 662:Generated_Source\PSoC5/StripLights.c **** 			break;
 663:Generated_Source\PSoC5/StripLights.c **** 	}
 664:Generated_Source\PSoC5/StripLights.c **** }
 665:Generated_Source\PSoC5/StripLights.c **** 
 666:Generated_Source\PSoC5/StripLights.c **** void StripLights_HSV_Pixel(int32 x, int32 y, float h, float s, float v) {
 667:Generated_Source\PSoC5/StripLights.c ****     float R,G,B;
 668:Generated_Source\PSoC5/StripLights.c ****     StripLights_HSVtoRGB( &R, &G, &B,  h,  s,  v );    
 669:Generated_Source\PSoC5/StripLights.c ****     //uint32 colour = ((int) (R * 255)) | (((int) (G * 255))<<8) | (((int) (B * 255)) << 16 );
 670:Generated_Source\PSoC5/StripLights.c ****     uint32 colour = ((int) (R * 255)<<StripLights_Red_Shift) | (((int) (B * 255))<<StripLights_Blue
 671:Generated_Source\PSoC5/StripLights.c ****     StripLights_Pixel(x,y,colour);
 672:Generated_Source\PSoC5/StripLights.c **** }
 673:Generated_Source\PSoC5/StripLights.c **** 
 674:Generated_Source\PSoC5/StripLights.c **** /*******************************************************************************
 675:Generated_Source\PSoC5/StripLights.c **** * Function Name: StripLights_Pixel
 676:Generated_Source\PSoC5/StripLights.c **** ********************************************************************************
 677:Generated_Source\PSoC5/StripLights.c **** *
 678:Generated_Source\PSoC5/StripLights.c **** * Summary:
 679:Generated_Source\PSoC5/StripLights.c **** *  Draw Pixel  
 680:Generated_Source\PSoC5/StripLights.c **** *
 681:Generated_Source\PSoC5/StripLights.c **** * Parameters:  
 682:Generated_Source\PSoC5/StripLights.c **** *  x,y:    Location to draw the pixel
 683:Generated_Source\PSoC5/StripLights.c **** *  color:  Color of the pixel
 684:Generated_Source\PSoC5/StripLights.c **** *
 685:Generated_Source\PSoC5/StripLights.c **** * Return: 
 686:Generated_Source\PSoC5/StripLights.c **** *  None 
 687:Generated_Source\PSoC5/StripLights.c **** *******************************************************************************/
 688:Generated_Source\PSoC5/StripLights.c **** void StripLights_Pixel(int32 x, int32 y, uint32 color)
 689:Generated_Source\PSoC5/StripLights.c **** {
 690:Generated_Source\PSoC5/StripLights.c **** 
 691:Generated_Source\PSoC5/StripLights.c **** 	if((x >= StripLights_MIN_X) && (y >= StripLights_MIN_Y) && (x <= StripLights_MAX_X) && (y <= Strip
 692:Generated_Source\PSoC5/StripLights.c ****     {
 693:Generated_Source\PSoC5/StripLights.c **** 
 694:Generated_Source\PSoC5/StripLights.c ****     #if(StripLights_MEMORY_TYPE == StripLights_MEMORY_RGB)
 695:Generated_Source\PSoC5/StripLights.c ****        StripLights_ledArray[y][x] = color;
 696:Generated_Source\PSoC5/StripLights.c ****     #else  /* Else use lookup table */
 697:Generated_Source\PSoC5/StripLights.c ****        StripLights_ledArray[y][x] = (uint8)color;
 698:Generated_Source\PSoC5/StripLights.c ****     #endif
 699:Generated_Source\PSoC5/StripLights.c ****     }
 700:Generated_Source\PSoC5/StripLights.c ****   
 701:Generated_Source\PSoC5/StripLights.c **** }
 702:Generated_Source\PSoC5/StripLights.c **** 
 703:Generated_Source\PSoC5/StripLights.c **** /*******************************************************************************
 704:Generated_Source\PSoC5/StripLights.c **** * Function Name: StripLights_GetPixel
 705:Generated_Source\PSoC5/StripLights.c **** ********************************************************************************
 706:Generated_Source\PSoC5/StripLights.c **** *
 707:Generated_Source\PSoC5/StripLights.c **** * Summary:
 708:Generated_Source\PSoC5/StripLights.c **** *  Get Pixel Color  
 709:Generated_Source\PSoC5/StripLights.c **** *
 710:Generated_Source\PSoC5/StripLights.c **** * Parameters:  
 711:Generated_Source\PSoC5/StripLights.c **** *  x,y:    Location to get pixel color
 712:Generated_Source\PSoC5/StripLights.c **** *
 713:Generated_Source\PSoC5/StripLights.c **** * Return: 
 714:Generated_Source\PSoC5/StripLights.c **** *  None 
 715:Generated_Source\PSoC5/StripLights.c **** *******************************************************************************/
 716:Generated_Source\PSoC5/StripLights.c **** uint32 StripLights_GetPixel(int32 x, int32 y)
 717:Generated_Source\PSoC5/StripLights.c **** {
ARM GAS  C:\Users\matij\AppData\Local\Temp\ccfrwtxb.s 			page 18


 718:Generated_Source\PSoC5/StripLights.c ****     uint32 color;
 719:Generated_Source\PSoC5/StripLights.c ****     if((x>=0) && (y>=0) && (x < StripLights_ARRAY_COLS) && (y < StripLights_ARRAY_ROWS))
 720:Generated_Source\PSoC5/StripLights.c ****     {
 721:Generated_Source\PSoC5/StripLights.c ****     #if(StripLights_MEMORY_TYPE == StripLights_MEMORY_RGB)
 722:Generated_Source\PSoC5/StripLights.c ****        color = StripLights_ledArray[y][x];
 723:Generated_Source\PSoC5/StripLights.c ****     #else  /* Else use lookup table */
 724:Generated_Source\PSoC5/StripLights.c ****        color = (uint32)StripLights_ledArray[y][x];
 725:Generated_Source\PSoC5/StripLights.c ****     #endif
 726:Generated_Source\PSoC5/StripLights.c ****     }
 727:Generated_Source\PSoC5/StripLights.c ****     return(color);
 728:Generated_Source\PSoC5/StripLights.c **** }
 729:Generated_Source\PSoC5/StripLights.c **** 
 730:Generated_Source\PSoC5/StripLights.c **** /*******************************************************************************
 731:Generated_Source\PSoC5/StripLights.c **** * Function Name: StripLights_DrawCircle
 732:Generated_Source\PSoC5/StripLights.c **** ********************************************************************************
 733:Generated_Source\PSoC5/StripLights.c **** *
 734:Generated_Source\PSoC5/StripLights.c **** * Summary:
 735:Generated_Source\PSoC5/StripLights.c **** *  Draw a circle on the display given a start point and radius.  
 736:Generated_Source\PSoC5/StripLights.c **** *
 737:Generated_Source\PSoC5/StripLights.c **** *  This code uses Bresenham's Circle Algorithm. 
 738:Generated_Source\PSoC5/StripLights.c **** *
 739:Generated_Source\PSoC5/StripLights.c **** * Parameters:  
 740:Generated_Source\PSoC5/StripLights.c **** *  x0, y0: Center of circle
 741:Generated_Source\PSoC5/StripLights.c **** *  radius: Radius of circle
 742:Generated_Source\PSoC5/StripLights.c **** *  color:  Color of circle
 743:Generated_Source\PSoC5/StripLights.c **** *
 744:Generated_Source\PSoC5/StripLights.c **** * Return: 
 745:Generated_Source\PSoC5/StripLights.c **** *  None 
 746:Generated_Source\PSoC5/StripLights.c **** *  
 747:Generated_Source\PSoC5/StripLights.c **** *******************************************************************************/
 748:Generated_Source\PSoC5/StripLights.c **** void StripLights_DrawCircle (int32 x0, int32 y0, int32 radius, uint32 color)
 749:Generated_Source\PSoC5/StripLights.c **** {
 750:Generated_Source\PSoC5/StripLights.c **** 	int32 f = 1 - radius;
 751:Generated_Source\PSoC5/StripLights.c **** 	int32 ddF_x = 0;
 752:Generated_Source\PSoC5/StripLights.c **** 	int32 ddF_y = -2 * radius;
 753:Generated_Source\PSoC5/StripLights.c **** 	int32 x = 0;
 754:Generated_Source\PSoC5/StripLights.c **** 	int32 y = radius;
 755:Generated_Source\PSoC5/StripLights.c **** 
 756:Generated_Source\PSoC5/StripLights.c **** 	StripLights_Pixel(x0, y0 + radius, color);
 757:Generated_Source\PSoC5/StripLights.c **** 	StripLights_Pixel(x0, y0 - radius, color);
 758:Generated_Source\PSoC5/StripLights.c **** 	StripLights_Pixel( x0 + radius, y0, color);
 759:Generated_Source\PSoC5/StripLights.c **** 	StripLights_Pixel( x0 - radius, y0, color);
 760:Generated_Source\PSoC5/StripLights.c **** 
 761:Generated_Source\PSoC5/StripLights.c **** 	while(x < y)
 762:Generated_Source\PSoC5/StripLights.c **** 	{
 763:Generated_Source\PSoC5/StripLights.c **** 		if(f >= 0)
 764:Generated_Source\PSoC5/StripLights.c **** 		{
 765:Generated_Source\PSoC5/StripLights.c **** 			y--;
 766:Generated_Source\PSoC5/StripLights.c **** 			ddF_y += 2;
 767:Generated_Source\PSoC5/StripLights.c **** 			f += ddF_y;
 768:Generated_Source\PSoC5/StripLights.c **** 		}
 769:Generated_Source\PSoC5/StripLights.c **** 		x++;
 770:Generated_Source\PSoC5/StripLights.c **** 		ddF_x += 2;
 771:Generated_Source\PSoC5/StripLights.c **** 		f += ddF_x + 1;
 772:Generated_Source\PSoC5/StripLights.c **** 
 773:Generated_Source\PSoC5/StripLights.c **** 		StripLights_Pixel(x0 + x, y0 + y, color);
 774:Generated_Source\PSoC5/StripLights.c **** 		StripLights_Pixel(x0 - x, y0 + y, color);
ARM GAS  C:\Users\matij\AppData\Local\Temp\ccfrwtxb.s 			page 19


 775:Generated_Source\PSoC5/StripLights.c **** 		StripLights_Pixel( x0 + x, y0 - y, color);
 776:Generated_Source\PSoC5/StripLights.c **** 		StripLights_Pixel( x0 - x, y0 - y, color);
 777:Generated_Source\PSoC5/StripLights.c **** 		StripLights_Pixel( x0 + y, y0 + x, color);
 778:Generated_Source\PSoC5/StripLights.c **** 		StripLights_Pixel( x0 - y, y0 + x, color);
 779:Generated_Source\PSoC5/StripLights.c **** 		StripLights_Pixel( x0 + y, y0 - x, color);
 780:Generated_Source\PSoC5/StripLights.c **** 		StripLights_Pixel( x0 - y, y0 - x, color);
 781:Generated_Source\PSoC5/StripLights.c **** 	}
 782:Generated_Source\PSoC5/StripLights.c **** }
 783:Generated_Source\PSoC5/StripLights.c **** 
 784:Generated_Source\PSoC5/StripLights.c **** 
 785:Generated_Source\PSoC5/StripLights.c **** /*******************************************************************************
 786:Generated_Source\PSoC5/StripLights.c **** * Function Name: StripLights_DrawLine
 787:Generated_Source\PSoC5/StripLights.c **** ********************************************************************************
 788:Generated_Source\PSoC5/StripLights.c **** *
 789:Generated_Source\PSoC5/StripLights.c **** * Summary:
 790:Generated_Source\PSoC5/StripLights.c **** *  Draw a line on the display.  
 791:Generated_Source\PSoC5/StripLights.c **** *
 792:Generated_Source\PSoC5/StripLights.c **** * Parameters:  
 793:Generated_Source\PSoC5/StripLights.c **** *  x0, y0:  The beginning endpoint
 794:Generated_Source\PSoC5/StripLights.c **** *  x1, y1:  The end endpoint.
 795:Generated_Source\PSoC5/StripLights.c **** *  color:   Color of the line.
 796:Generated_Source\PSoC5/StripLights.c **** *
 797:Generated_Source\PSoC5/StripLights.c **** * Return: 
 798:Generated_Source\PSoC5/StripLights.c **** *  None 
 799:Generated_Source\PSoC5/StripLights.c **** *  
 800:Generated_Source\PSoC5/StripLights.c **** *******************************************************************************/
 801:Generated_Source\PSoC5/StripLights.c **** void StripLights_DrawLine(int32 x0, int32 y0, int32 x1, int32 y1, uint32 color)
 802:Generated_Source\PSoC5/StripLights.c **** {
 803:Generated_Source\PSoC5/StripLights.c **** 	int32 dy = y1 - y0; /* Difference between y0 and y1 */
 804:Generated_Source\PSoC5/StripLights.c **** 	int32 dx = x1 - x0; /* Difference between x0 and x1 */
 805:Generated_Source\PSoC5/StripLights.c **** 	int32 stepx, stepy;
 806:Generated_Source\PSoC5/StripLights.c **** 
 807:Generated_Source\PSoC5/StripLights.c **** 	if (dy < 0)
 808:Generated_Source\PSoC5/StripLights.c **** 	{
 809:Generated_Source\PSoC5/StripLights.c **** 		dy = -dy;
 810:Generated_Source\PSoC5/StripLights.c **** 		stepy = -1;
 811:Generated_Source\PSoC5/StripLights.c **** 	}
 812:Generated_Source\PSoC5/StripLights.c **** 	else
 813:Generated_Source\PSoC5/StripLights.c **** 	{
 814:Generated_Source\PSoC5/StripLights.c **** 		stepy = 1;
 815:Generated_Source\PSoC5/StripLights.c **** 	}
 816:Generated_Source\PSoC5/StripLights.c **** 
 817:Generated_Source\PSoC5/StripLights.c **** 	if (dx < 0)
 818:Generated_Source\PSoC5/StripLights.c **** 	{
 819:Generated_Source\PSoC5/StripLights.c **** 		dx = -dx;
 820:Generated_Source\PSoC5/StripLights.c **** 		stepx = -1;
 821:Generated_Source\PSoC5/StripLights.c **** 	}
 822:Generated_Source\PSoC5/StripLights.c **** 	else
 823:Generated_Source\PSoC5/StripLights.c **** 	{
 824:Generated_Source\PSoC5/StripLights.c **** 		stepx = 1;
 825:Generated_Source\PSoC5/StripLights.c **** 	}
 826:Generated_Source\PSoC5/StripLights.c **** 
 827:Generated_Source\PSoC5/StripLights.c **** 	dy <<= 1; /* dy is now 2*dy  */
 828:Generated_Source\PSoC5/StripLights.c **** 	dx <<= 1; /* dx is now 2*dx  */
 829:Generated_Source\PSoC5/StripLights.c **** 	StripLights_Pixel(x0, y0, color);
 830:Generated_Source\PSoC5/StripLights.c **** 
 831:Generated_Source\PSoC5/StripLights.c **** 	if (dx > dy) 
ARM GAS  C:\Users\matij\AppData\Local\Temp\ccfrwtxb.s 			page 20


 832:Generated_Source\PSoC5/StripLights.c **** 	{
 833:Generated_Source\PSoC5/StripLights.c **** 		int fraction = dy - (dx >> 1);
 834:Generated_Source\PSoC5/StripLights.c **** 		while (x0 != x1)
 835:Generated_Source\PSoC5/StripLights.c **** 		{
 836:Generated_Source\PSoC5/StripLights.c **** 			if (fraction >= 0)
 837:Generated_Source\PSoC5/StripLights.c **** 			{
 838:Generated_Source\PSoC5/StripLights.c **** 				y0 += stepy;
 839:Generated_Source\PSoC5/StripLights.c **** 				fraction -= dx;
 840:Generated_Source\PSoC5/StripLights.c **** 			}
 841:Generated_Source\PSoC5/StripLights.c **** 			x0 += stepx;
 842:Generated_Source\PSoC5/StripLights.c **** 			fraction += dy;
 843:Generated_Source\PSoC5/StripLights.c **** 			StripLights_Pixel(x0, y0, color);
 844:Generated_Source\PSoC5/StripLights.c **** 		}
 845:Generated_Source\PSoC5/StripLights.c **** 	}
 846:Generated_Source\PSoC5/StripLights.c **** 	else
 847:Generated_Source\PSoC5/StripLights.c **** 	{
 848:Generated_Source\PSoC5/StripLights.c **** 		int fraction = dx - (dy >> 1);
 849:Generated_Source\PSoC5/StripLights.c **** 		while (y0 != y1)
 850:Generated_Source\PSoC5/StripLights.c **** 		{
 851:Generated_Source\PSoC5/StripLights.c **** 			if (fraction >= 0)
 852:Generated_Source\PSoC5/StripLights.c **** 			{
 853:Generated_Source\PSoC5/StripLights.c **** 				x0 += stepx;
 854:Generated_Source\PSoC5/StripLights.c **** 				fraction -= dy;
 855:Generated_Source\PSoC5/StripLights.c **** 			}
 856:Generated_Source\PSoC5/StripLights.c **** 			y0 += stepy;
 857:Generated_Source\PSoC5/StripLights.c **** 			fraction += dx;
 858:Generated_Source\PSoC5/StripLights.c **** 			StripLights_Pixel( x0, y0, color);
 859:Generated_Source\PSoC5/StripLights.c **** 		}
 860:Generated_Source\PSoC5/StripLights.c **** 	}
 861:Generated_Source\PSoC5/StripLights.c **** }
 862:Generated_Source\PSoC5/StripLights.c **** 
 863:Generated_Source\PSoC5/StripLights.c **** /*******************************************************************************
 864:Generated_Source\PSoC5/StripLights.c **** * Function Name: StripLights_DrawRect
 865:Generated_Source\PSoC5/StripLights.c **** ********************************************************************************
 866:Generated_Source\PSoC5/StripLights.c **** *
 867:Generated_Source\PSoC5/StripLights.c **** * Summary:
 868:Generated_Source\PSoC5/StripLights.c **** *  Draw a rectangle, filled or not.  
 869:Generated_Source\PSoC5/StripLights.c **** *
 870:Generated_Source\PSoC5/StripLights.c **** * Parameters:  
 871:Generated_Source\PSoC5/StripLights.c **** *  x0, y0:  The upper lefthand corner.
 872:Generated_Source\PSoC5/StripLights.c **** *  x1, y1:  The lower right corner.
 873:Generated_Source\PSoC5/StripLights.c **** *  fill:    Non-Zero if retangle is to be filled.
 874:Generated_Source\PSoC5/StripLights.c **** *  color:   Color for rectangle, border and fill.
 875:Generated_Source\PSoC5/StripLights.c **** *
 876:Generated_Source\PSoC5/StripLights.c **** * Return: 
 877:Generated_Source\PSoC5/StripLights.c **** *  None 
 878:Generated_Source\PSoC5/StripLights.c **** *  
 879:Generated_Source\PSoC5/StripLights.c **** *******************************************************************************/
 880:Generated_Source\PSoC5/StripLights.c **** void StripLights_DrawRect(int32 x0, int32 y0, int32 x1, int32 y1, int32 fill, uint32 color)
 881:Generated_Source\PSoC5/StripLights.c **** {	
 882:Generated_Source\PSoC5/StripLights.c ****      int xDiff;
 883:Generated_Source\PSoC5/StripLights.c **** 	/* Check if the rectangle is to be filled    */
 884:Generated_Source\PSoC5/StripLights.c **** 	if (fill != 0)
 885:Generated_Source\PSoC5/StripLights.c **** 	{	
 886:Generated_Source\PSoC5/StripLights.c ****         /* Find the difference between the x vars */
 887:Generated_Source\PSoC5/StripLights.c **** 		if(x0 > x1)
 888:Generated_Source\PSoC5/StripLights.c **** 		{
ARM GAS  C:\Users\matij\AppData\Local\Temp\ccfrwtxb.s 			page 21


 889:Generated_Source\PSoC5/StripLights.c **** 			xDiff = x0 - x1; 
 890:Generated_Source\PSoC5/StripLights.c **** 		}
 891:Generated_Source\PSoC5/StripLights.c **** 		else
 892:Generated_Source\PSoC5/StripLights.c **** 		{
 893:Generated_Source\PSoC5/StripLights.c **** 			xDiff = x1 - x0;
 894:Generated_Source\PSoC5/StripLights.c **** 		}
 895:Generated_Source\PSoC5/StripLights.c **** 	
 896:Generated_Source\PSoC5/StripLights.c **** 	    /* Fill it with lines  */
 897:Generated_Source\PSoC5/StripLights.c **** 		while(xDiff >= 0)
 898:Generated_Source\PSoC5/StripLights.c **** 		{
 899:Generated_Source\PSoC5/StripLights.c **** 			StripLights_DrawLine(x0, y0, x0, y1, color);
 900:Generated_Source\PSoC5/StripLights.c **** 		
 901:Generated_Source\PSoC5/StripLights.c **** 			if(x0 > x1)
 902:Generated_Source\PSoC5/StripLights.c **** 				x0--;
 903:Generated_Source\PSoC5/StripLights.c **** 			else
 904:Generated_Source\PSoC5/StripLights.c **** 				x0++;
 905:Generated_Source\PSoC5/StripLights.c **** 		
 906:Generated_Source\PSoC5/StripLights.c **** 			xDiff--;
 907:Generated_Source\PSoC5/StripLights.c **** 		}
 908:Generated_Source\PSoC5/StripLights.c **** 
 909:Generated_Source\PSoC5/StripLights.c **** 	}
 910:Generated_Source\PSoC5/StripLights.c **** 	else 
 911:Generated_Source\PSoC5/StripLights.c **** 	{
 912:Generated_Source\PSoC5/StripLights.c **** 		/* Draw the four sides of the rectangle */
 913:Generated_Source\PSoC5/StripLights.c **** 		StripLights_DrawLine(x0, y0, x1, y0, color);
 914:Generated_Source\PSoC5/StripLights.c **** 		StripLights_DrawLine(x0, y1, x1, y1, color);
 915:Generated_Source\PSoC5/StripLights.c **** 		StripLights_DrawLine(x0, y0, x0, y1, color);
 916:Generated_Source\PSoC5/StripLights.c **** 		StripLights_DrawLine(x1, y0, x1, y1, color);
 917:Generated_Source\PSoC5/StripLights.c **** 	}
 918:Generated_Source\PSoC5/StripLights.c **** }
 919:Generated_Source\PSoC5/StripLights.c **** 
 920:Generated_Source\PSoC5/StripLights.c **** /*******************************************************************************
 921:Generated_Source\PSoC5/StripLights.c **** * Function Name: StripLights_Dim
 922:Generated_Source\PSoC5/StripLights.c **** ********************************************************************************
 923:Generated_Source\PSoC5/StripLights.c **** *
 924:Generated_Source\PSoC5/StripLights.c **** * Summary:
 925:Generated_Source\PSoC5/StripLights.c **** *  Dim all output by a specific level (0,1,2,3,4)  
 926:Generated_Source\PSoC5/StripLights.c **** *
 927:Generated_Source\PSoC5/StripLights.c **** * Parameters:  
 928:Generated_Source\PSoC5/StripLights.c **** *  dimLevel:  Dim level 1 to 4, 0 => No dimming.
 929:Generated_Source\PSoC5/StripLights.c **** *
 930:Generated_Source\PSoC5/StripLights.c **** * Return: 
 931:Generated_Source\PSoC5/StripLights.c **** *  None 
 932:Generated_Source\PSoC5/StripLights.c **** *
 933:Generated_Source\PSoC5/StripLights.c **** @14092015^MB + dim mask 0..7 0:Min Dim 7:Max Dim
 934:Generated_Source\PSoC5/StripLights.c **** 
 935:Generated_Source\PSoC5/StripLights.c **** *******************************************************************************/
 936:Generated_Source\PSoC5/StripLights.c **** void StripLights_Dim(uint32 dimLevel) 
 937:Generated_Source\PSoC5/StripLights.c **** {
 938:Generated_Source\PSoC5/StripLights.c **** extern uint32  StripLights_DimMask;
 939:Generated_Source\PSoC5/StripLights.c **** extern uint32  StripLights_DimShift;
 940:Generated_Source\PSoC5/StripLights.c **** 
 941:Generated_Source\PSoC5/StripLights.c ****     switch(dimLevel)
 942:Generated_Source\PSoC5/StripLights.c ****     {           
 943:Generated_Source\PSoC5/StripLights.c ****         case 1:
 944:Generated_Source\PSoC5/StripLights.c ****            StripLights_DimMask = 0x007F7F7F;
 945:Generated_Source\PSoC5/StripLights.c ****            StripLights_DimShift = 1;
ARM GAS  C:\Users\matij\AppData\Local\Temp\ccfrwtxb.s 			page 22


 946:Generated_Source\PSoC5/StripLights.c ****            break;
 947:Generated_Source\PSoC5/StripLights.c ****            
 948:Generated_Source\PSoC5/StripLights.c ****         case 2:
 949:Generated_Source\PSoC5/StripLights.c ****            StripLights_DimMask = 0x003F3F3F;
 950:Generated_Source\PSoC5/StripLights.c ****            StripLights_DimShift = 2;
 951:Generated_Source\PSoC5/StripLights.c ****            break;
 952:Generated_Source\PSoC5/StripLights.c ****            
 953:Generated_Source\PSoC5/StripLights.c ****         case 3:
 954:Generated_Source\PSoC5/StripLights.c ****            StripLights_DimMask = 0x001F1F1F;
 955:Generated_Source\PSoC5/StripLights.c ****            StripLights_DimShift = 3;
 956:Generated_Source\PSoC5/StripLights.c ****            break;
 957:Generated_Source\PSoC5/StripLights.c ****        
 958:Generated_Source\PSoC5/StripLights.c ****         case 4:
 959:Generated_Source\PSoC5/StripLights.c ****            StripLights_DimMask = 0x000F0F0F;
 960:Generated_Source\PSoC5/StripLights.c ****            StripLights_DimShift = 4;
 961:Generated_Source\PSoC5/StripLights.c ****            break;
 962:Generated_Source\PSoC5/StripLights.c ****        
 963:Generated_Source\PSoC5/StripLights.c ****         case 5:
 964:Generated_Source\PSoC5/StripLights.c ****            StripLights_DimMask = 0x00070707;
 965:Generated_Source\PSoC5/StripLights.c ****            StripLights_DimShift = 5;
 966:Generated_Source\PSoC5/StripLights.c ****            break;
 967:Generated_Source\PSoC5/StripLights.c ****        
 968:Generated_Source\PSoC5/StripLights.c ****         case 6:
 969:Generated_Source\PSoC5/StripLights.c ****            StripLights_DimMask = 0x00030303;
 970:Generated_Source\PSoC5/StripLights.c ****            StripLights_DimShift = 6;
 971:Generated_Source\PSoC5/StripLights.c ****            break;
 972:Generated_Source\PSoC5/StripLights.c ****         
 973:Generated_Source\PSoC5/StripLights.c ****         case 7:
 974:Generated_Source\PSoC5/StripLights.c ****            StripLights_DimMask = 0x00010101;
 975:Generated_Source\PSoC5/StripLights.c ****            StripLights_DimShift = 7;
 976:Generated_Source\PSoC5/StripLights.c ****            break;
 977:Generated_Source\PSoC5/StripLights.c ****         
 978:Generated_Source\PSoC5/StripLights.c ****         
 979:Generated_Source\PSoC5/StripLights.c ****        default:
 980:Generated_Source\PSoC5/StripLights.c ****            StripLights_DimMask = 0x00FFFFFF;
 238              		.loc 1 980 0
 239 0034 0C4B     		ldr	r3, .L25+12
 240 0036 6FF07F42 		mvn	r2, #-16777216
 241 003a 1A60     		str	r2, [r3]
 981:Generated_Source\PSoC5/StripLights.c ****            StripLights_DimShift = 0;
 242              		.loc 1 981 0
 243 003c 0B4B     		ldr	r3, .L25+16
 244 003e 1D60     		str	r5, [r3]
 245              	.LVL10:
 246              	.LBE5:
 247              	.LBE4:
 250:Generated_Source\PSoC5/StripLights.c ****     {
 248              		.loc 1 250 0
 249 0040 0B4B     		ldr	r3, .L25+20
 250 0042 1A7A     		ldrb	r2, [r3, #8]	@ zero_extendqisi2
 251 0044 32B9     		cbnz	r2, .L24
 259:Generated_Source\PSoC5/StripLights.c **** 		   StripLights_fisr_StartEx(StripLights_FISR);
 252              		.loc 1 259 0
 253 0046 0B48     		ldr	r0, .L25+24
 253:Generated_Source\PSoC5/StripLights.c ****  
 254              		.loc 1 253 0
 255 0048 1C72     		strb	r4, [r3, #8]
ARM GAS  C:\Users\matij\AppData\Local\Temp\ccfrwtxb.s 			page 23


 259:Generated_Source\PSoC5/StripLights.c **** 		   StripLights_fisr_StartEx(StripLights_FISR);
 256              		.loc 1 259 0
 257 004a FFF7FEFF 		bl	StripLights_cisr_StartEx
 258              	.LVL11:
 260:Generated_Source\PSoC5/StripLights.c ****        }
 259              		.loc 1 260 0
 260 004e 0A48     		ldr	r0, .L25+28
 261 0050 FFF7FEFF 		bl	StripLights_fisr_StartEx
 262              	.LVL12:
 263              	.L24:
 268:Generated_Source\PSoC5/StripLights.c **** }
 264              		.loc 1 268 0
 265 0054 094B     		ldr	r3, .L25+32
 266 0056 0122     		movs	r2, #1
 267 0058 1A60     		str	r2, [r3]
 268 005a 38BD     		pop	{r3, r4, r5, pc}
 269              	.L26:
 270              		.align	2
 271              	.L25:
 272 005c 00000000 		.word	StripLights_UseGammaCorrection
 273 0060 9B650040 		.word	1073767835
 274 0064 78640040 		.word	1073767544
 275 0068 00000000 		.word	StripLights_DimMask
 276 006c 00000000 		.word	StripLights_DimShift
 277 0070 00000000 		.word	.LANCHOR0
 278 0074 00000000 		.word	StripLights_CISR
 279 0078 00000000 		.word	StripLights_FISR
 280 007c 00000000 		.word	StripLights_refreshComplete
 281              		.cfi_endproc
 282              	.LFE64:
 283              		.size	StripLights_Start, .-StripLights_Start
 284              		.section	.text.StripLights_WriteColor,"ax",%progbits
 285              		.align	1
 286              		.global	StripLights_WriteColor
 287              		.thumb
 288              		.thumb_func
 289              		.type	StripLights_WriteColor, %function
 290              	StripLights_WriteColor:
 291              	.LFB74:
 556:Generated_Source\PSoC5/StripLights.c ****     while( (StripLights_STATUS & StripLights_FIFO_EMPTY) == 0); 
 292              		.loc 1 556 0
 293              		.cfi_startproc
 294              		@ args = 0, pretend = 0, frame = 0
 295              		@ frame_needed = 0, uses_anonymous_args = 0
 296              		@ link register save eliminated.
 297              	.LVL13:
 557:Generated_Source\PSoC5/StripLights.c **** 
 298              		.loc 1 557 0
 299 0000 074A     		ldr	r2, .L31
 300              	.L28:
 557:Generated_Source\PSoC5/StripLights.c **** 
 301              		.loc 1 557 0 is_stmt 0 discriminator 1
 302 0002 1378     		ldrb	r3, [r2]	@ zero_extendqisi2
 303 0004 DB07     		lsls	r3, r3, #31
 304 0006 FCD5     		bpl	.L28
 305              	.LVL14:
 563:Generated_Source\PSoC5/StripLights.c ****     color = color >> 8;
ARM GAS  C:\Users\matij\AppData\Local\Temp\ccfrwtxb.s 			page 24


 306              		.loc 1 563 0 is_stmt 1
 307 0008 064B     		ldr	r3, .L31+4
 308 000a C2B2     		uxtb	r2, r0
 309 000c 1A70     		strb	r2, [r3]
 565:Generated_Source\PSoC5/StripLights.c ****     color = color >> 8;
 310              		.loc 1 565 0
 311 000e C0F30722 		ubfx	r2, r0, #8, #8
 312 0012 1A70     		strb	r2, [r3]
 567:Generated_Source\PSoC5/StripLights.c ****     color = color >> 8;
 313              		.loc 1 567 0
 314 0014 C0F30742 		ubfx	r2, r0, #16, #8
 569:Generated_Source\PSoC5/StripLights.c ****     
 315              		.loc 1 569 0
 316 0018 000E     		lsrs	r0, r0, #24
 317              	.LVL15:
 567:Generated_Source\PSoC5/StripLights.c ****     color = color >> 8;
 318              		.loc 1 567 0
 319 001a 1A70     		strb	r2, [r3]
 320              	.LVL16:
 569:Generated_Source\PSoC5/StripLights.c ****     
 321              		.loc 1 569 0
 322 001c 1870     		strb	r0, [r3]
 323 001e 7047     		bx	lr
 324              	.L32:
 325              		.align	2
 326              	.L31:
 327 0020 6B640040 		.word	1073767531
 328 0024 48650040 		.word	1073767752
 329              		.cfi_endproc
 330              	.LFE74:
 331              		.size	StripLights_WriteColor, .-StripLights_WriteColor
 332              		.section	.text.StripLights_Trigger,"ax",%progbits
 333              		.align	1
 334              		.global	StripLights_Trigger
 335              		.thumb
 336              		.thumb_func
 337              		.type	StripLights_Trigger, %function
 338              	StripLights_Trigger:
 339              	.LFB65:
 286:Generated_Source\PSoC5/StripLights.c ****     uint32 color;
 340              		.loc 1 286 0
 341              		.cfi_startproc
 342              		@ args = 0, pretend = 0, frame = 0
 343              		@ frame_needed = 0, uses_anonymous_args = 0
 344              	.LVL17:
 345 0000 08B5     		push	{r3, lr}
 346              		.cfi_def_cfa_offset 8
 347              		.cfi_offset 3, -8
 348              		.cfi_offset 14, -4
 349 0002 0B49     		ldr	r1, .L38
 289:Generated_Source\PSoC5/StripLights.c ****     {
 350              		.loc 1 289 0
 351 0004 18B1     		cbz	r0, .L34
 292:Generated_Source\PSoC5/StripLights.c ****     }
 352              		.loc 1 292 0
 353 0006 0B4A     		ldr	r2, .L38+4
 291:Generated_Source\PSoC5/StripLights.c ****         StripLights_Channel = 0;
ARM GAS  C:\Users\matij\AppData\Local\Temp\ccfrwtxb.s 			page 25


 354              		.loc 1 291 0
 355 0008 0023     		movs	r3, #0
 356 000a CB60     		str	r3, [r1, #12]
 292:Generated_Source\PSoC5/StripLights.c ****     }
 357              		.loc 1 292 0
 358 000c 1370     		strb	r3, [r2]
 359              	.L34:
 360              	.LVL18:
 296:Generated_Source\PSoC5/StripLights.c ****     #else  /* Else use lookup table */
 361              		.loc 1 296 0
 362 000e CA68     		ldr	r2, [r1, #12]
 363 0010 4FF49663 		mov	r3, #1200
 364 0014 5343     		muls	r3, r2, r3
 301:Generated_Source\PSoC5/StripLights.c ****     
 365              		.loc 1 301 0
 366 0016 084A     		ldr	r2, .L38+8
 367 0018 D058     		ldr	r0, [r2, r3]
 368              	.LVL19:
 369 001a FFF7FEFF 		bl	StripLights_WriteColor
 370              	.LVL20:
 303:Generated_Source\PSoC5/StripLights.c ****  //   StripLights_CONTROL = StripLights_ENABLE | StripLights_FIFO_IRQ_EN; 
 371              		.loc 1 303 0
 372 001e 0123     		movs	r3, #1
 373 0020 0B61     		str	r3, [r1, #16]
 306:Generated_Source\PSoC5/StripLights.c ****     StripLights_refreshComplete = 0;
 374              		.loc 1 306 0
 375 0022 064B     		ldr	r3, .L38+12
 376 0024 1922     		movs	r2, #25
 377 0026 1A70     		strb	r2, [r3]
 307:Generated_Source\PSoC5/StripLights.c **** }
 378              		.loc 1 307 0
 379 0028 054B     		ldr	r3, .L38+16
 380 002a 0022     		movs	r2, #0
 381 002c 1A60     		str	r2, [r3]
 382 002e 08BD     		pop	{r3, pc}
 383              	.L39:
 384              		.align	2
 385              	.L38:
 386 0030 00000000 		.word	.LANCHOR0
 387 0034 7B640040 		.word	1073767547
 388 0038 00000000 		.word	StripLights_ledArray
 389 003c 78640040 		.word	1073767544
 390 0040 00000000 		.word	StripLights_refreshComplete
 391              		.cfi_endproc
 392              	.LFE65:
 393              		.size	StripLights_Trigger, .-StripLights_Trigger
 394              		.section	.text.StripLights_DisplayClear,"ax",%progbits
 395              		.align	1
 396              		.global	StripLights_DisplayClear
 397              		.thumb
 398              		.thumb_func
 399              		.type	StripLights_DisplayClear, %function
 400              	StripLights_DisplayClear:
 401              	.LFB72:
 504:Generated_Source\PSoC5/StripLights.c ****     StripLights_MemClear(color);
 402              		.loc 1 504 0
 403              		.cfi_startproc
ARM GAS  C:\Users\matij\AppData\Local\Temp\ccfrwtxb.s 			page 26


 404              		@ args = 0, pretend = 0, frame = 0
 405              		@ frame_needed = 0, uses_anonymous_args = 0
 406              	.LVL21:
 407 0000 08B5     		push	{r3, lr}
 408              		.cfi_def_cfa_offset 8
 409              		.cfi_offset 3, -8
 410              		.cfi_offset 14, -4
 505:Generated_Source\PSoC5/StripLights.c ****     StripLights_Trigger(1);
 411              		.loc 1 505 0
 412 0002 FFF7FEFF 		bl	StripLights_MemClear
 413              	.LVL22:
 507:Generated_Source\PSoC5/StripLights.c **** 
 414              		.loc 1 507 0
 415 0006 BDE80840 		pop	{r3, lr}
 416              		.cfi_restore 14
 417              		.cfi_restore 3
 418              		.cfi_def_cfa_offset 0
 506:Generated_Source\PSoC5/StripLights.c **** }
 419              		.loc 1 506 0
 420 000a 0120     		movs	r0, #1
 421 000c FFF7FEBF 		b	StripLights_Trigger
 422              	.LVL23:
 423              		.cfi_endproc
 424              	.LFE72:
 425              		.size	StripLights_DisplayClear, .-StripLights_DisplayClear
 426              		.section	.text.StripLights_FISR,"ax",%progbits
 427              		.align	1
 428              		.global	StripLights_FISR
 429              		.thumb
 430              		.thumb_func
 431              		.type	StripLights_FISR, %function
 432              	StripLights_FISR:
 433              	.LFB70:
 414:Generated_Source\PSoC5/StripLights.c ****     extern uint32  StripLights_DimMask;
 434              		.loc 1 414 0
 435              		.cfi_startproc
 436              		@ args = 0, pretend = 0, frame = 0
 437              		@ frame_needed = 0, uses_anonymous_args = 0
 438              		@ link register save eliminated.
 419:Generated_Source\PSoC5/StripLights.c ****     {
 439              		.loc 1 419 0
 440 0000 0A49     		ldr	r1, .L43
 441 0002 0B69     		ldr	r3, [r1, #16]
 442 0004 B3F5967F 		cmp	r3, #300
 443 0008 0BD2     		bcs	.L42
 422:Generated_Source\PSoC5/StripLights.c ****         #else  /* Else use lookup table */
 444              		.loc 1 422 0
 445 000a CA68     		ldr	r2, [r1, #12]
 446 000c 581C     		adds	r0, r3, #1
 447 000e 0861     		str	r0, [r1, #16]
 448 0010 4FF49671 		mov	r1, #300
 449 0014 01FB0233 		mla	r3, r1, r2, r3
 427:Generated_Source\PSoC5/StripLights.c ****     }
 450              		.loc 1 427 0
 451 0018 054A     		ldr	r2, .L43+4
 452 001a 52F82300 		ldr	r0, [r2, r3, lsl #2]
 453 001e FFF7FEBF 		b	StripLights_WriteColor
ARM GAS  C:\Users\matij\AppData\Local\Temp\ccfrwtxb.s 			page 27


 454              	.LVL24:
 455              	.L42:
 431:Generated_Source\PSoC5/StripLights.c ****     }
 456              		.loc 1 431 0
 457 0022 044B     		ldr	r3, .L43+8
 458 0024 1122     		movs	r2, #17
 459 0026 1A70     		strb	r2, [r3]
 460 0028 7047     		bx	lr
 461              	.L44:
 462 002a 00BF     		.align	2
 463              	.L43:
 464 002c 00000000 		.word	.LANCHOR0
 465 0030 00000000 		.word	StripLights_ledArray
 466 0034 78640040 		.word	1073767544
 467              		.cfi_endproc
 468              	.LFE70:
 469              		.size	StripLights_FISR, .-StripLights_FISR
 470              		.section	.text.StripLights_CISR,"ax",%progbits
 471              		.align	1
 472              		.global	StripLights_CISR
 473              		.thumb
 474              		.thumb_func
 475              		.type	StripLights_CISR, %function
 476              	StripLights_CISR:
 477              	.LFB71:
 454:Generated_Source\PSoC5/StripLights.c ****     extern uint32  StripLights_DimMask;
 478              		.loc 1 454 0
 479              		.cfi_startproc
 480              		@ args = 0, pretend = 0, frame = 0
 481              		@ frame_needed = 0, uses_anonymous_args = 0
 482 0000 10B5     		push	{r4, lr}
 483              		.cfi_def_cfa_offset 8
 484              		.cfi_offset 4, -8
 485              		.cfi_offset 14, -4
 460:Generated_Source\PSoC5/StripLights.c ****     StripLights_row++;
 486              		.loc 1 460 0
 487 0002 104C     		ldr	r4, .L51
 488 0004 2123     		movs	r3, #33
 461:Generated_Source\PSoC5/StripLights.c ****     if( StripLights_row < StripLights_ARRAY_ROWS)  /* More Rows to do  */
 489              		.loc 1 461 0
 490 0006 1049     		ldr	r1, .L51+4
 460:Generated_Source\PSoC5/StripLights.c ****     StripLights_row++;
 491              		.loc 1 460 0
 492 0008 2370     		strb	r3, [r4]
 461:Generated_Source\PSoC5/StripLights.c ****     if( StripLights_row < StripLights_ARRAY_ROWS)  /* More Rows to do  */
 493              		.loc 1 461 0
 494 000a CB68     		ldr	r3, [r1, #12]
 495 000c 0133     		adds	r3, r3, #1
 496 000e CB60     		str	r3, [r1, #12]
 462:Generated_Source\PSoC5/StripLights.c ****     {
 497              		.loc 1 462 0
 498 0010 53B9     		cbnz	r3, .L46
 464:Generated_Source\PSoC5/StripLights.c **** 
 499              		.loc 1 464 0
 500 0012 0E4A     		ldr	r2, .L51+8
 501 0014 1370     		strb	r3, [r2]
 467:Generated_Source\PSoC5/StripLights.c ****         #else  /* Else use lookup table */
ARM GAS  C:\Users\matij\AppData\Local\Temp\ccfrwtxb.s 			page 28


 502              		.loc 1 467 0
 503 0016 0E4B     		ldr	r3, .L51+12
 472:Generated_Source\PSoC5/StripLights.c **** 
 504              		.loc 1 472 0
 505 0018 1868     		ldr	r0, [r3]
 506 001a FFF7FEFF 		bl	StripLights_WriteColor
 507              	.LVL25:
 474:Generated_Source\PSoC5/StripLights.c **** 		StripLights_CONTROL = StripLights_ENABLE | StripLights_FIFO_IRQ_EN; 
 508              		.loc 1 474 0
 509 001e 0123     		movs	r3, #1
 510 0020 0B61     		str	r3, [r1, #16]
 475:Generated_Source\PSoC5/StripLights.c **** 		
 511              		.loc 1 475 0
 512 0022 0923     		movs	r3, #9
 513 0024 2370     		strb	r3, [r4]
 514 0026 10BD     		pop	{r4, pc}
 515              	.L46:
 480:Generated_Source\PSoC5/StripLights.c ****         if (StripLights_Done != NULL ) {
 516              		.loc 1 480 0
 517 0028 0A4B     		ldr	r3, .L51+16
 481:Generated_Source\PSoC5/StripLights.c ****             CyDelay(1);
 518              		.loc 1 481 0
 519 002a 0B4C     		ldr	r4, .L51+20
 480:Generated_Source\PSoC5/StripLights.c ****         if (StripLights_Done != NULL ) {
 520              		.loc 1 480 0
 521 002c 0120     		movs	r0, #1
 522 002e 1860     		str	r0, [r3]
 481:Generated_Source\PSoC5/StripLights.c ****             CyDelay(1);
 523              		.loc 1 481 0
 524 0030 2368     		ldr	r3, [r4]
 525 0032 2BB1     		cbz	r3, .L45
 526              	.LBB8:
 527              	.LBB9:
 482:Generated_Source\PSoC5/StripLights.c ****             StripLights_Done();
 528              		.loc 1 482 0
 529 0034 FFF7FEFF 		bl	CyDelay
 530              	.LVL26:
 483:Generated_Source\PSoC5/StripLights.c ****         }
 531              		.loc 1 483 0
 532 0038 2368     		ldr	r3, [r4]
 533              	.LBE9:
 534              	.LBE8:
 487:Generated_Source\PSoC5/StripLights.c **** 
 535              		.loc 1 487 0
 536 003a BDE81040 		pop	{r4, lr}
 537              		.cfi_remember_state
 538              		.cfi_restore 14
 539              		.cfi_restore 4
 540              		.cfi_def_cfa_offset 0
 541              	.LBB11:
 542              	.LBB10:
 483:Generated_Source\PSoC5/StripLights.c ****         }
 543              		.loc 1 483 0
 544 003e 1847     		bx	r3	@ indirect register sibling call
 545              	.LVL27:
 546              	.L45:
 547              		.cfi_restore_state
ARM GAS  C:\Users\matij\AppData\Local\Temp\ccfrwtxb.s 			page 29


 548 0040 10BD     		pop	{r4, pc}
 549              	.L52:
 550 0042 00BF     		.align	2
 551              	.L51:
 552 0044 78640040 		.word	1073767544
 553 0048 00000000 		.word	.LANCHOR0
 554 004c 7B640040 		.word	1073767547
 555 0050 00000000 		.word	StripLights_ledArray
 556 0054 00000000 		.word	StripLights_refreshComplete
 557 0058 00000000 		.word	StripLights_Done
 558              	.LBE10:
 559              	.LBE11:
 560              		.cfi_endproc
 561              	.LFE71:
 562              		.size	StripLights_CISR, .-StripLights_CISR
 563              		.global	__aeabi_f2d
 564              		.global	__aeabi_i2f
 565              		.global	__aeabi_fcmpeq
 566              		.global	__aeabi_fsub
 567              		.global	__aeabi_fdiv
 568              		.global	__aeabi_fadd
 569              		.global	__aeabi_fmul
 570              		.global	__aeabi_fcmplt
 571              		.section	.text.StripLights_RGBtoHSV,"ax",%progbits
 572              		.align	1
 573              		.global	StripLights_RGBtoHSV
 574              		.thumb
 575              		.thumb_func
 576              		.type	StripLights_RGBtoHSV, %function
 577              	StripLights_RGBtoHSV:
 578              	.LFB75:
 588:Generated_Source\PSoC5/StripLights.c **** 	float min, max, delta;
 579              		.loc 1 588 0
 580              		.cfi_startproc
 581              		@ args = 8, pretend = 0, frame = 16
 582              		@ frame_needed = 0, uses_anonymous_args = 0
 583              	.LVL28:
 584 0000 2DE9F04F 		push	{r4, r5, r6, r7, r8, r9, r10, fp, lr}
 585              		.cfi_def_cfa_offset 36
 586              		.cfi_offset 4, -36
 587              		.cfi_offset 5, -32
 588              		.cfi_offset 6, -28
 589              		.cfi_offset 7, -24
 590              		.cfi_offset 8, -20
 591              		.cfi_offset 9, -16
 592              		.cfi_offset 10, -12
 593              		.cfi_offset 11, -8
 594              		.cfi_offset 14, -4
 595 0004 87B0     		sub	sp, sp, #28
 596              		.cfi_def_cfa_offset 64
 588:Generated_Source\PSoC5/StripLights.c **** 	float min, max, delta;
 597              		.loc 1 588 0
 598 0006 1746     		mov	r7, r2
 599 0008 1C46     		mov	r4, r3
 600 000a 0D46     		mov	r5, r1
 601 000c 0646     		mov	r6, r0
 590:Generated_Source\PSoC5/StripLights.c **** 	max = MAX( r, g, b );
ARM GAS  C:\Users\matij\AppData\Local\Temp\ccfrwtxb.s 			page 30


 602              		.loc 1 590 0
 603 000e FFF7FEFF 		bl	__aeabi_f2d
 604              	.LVL29:
 605 0012 8046     		mov	r8, r0
 606 0014 2846     		mov	r0, r5
 607 0016 8946     		mov	r9, r1
 608 0018 FFF7FEFF 		bl	__aeabi_f2d
 609              	.LVL30:
 610 001c 8246     		mov	r10, r0
 611 001e 3846     		mov	r0, r7
 612 0020 8B46     		mov	fp, r1
 613 0022 FFF7FEFF 		bl	__aeabi_f2d
 614              	.LVL31:
 615 0026 0246     		mov	r2, r0
 616 0028 0B46     		mov	r3, r1
 617 002a CDE90201 		strd	r0, [sp, #8]
 618 002e CDE90023 		strd	r2, [sp]
 619 0032 4946     		mov	r1, r9
 620 0034 5246     		mov	r2, r10
 621 0036 5B46     		mov	r3, fp
 622 0038 4046     		mov	r0, r8
 623 003a FFF7FEFF 		bl	MIN
 624              	.LVL32:
 591:Generated_Source\PSoC5/StripLights.c **** 	*v = max;				// v
 625              		.loc 1 591 0
 626 003e DDE90223 		ldrd	r2, [sp, #8]
 627 0042 4946     		mov	r1, r9
 628 0044 CDE90023 		strd	r2, [sp]
 590:Generated_Source\PSoC5/StripLights.c **** 	max = MAX( r, g, b );
 629              		.loc 1 590 0
 630 0048 0590     		str	r0, [sp, #20]
 631              	.LVL33:
 591:Generated_Source\PSoC5/StripLights.c **** 	*v = max;				// v
 632              		.loc 1 591 0
 633 004a 5B46     		mov	r3, fp
 634 004c 5246     		mov	r2, r10
 635 004e 4046     		mov	r0, r8
 636              	.LVL34:
 637 0050 FFF7FEFF 		bl	MAX
 638              	.LVL35:
 639 0054 FFF7FEFF 		bl	__aeabi_i2f
 640              	.LVL36:
 592:Generated_Source\PSoC5/StripLights.c **** 	delta = max - min;
 641              		.loc 1 592 0
 642 0058 119B     		ldr	r3, [sp, #68]
 594:Generated_Source\PSoC5/StripLights.c **** 		*s = delta / max;		// s
 643              		.loc 1 594 0
 644 005a 4FF00009 		mov	r9, #0
 592:Generated_Source\PSoC5/StripLights.c **** 	delta = max - min;
 645              		.loc 1 592 0
 646 005e 1860     		str	r0, [r3]	@ float
 594:Generated_Source\PSoC5/StripLights.c **** 		*s = delta / max;		// s
 647              		.loc 1 594 0
 648 0060 4946     		mov	r1, r9
 591:Generated_Source\PSoC5/StripLights.c **** 	*v = max;				// v
 649              		.loc 1 591 0
 650 0062 8046     		mov	r8, r0
ARM GAS  C:\Users\matij\AppData\Local\Temp\ccfrwtxb.s 			page 31


 651              	.LVL37:
 594:Generated_Source\PSoC5/StripLights.c **** 		*s = delta / max;		// s
 652              		.loc 1 594 0
 653 0064 FFF7FEFF 		bl	__aeabi_fcmpeq
 654              	.LVL38:
 655 0068 C8B9     		cbnz	r0, .L65
 593:Generated_Source\PSoC5/StripLights.c **** 	if( max != 0 )
 656              		.loc 1 593 0
 657 006a 0598     		ldr	r0, [sp, #20]
 658 006c FFF7FEFF 		bl	__aeabi_i2f
 659              	.LVL39:
 660 0070 0146     		mov	r1, r0
 661 0072 4046     		mov	r0, r8
 662 0074 FFF7FEFF 		bl	__aeabi_fsub
 663              	.LVL40:
 595:Generated_Source\PSoC5/StripLights.c **** 	else {
 664              		.loc 1 595 0
 665 0078 4146     		mov	r1, r8
 593:Generated_Source\PSoC5/StripLights.c **** 	if( max != 0 )
 666              		.loc 1 593 0
 667 007a 8146     		mov	r9, r0
 595:Generated_Source\PSoC5/StripLights.c **** 	else {
 668              		.loc 1 595 0
 669 007c FFF7FEFF 		bl	__aeabi_fdiv
 670              	.LVL41:
 671 0080 109B     		ldr	r3, [sp, #64]
 602:Generated_Source\PSoC5/StripLights.c **** 		*h = ( g - b ) / delta;		// between yellow & magenta
 672              		.loc 1 602 0
 673 0082 4146     		mov	r1, r8
 595:Generated_Source\PSoC5/StripLights.c **** 	else {
 674              		.loc 1 595 0
 675 0084 1860     		str	r0, [r3]	@ float
 602:Generated_Source\PSoC5/StripLights.c **** 		*h = ( g - b ) / delta;		// between yellow & magenta
 676              		.loc 1 602 0
 677 0086 3046     		mov	r0, r6
 678 0088 FFF7FEFF 		bl	__aeabi_fcmpeq
 679              	.LVL42:
 680 008c 68B1     		cbz	r0, .L70
 603:Generated_Source\PSoC5/StripLights.c **** 	else if( g == max )
 681              		.loc 1 603 0
 682 008e 3946     		mov	r1, r7
 683 0090 2846     		mov	r0, r5
 684 0092 FFF7FEFF 		bl	__aeabi_fsub
 685              	.LVL43:
 686 0096 4946     		mov	r1, r9
 687 0098 FFF7FEFF 		bl	__aeabi_fdiv
 688              	.LVL44:
 689 009c 1FE0     		b	.L68
 690              	.L65:
 598:Generated_Source\PSoC5/StripLights.c **** 		*h = -1;
 691              		.loc 1 598 0
 692 009e 109B     		ldr	r3, [sp, #64]
 693 00a0 C3F80090 		str	r9, [r3]	@ float
 599:Generated_Source\PSoC5/StripLights.c **** 		return;
 694              		.loc 1 599 0
 695 00a4 184B     		ldr	r3, .L71
 696 00a6 2360     		str	r3, [r4]	@ float
ARM GAS  C:\Users\matij\AppData\Local\Temp\ccfrwtxb.s 			page 32


 600:Generated_Source\PSoC5/StripLights.c **** 	}
 697              		.loc 1 600 0
 698 00a8 2AE0     		b	.L53
 699              	.L70:
 604:Generated_Source\PSoC5/StripLights.c **** 		*h = 2 + ( b - r ) / delta;	// between cyan & yellow
 700              		.loc 1 604 0
 701 00aa 4146     		mov	r1, r8
 702 00ac 2846     		mov	r0, r5
 703 00ae FFF7FEFF 		bl	__aeabi_fcmpeq
 704              	.LVL45:
 705 00b2 48B1     		cbz	r0, .L67
 605:Generated_Source\PSoC5/StripLights.c **** 	else
 706              		.loc 1 605 0
 707 00b4 3146     		mov	r1, r6
 708 00b6 3846     		mov	r0, r7
 709 00b8 FFF7FEFF 		bl	__aeabi_fsub
 710              	.LVL46:
 711 00bc 4946     		mov	r1, r9
 712 00be FFF7FEFF 		bl	__aeabi_fdiv
 713              	.LVL47:
 714 00c2 4FF08041 		mov	r1, #1073741824
 715 00c6 08E0     		b	.L69
 716              	.L67:
 607:Generated_Source\PSoC5/StripLights.c **** 	*h *= 60;				// degrees
 717              		.loc 1 607 0
 718 00c8 2946     		mov	r1, r5
 719 00ca 3046     		mov	r0, r6
 720 00cc FFF7FEFF 		bl	__aeabi_fsub
 721              	.LVL48:
 722 00d0 4946     		mov	r1, r9
 723 00d2 FFF7FEFF 		bl	__aeabi_fdiv
 724              	.LVL49:
 725 00d6 4FF08141 		mov	r1, #1082130432
 726              	.L69:
 727 00da FFF7FEFF 		bl	__aeabi_fadd
 728              	.LVL50:
 729              	.L68:
 730 00de 2060     		str	r0, [r4]	@ float
 608:Generated_Source\PSoC5/StripLights.c **** 	if( *h < 0 )
 731              		.loc 1 608 0
 732 00e0 0A49     		ldr	r1, .L71+4
 733 00e2 2068     		ldr	r0, [r4]	@ float
 734 00e4 FFF7FEFF 		bl	__aeabi_fmul
 735              	.LVL51:
 609:Generated_Source\PSoC5/StripLights.c **** 		*h += 360;
 736              		.loc 1 609 0
 737 00e8 0021     		movs	r1, #0
 608:Generated_Source\PSoC5/StripLights.c **** 	if( *h < 0 )
 738              		.loc 1 608 0
 739 00ea 0546     		mov	r5, r0
 740              	.LVL52:
 609:Generated_Source\PSoC5/StripLights.c **** 		*h += 360;
 741              		.loc 1 609 0
 742 00ec FFF7FEFF 		bl	__aeabi_fcmplt
 743              	.LVL53:
 744 00f0 08B9     		cbnz	r0, .L62
 608:Generated_Source\PSoC5/StripLights.c **** 	if( *h < 0 )
ARM GAS  C:\Users\matij\AppData\Local\Temp\ccfrwtxb.s 			page 33


 745              		.loc 1 608 0
 746 00f2 2560     		str	r5, [r4]	@ float
 747 00f4 04E0     		b	.L53
 748              	.L62:
 610:Generated_Source\PSoC5/StripLights.c **** }
 749              		.loc 1 610 0
 750 00f6 0649     		ldr	r1, .L71+8
 751 00f8 2846     		mov	r0, r5
 752 00fa FFF7FEFF 		bl	__aeabi_fadd
 753              	.LVL54:
 754 00fe 2060     		str	r0, [r4]	@ float
 755              	.L53:
 611:Generated_Source\PSoC5/StripLights.c **** 
 756              		.loc 1 611 0
 757 0100 07B0     		add	sp, sp, #28
 758              		.cfi_def_cfa_offset 36
 759              		@ sp needed
 760 0102 BDE8F08F 		pop	{r4, r5, r6, r7, r8, r9, r10, fp, pc}
 761              	.LVL55:
 762              	.L72:
 763 0106 00BF     		.align	2
 764              	.L71:
 765 0108 000080BF 		.word	-1082130432
 766 010c 00007042 		.word	1114636288
 767 0110 0000B443 		.word	1135869952
 768              		.cfi_endproc
 769              	.LFE75:
 770              		.size	StripLights_RGBtoHSV, .-StripLights_RGBtoHSV
 771              		.global	__aeabi_f2iz
 772              		.section	.text.StripLights_HSVtoRGB,"ax",%progbits
 773              		.align	1
 774              		.global	StripLights_HSVtoRGB
 775              		.thumb
 776              		.thumb_func
 777              		.type	StripLights_HSVtoRGB, %function
 778              	StripLights_HSVtoRGB:
 779              	.LFB76:
 618:Generated_Source\PSoC5/StripLights.c **** 	int i;
 780              		.loc 1 618 0
 781              		.cfi_startproc
 782              		@ args = 8, pretend = 0, frame = 0
 783              		@ frame_needed = 0, uses_anonymous_args = 0
 784              	.LVL56:
 785 0000 2DE9F84F 		push	{r3, r4, r5, r6, r7, r8, r9, r10, fp, lr}
 786              		.cfi_def_cfa_offset 40
 787              		.cfi_offset 3, -40
 788              		.cfi_offset 4, -36
 789              		.cfi_offset 5, -32
 790              		.cfi_offset 6, -28
 791              		.cfi_offset 7, -24
 792              		.cfi_offset 8, -20
 793              		.cfi_offset 9, -16
 794              		.cfi_offset 10, -12
 795              		.cfi_offset 11, -8
 796              		.cfi_offset 14, -4
 618:Generated_Source\PSoC5/StripLights.c **** 	int i;
 797              		.loc 1 618 0
ARM GAS  C:\Users\matij\AppData\Local\Temp\ccfrwtxb.s 			page 34


 798 0004 0746     		mov	r7, r0
 799 0006 0E46     		mov	r6, r1
 621:Generated_Source\PSoC5/StripLights.c **** 		// achromatic (grey)
 800              		.loc 1 621 0
 801 0008 0A98     		ldr	r0, [sp, #40]	@ float
 802              	.LVL57:
 803 000a 0021     		movs	r1, #0
 804              	.LVL58:
 618:Generated_Source\PSoC5/StripLights.c **** 	int i;
 805              		.loc 1 618 0
 806 000c 1546     		mov	r5, r2
 807 000e 9846     		mov	r8, r3
 808 0010 0B9C     		ldr	r4, [sp, #44]	@ float
 621:Generated_Source\PSoC5/StripLights.c **** 		// achromatic (grey)
 809              		.loc 1 621 0
 810 0012 FFF7FEFF 		bl	__aeabi_fcmpeq
 811              	.LVL59:
 812 0016 20B1     		cbz	r0, .L85
 623:Generated_Source\PSoC5/StripLights.c **** 		return;
 813              		.loc 1 623 0
 814 0018 2C60     		str	r4, [r5]	@ float
 815 001a 3460     		str	r4, [r6]	@ float
 816 001c 3C60     		str	r4, [r7]	@ float
 624:Generated_Source\PSoC5/StripLights.c **** 	}
 817              		.loc 1 624 0
 818 001e BDE8F88F 		pop	{r3, r4, r5, r6, r7, r8, r9, r10, fp, pc}
 819              	.LVL60:
 820              	.L85:
 821              	.LBB14:
 822              	.LBB15:
 626:Generated_Source\PSoC5/StripLights.c **** 	i = (int) h;
 823              		.loc 1 626 0
 824 0022 2F49     		ldr	r1, .L88
 825 0024 4046     		mov	r0, r8
 826 0026 FFF7FEFF 		bl	__aeabi_fdiv
 827              	.LVL61:
 828 002a 8046     		mov	r8, r0
 829              	.LVL62:
 627:Generated_Source\PSoC5/StripLights.c **** 	f = h - i;			// factorial part of h
 830              		.loc 1 627 0
 831 002c FFF7FEFF 		bl	__aeabi_f2iz
 832              	.LVL63:
 833 0030 8246     		mov	r10, r0
 834              	.LVL64:
 628:Generated_Source\PSoC5/StripLights.c **** 	p = v * ( 1 - s );
 835              		.loc 1 628 0
 836 0032 FFF7FEFF 		bl	__aeabi_i2f
 837              	.LVL65:
 838 0036 0146     		mov	r1, r0
 839 0038 4046     		mov	r0, r8
 840 003a FFF7FEFF 		bl	__aeabi_fsub
 841              	.LVL66:
 629:Generated_Source\PSoC5/StripLights.c **** 	q = v * ( 1 - s * f );
 842              		.loc 1 629 0
 843 003e 0A99     		ldr	r1, [sp, #40]	@ float
 628:Generated_Source\PSoC5/StripLights.c **** 	p = v * ( 1 - s );
 844              		.loc 1 628 0
ARM GAS  C:\Users\matij\AppData\Local\Temp\ccfrwtxb.s 			page 35


 845 0040 8346     		mov	fp, r0
 846              	.LVL67:
 629:Generated_Source\PSoC5/StripLights.c **** 	q = v * ( 1 - s * f );
 847              		.loc 1 629 0
 848 0042 4FF07E50 		mov	r0, #1065353216
 849              	.LVL68:
 850 0046 FFF7FEFF 		bl	__aeabi_fsub
 851              	.LVL69:
 852 004a 2146     		mov	r1, r4
 853 004c FFF7FEFF 		bl	__aeabi_fmul
 854              	.LVL70:
 630:Generated_Source\PSoC5/StripLights.c **** 	t = v * ( 1 - s * ( 1 - f ) );
 855              		.loc 1 630 0
 856 0050 5946     		mov	r1, fp
 629:Generated_Source\PSoC5/StripLights.c **** 	q = v * ( 1 - s * f );
 857              		.loc 1 629 0
 858 0052 8046     		mov	r8, r0
 859              	.LVL71:
 630:Generated_Source\PSoC5/StripLights.c **** 	t = v * ( 1 - s * ( 1 - f ) );
 860              		.loc 1 630 0
 861 0054 0A98     		ldr	r0, [sp, #40]	@ float
 862              	.LVL72:
 863 0056 FFF7FEFF 		bl	__aeabi_fmul
 864              	.LVL73:
 865 005a 0146     		mov	r1, r0
 866 005c 4FF07E50 		mov	r0, #1065353216
 867 0060 FFF7FEFF 		bl	__aeabi_fsub
 868              	.LVL74:
 869 0064 2146     		mov	r1, r4
 870 0066 FFF7FEFF 		bl	__aeabi_fmul
 871              	.LVL75:
 631:Generated_Source\PSoC5/StripLights.c **** 	switch( i ) {
 872              		.loc 1 631 0
 873 006a 5946     		mov	r1, fp
 630:Generated_Source\PSoC5/StripLights.c **** 	t = v * ( 1 - s * ( 1 - f ) );
 874              		.loc 1 630 0
 875 006c 8146     		mov	r9, r0
 876              	.LVL76:
 631:Generated_Source\PSoC5/StripLights.c **** 	switch( i ) {
 877              		.loc 1 631 0
 878 006e 4FF07E50 		mov	r0, #1065353216
 879              	.LVL77:
 880 0072 FFF7FEFF 		bl	__aeabi_fsub
 881              	.LVL78:
 882 0076 0A99     		ldr	r1, [sp, #40]	@ float
 883 0078 FFF7FEFF 		bl	__aeabi_fmul
 884              	.LVL79:
 885 007c 0146     		mov	r1, r0
 886 007e 4FF07E50 		mov	r0, #1065353216
 887 0082 FFF7FEFF 		bl	__aeabi_fsub
 888              	.LVL80:
 889 0086 2146     		mov	r1, r4
 890 0088 FFF7FEFF 		bl	__aeabi_fmul
 891              	.LVL81:
 632:Generated_Source\PSoC5/StripLights.c **** 		case 0:
 892              		.loc 1 632 0
 893 008c BAF1040F 		cmp	r10, #4
ARM GAS  C:\Users\matij\AppData\Local\Temp\ccfrwtxb.s 			page 36


 894 0090 1FD8     		bhi	.L77
 895 0092 DFE80AF0 		tbb	[pc, r10]
 896              	.L79:
 897 0096 03       		.byte	(.L78-.L79)/2
 898 0097 06       		.byte	(.L80-.L79)/2
 899 0098 0D       		.byte	(.L81-.L79)/2
 900 0099 13       		.byte	(.L82-.L79)/2
 901 009a 18       		.byte	(.L83-.L79)/2
 902 009b 00       		.p2align 1
 903              	.L78:
 634:Generated_Source\PSoC5/StripLights.c **** 			*g = t;
 904              		.loc 1 634 0
 905 009c 3C60     		str	r4, [r7]	@ float
 635:Generated_Source\PSoC5/StripLights.c **** 			*b = p;
 906              		.loc 1 635 0
 907 009e 3060     		str	r0, [r6]	@ float
 908 00a0 02E0     		b	.L87
 909              	.L80:
 639:Generated_Source\PSoC5/StripLights.c **** 			*g = v;
 910              		.loc 1 639 0
 911 00a2 C7F80090 		str	r9, [r7]	@ float
 640:Generated_Source\PSoC5/StripLights.c **** 			*b = p;
 912              		.loc 1 640 0
 913 00a6 3460     		str	r4, [r6]	@ float
 914              	.L87:
 641:Generated_Source\PSoC5/StripLights.c **** 			break;
 915              		.loc 1 641 0
 916 00a8 C5F80080 		str	r8, [r5]	@ float
 917 00ac BDE8F88F 		pop	{r3, r4, r5, r6, r7, r8, r9, r10, fp, pc}
 918              	.LVL82:
 919              	.L81:
 644:Generated_Source\PSoC5/StripLights.c **** 			*g = v;
 920              		.loc 1 644 0
 921 00b0 C7F80080 		str	r8, [r7]	@ float
 645:Generated_Source\PSoC5/StripLights.c **** 			*b = t;
 922              		.loc 1 645 0
 923 00b4 3460     		str	r4, [r6]	@ float
 646:Generated_Source\PSoC5/StripLights.c **** 			break;
 924              		.loc 1 646 0
 925 00b6 2860     		str	r0, [r5]	@ float
 926 00b8 BDE8F88F 		pop	{r3, r4, r5, r6, r7, r8, r9, r10, fp, pc}
 927              	.LVL83:
 928              	.L82:
 649:Generated_Source\PSoC5/StripLights.c **** 			*g = q;
 929              		.loc 1 649 0
 930 00bc C7F80080 		str	r8, [r7]	@ float
 650:Generated_Source\PSoC5/StripLights.c **** 			*b = v;
 931              		.loc 1 650 0
 932 00c0 C6F80090 		str	r9, [r6]	@ float
 933 00c4 02E0     		b	.L86
 934              	.L83:
 654:Generated_Source\PSoC5/StripLights.c **** 			*g = p;
 935              		.loc 1 654 0
 936 00c6 3860     		str	r0, [r7]	@ float
 655:Generated_Source\PSoC5/StripLights.c **** 			*b = v;
 937              		.loc 1 655 0
 938 00c8 C6F80080 		str	r8, [r6]	@ float
ARM GAS  C:\Users\matij\AppData\Local\Temp\ccfrwtxb.s 			page 37


 939              	.L86:
 656:Generated_Source\PSoC5/StripLights.c **** 			break;
 940              		.loc 1 656 0
 941 00cc 2C60     		str	r4, [r5]	@ float
 942 00ce BDE8F88F 		pop	{r3, r4, r5, r6, r7, r8, r9, r10, fp, pc}
 943              	.LVL84:
 944              	.L77:
 659:Generated_Source\PSoC5/StripLights.c **** 			*g = p;
 945              		.loc 1 659 0
 946 00d2 3C60     		str	r4, [r7]	@ float
 660:Generated_Source\PSoC5/StripLights.c **** 			*b = q;
 947              		.loc 1 660 0
 948 00d4 C6F80080 		str	r8, [r6]	@ float
 661:Generated_Source\PSoC5/StripLights.c **** 			break;
 949              		.loc 1 661 0
 950 00d8 C5F80090 		str	r9, [r5]	@ float
 951 00dc BDE8F88F 		pop	{r3, r4, r5, r6, r7, r8, r9, r10, fp, pc}
 952              	.LVL85:
 953              	.L89:
 954              		.align	2
 955              	.L88:
 956 00e0 00007042 		.word	1114636288
 957              	.LBE15:
 958              	.LBE14:
 959              		.cfi_endproc
 960              	.LFE76:
 961              		.size	StripLights_HSVtoRGB, .-StripLights_HSVtoRGB
 962              		.section	.text.StripLights_Pixel,"ax",%progbits
 963              		.align	1
 964              		.global	StripLights_Pixel
 965              		.thumb
 966              		.thumb_func
 967              		.type	StripLights_Pixel, %function
 968              	StripLights_Pixel:
 969              	.LFB78:
 689:Generated_Source\PSoC5/StripLights.c **** 
 970              		.loc 1 689 0
 971              		.cfi_startproc
 972              		@ args = 0, pretend = 0, frame = 0
 973              		@ frame_needed = 0, uses_anonymous_args = 0
 974              		@ link register save eliminated.
 975              	.LVL86:
 691:Generated_Source\PSoC5/StripLights.c ****     {
 976              		.loc 1 691 0
 977 0000 B0F5967F 		cmp	r0, #300
 978 0004 03D2     		bcs	.L90
 691:Generated_Source\PSoC5/StripLights.c ****     {
 979              		.loc 1 691 0 is_stmt 0 discriminator 3
 980 0006 11B9     		cbnz	r1, .L90
 695:Generated_Source\PSoC5/StripLights.c ****     #else  /* Else use lookup table */
 981              		.loc 1 695 0 is_stmt 1
 982 0008 014B     		ldr	r3, .L92
 983 000a 43F82020 		str	r2, [r3, r0, lsl #2]
 984              	.L90:
 985 000e 7047     		bx	lr
 986              	.L93:
 987              		.align	2
ARM GAS  C:\Users\matij\AppData\Local\Temp\ccfrwtxb.s 			page 38


 988              	.L92:
 989 0010 00000000 		.word	StripLights_ledArray
 990              		.cfi_endproc
 991              	.LFE78:
 992              		.size	StripLights_Pixel, .-StripLights_Pixel
 993              		.section	.text.StripLights_HSV_Pixel,"ax",%progbits
 994              		.align	1
 995              		.global	StripLights_HSV_Pixel
 996              		.thumb
 997              		.thumb_func
 998              		.type	StripLights_HSV_Pixel, %function
 999              	StripLights_HSV_Pixel:
 1000              	.LFB77:
 666:Generated_Source\PSoC5/StripLights.c ****     float R,G,B;
 1001              		.loc 1 666 0
 1002              		.cfi_startproc
 1003              		@ args = 4, pretend = 0, frame = 16
 1004              		@ frame_needed = 0, uses_anonymous_args = 0
 1005              	.LVL87:
 1006 0000 F0B5     		push	{r4, r5, r6, r7, lr}
 1007              		.cfi_def_cfa_offset 20
 1008              		.cfi_offset 4, -20
 1009              		.cfi_offset 5, -16
 1010              		.cfi_offset 6, -12
 1011              		.cfi_offset 7, -8
 1012              		.cfi_offset 14, -4
 1013 0002 87B0     		sub	sp, sp, #28
 1014              		.cfi_def_cfa_offset 48
 666:Generated_Source\PSoC5/StripLights.c ****     float R,G,B;
 1015              		.loc 1 666 0
 1016 0004 0E46     		mov	r6, r1
 668:Generated_Source\PSoC5/StripLights.c ****     //uint32 colour = ((int) (R * 255)) | (((int) (G * 255))<<8) | (((int) (B * 255)) << 16 );
 1017              		.loc 1 668 0
 1018 0006 0C99     		ldr	r1, [sp, #48]	@ float
 1019              	.LVL88:
 666:Generated_Source\PSoC5/StripLights.c ****     float R,G,B;
 1020              		.loc 1 666 0
 1021 0008 0546     		mov	r5, r0
 668:Generated_Source\PSoC5/StripLights.c ****     //uint32 colour = ((int) (R * 255)) | (((int) (G * 255))<<8) | (((int) (B * 255)) << 16 );
 1022              		.loc 1 668 0
 1023 000a 0191     		str	r1, [sp, #4]	@ float
 1024 000c 0093     		str	r3, [sp]	@ float
 1025 000e 04A9     		add	r1, sp, #16
 1026 0010 1346     		mov	r3, r2
 1027              	.LVL89:
 1028 0012 03A8     		add	r0, sp, #12
 1029              	.LVL90:
 1030 0014 05AA     		add	r2, sp, #20
 1031              	.LVL91:
 1032 0016 FFF7FEFF 		bl	StripLights_HSVtoRGB
 1033              	.LVL92:
 671:Generated_Source\PSoC5/StripLights.c **** }
 1034              		.loc 1 671 0
 1035 001a 1249     		ldr	r1, .L95
 1036 001c 0398     		ldr	r0, [sp, #12]	@ float
 1037 001e FFF7FEFF 		bl	__aeabi_fmul
 1038              	.LVL93:
ARM GAS  C:\Users\matij\AppData\Local\Temp\ccfrwtxb.s 			page 39


 1039 0022 FFF7FEFF 		bl	__aeabi_f2iz
 1040              	.LVL94:
 670:Generated_Source\PSoC5/StripLights.c ****     StripLights_Pixel(x,y,colour);
 1041              		.loc 1 670 0
 1042 0026 104B     		ldr	r3, .L95+4
 671:Generated_Source\PSoC5/StripLights.c **** }
 1043              		.loc 1 671 0
 1044 0028 0E49     		ldr	r1, .L95
 1045 002a 5C68     		ldr	r4, [r3, #4]
 670:Generated_Source\PSoC5/StripLights.c ****     StripLights_Pixel(x,y,colour);
 1046              		.loc 1 670 0
 1047 002c 0F4F     		ldr	r7, .L95+8
 671:Generated_Source\PSoC5/StripLights.c **** }
 1048              		.loc 1 671 0
 1049 002e 00FA04F4 		lsl	r4, r0, r4
 1050 0032 0598     		ldr	r0, [sp, #20]	@ float
 1051 0034 FFF7FEFF 		bl	__aeabi_fmul
 1052              	.LVL95:
 1053 0038 FFF7FEFF 		bl	__aeabi_f2iz
 1054              	.LVL96:
 1055 003c 7B68     		ldr	r3, [r7, #4]
 1056 003e 0949     		ldr	r1, .L95
 1057 0040 9840     		lsls	r0, r0, r3
 1058 0042 0443     		orrs	r4, r4, r0
 1059 0044 0498     		ldr	r0, [sp, #16]	@ float
 1060 0046 FFF7FEFF 		bl	__aeabi_fmul
 1061              	.LVL97:
 1062 004a FFF7FEFF 		bl	__aeabi_f2iz
 1063              	.LVL98:
 1064 004e 3A68     		ldr	r2, [r7]
 1065 0050 3146     		mov	r1, r6
 1066 0052 00FA02F2 		lsl	r2, r0, r2
 1067 0056 2243     		orrs	r2, r2, r4
 1068 0058 2846     		mov	r0, r5
 1069 005a FFF7FEFF 		bl	StripLights_Pixel
 1070              	.LVL99:
 672:Generated_Source\PSoC5/StripLights.c **** 
 1071              		.loc 1 672 0
 1072 005e 07B0     		add	sp, sp, #28
 1073              		.cfi_def_cfa_offset 20
 1074              		@ sp needed
 1075 0060 F0BD     		pop	{r4, r5, r6, r7, pc}
 1076              	.LVL100:
 1077              	.L96:
 1078 0062 00BF     		.align	2
 1079              	.L95:
 1080 0064 00007F43 		.word	1132396544
 1081 0068 00000000 		.word	.LANCHOR0
 1082 006c 00000000 		.word	.LANCHOR2
 1083              		.cfi_endproc
 1084              	.LFE77:
 1085              		.size	StripLights_HSV_Pixel, .-StripLights_HSV_Pixel
 1086              		.section	.text.StripLights_GetPixel,"ax",%progbits
 1087              		.align	1
 1088              		.global	StripLights_GetPixel
 1089              		.thumb
 1090              		.thumb_func
ARM GAS  C:\Users\matij\AppData\Local\Temp\ccfrwtxb.s 			page 40


 1091              		.type	StripLights_GetPixel, %function
 1092              	StripLights_GetPixel:
 1093              	.LFB79:
 717:Generated_Source\PSoC5/StripLights.c ****     uint32 color;
 1094              		.loc 1 717 0
 1095              		.cfi_startproc
 1096              		@ args = 0, pretend = 0, frame = 0
 1097              		@ frame_needed = 0, uses_anonymous_args = 0
 1098              		@ link register save eliminated.
 1099              	.LVL101:
 719:Generated_Source\PSoC5/StripLights.c ****     {
 1100              		.loc 1 719 0
 1101 0000 B0F5967F 		cmp	r0, #300
 1102 0004 03D2     		bcs	.L98
 719:Generated_Source\PSoC5/StripLights.c ****     {
 1103              		.loc 1 719 0 is_stmt 0 discriminator 3
 1104 0006 11B9     		cbnz	r1, .L98
 722:Generated_Source\PSoC5/StripLights.c ****     #else  /* Else use lookup table */
 1105              		.loc 1 722 0 is_stmt 1
 1106 0008 024B     		ldr	r3, .L99
 1107 000a 53F82030 		ldr	r3, [r3, r0, lsl #2]
 1108              	.LVL102:
 1109              	.L98:
 728:Generated_Source\PSoC5/StripLights.c **** 
 1110              		.loc 1 728 0
 1111 000e 1846     		mov	r0, r3
 1112              	.LVL103:
 1113 0010 7047     		bx	lr
 1114              	.L100:
 1115 0012 00BF     		.align	2
 1116              	.L99:
 1117 0014 00000000 		.word	StripLights_ledArray
 1118              		.cfi_endproc
 1119              	.LFE79:
 1120              		.size	StripLights_GetPixel, .-StripLights_GetPixel
 1121              		.section	.text.StripLights_DrawCircle,"ax",%progbits
 1122              		.align	1
 1123              		.global	StripLights_DrawCircle
 1124              		.thumb
 1125              		.thumb_func
 1126              		.type	StripLights_DrawCircle, %function
 1127              	StripLights_DrawCircle:
 1128              	.LFB80:
 749:Generated_Source\PSoC5/StripLights.c **** 	int32 f = 1 - radius;
 1129              		.loc 1 749 0
 1130              		.cfi_startproc
 1131              		@ args = 0, pretend = 0, frame = 8
 1132              		@ frame_needed = 0, uses_anonymous_args = 0
 1133              	.LVL104:
 1134 0000 2DE9F74F 		push	{r0, r1, r2, r4, r5, r6, r7, r8, r9, r10, fp, lr}
 1135              		.cfi_def_cfa_offset 48
 1136              		.cfi_offset 4, -36
 1137              		.cfi_offset 5, -32
 1138              		.cfi_offset 6, -28
 1139              		.cfi_offset 7, -24
 1140              		.cfi_offset 8, -20
 1141              		.cfi_offset 9, -16
ARM GAS  C:\Users\matij\AppData\Local\Temp\ccfrwtxb.s 			page 41


 1142              		.cfi_offset 10, -12
 1143              		.cfi_offset 11, -8
 1144              		.cfi_offset 14, -4
 749:Generated_Source\PSoC5/StripLights.c **** 	int32 f = 1 - radius;
 1145              		.loc 1 749 0
 1146 0004 1446     		mov	r4, r2
 1147 0006 1D46     		mov	r5, r3
 1148 0008 0E46     		mov	r6, r1
 752:Generated_Source\PSoC5/StripLights.c **** 	int32 x = 0;
 1149              		.loc 1 752 0
 1150 000a 6FF00103 		mvn	r3, #1
 1151              	.LVL105:
 1152 000e 5343     		muls	r3, r2, r3
 756:Generated_Source\PSoC5/StripLights.c **** 	StripLights_Pixel(x0, y0 - radius, color);
 1153              		.loc 1 756 0
 1154 0010 6118     		adds	r1, r4, r1
 1155              	.LVL106:
 750:Generated_Source\PSoC5/StripLights.c **** 	int32 ddF_x = 0;
 1156              		.loc 1 750 0
 1157 0012 C2F1010A 		rsb	r10, r2, #1
 1158              	.LVL107:
 756:Generated_Source\PSoC5/StripLights.c **** 	StripLights_Pixel(x0, y0 - radius, color);
 1159              		.loc 1 756 0
 1160 0016 2A46     		mov	r2, r5
 1161              	.LVL108:
 749:Generated_Source\PSoC5/StripLights.c **** 	int32 f = 1 - radius;
 1162              		.loc 1 749 0
 1163 0018 8046     		mov	r8, r0
 752:Generated_Source\PSoC5/StripLights.c **** 	int32 x = 0;
 1164              		.loc 1 752 0
 1165 001a 0093     		str	r3, [sp]
 1166              	.LVL109:
 756:Generated_Source\PSoC5/StripLights.c **** 	StripLights_Pixel(x0, y0 - radius, color);
 1167              		.loc 1 756 0
 1168 001c FFF7FEFF 		bl	StripLights_Pixel
 1169              	.LVL110:
 757:Generated_Source\PSoC5/StripLights.c **** 	StripLights_Pixel( x0 + radius, y0, color);
 1170              		.loc 1 757 0
 1171 0020 2A46     		mov	r2, r5
 1172 0022 311B     		subs	r1, r6, r4
 1173 0024 FFF7FEFF 		bl	StripLights_Pixel
 1174              	.LVL111:
 758:Generated_Source\PSoC5/StripLights.c **** 	StripLights_Pixel( x0 - radius, y0, color);
 1175              		.loc 1 758 0
 1176 0028 2A46     		mov	r2, r5
 1177 002a 3146     		mov	r1, r6
 1178 002c 2018     		adds	r0, r4, r0
 1179 002e FFF7FEFF 		bl	StripLights_Pixel
 1180              	.LVL112:
 759:Generated_Source\PSoC5/StripLights.c **** 
 1181              		.loc 1 759 0
 1182 0032 2A46     		mov	r2, r5
 1183 0034 3146     		mov	r1, r6
 1184 0036 C4EB0800 		rsb	r0, r4, r8
 1185 003a FFF7FEFF 		bl	StripLights_Pixel
 1186              	.LVL113:
 761:Generated_Source\PSoC5/StripLights.c **** 	{
ARM GAS  C:\Users\matij\AppData\Local\Temp\ccfrwtxb.s 			page 42


 1187              		.loc 1 761 0
 1188 003e 0127     		movs	r7, #1
 1189              	.LVL114:
 1190              	.L102:
 1191 0040 7B1E     		subs	r3, r7, #1
 1192              	.LVL115:
 1193 0042 9C42     		cmp	r4, r3
 1194 0044 4ADD     		ble	.L105
 763:Generated_Source\PSoC5/StripLights.c **** 		{
 1195              		.loc 1 763 0
 1196 0046 BAF1000F 		cmp	r10, #0
 1197 004a 04DB     		blt	.L103
 766:Generated_Source\PSoC5/StripLights.c **** 			f += ddF_y;
 1198              		.loc 1 766 0
 1199 004c 009B     		ldr	r3, [sp]
 1200              	.LVL116:
 765:Generated_Source\PSoC5/StripLights.c **** 			ddF_y += 2;
 1201              		.loc 1 765 0
 1202 004e 013C     		subs	r4, r4, #1
 1203              	.LVL117:
 766:Generated_Source\PSoC5/StripLights.c **** 			f += ddF_y;
 1204              		.loc 1 766 0
 1205 0050 0233     		adds	r3, r3, #2
 1206 0052 0093     		str	r3, [sp]
 1207              	.LVL118:
 767:Generated_Source\PSoC5/StripLights.c **** 		}
 1208              		.loc 1 767 0
 1209 0054 9A44     		add	r10, r10, r3
 1210              	.LVL119:
 1211              	.L103:
 1212 0056 08EB070B 		add	fp, r8, r7
 773:Generated_Source\PSoC5/StripLights.c **** 		StripLights_Pixel(x0 - x, y0 + y, color);
 1213              		.loc 1 773 0
 1214 005a 04EB0609 		add	r9, r4, r6
 771:Generated_Source\PSoC5/StripLights.c **** 
 1215              		.loc 1 771 0
 1216 005e 7B00     		lsls	r3, r7, #1
 1217              	.LVL120:
 1218 0060 0133     		adds	r3, r3, #1
 1219              	.LVL121:
 773:Generated_Source\PSoC5/StripLights.c **** 		StripLights_Pixel(x0 - x, y0 + y, color);
 1220              		.loc 1 773 0
 1221 0062 4946     		mov	r1, r9
 1222 0064 5846     		mov	r0, fp
 1223 0066 2A46     		mov	r2, r5
 771:Generated_Source\PSoC5/StripLights.c **** 
 1224              		.loc 1 771 0
 1225 0068 9A44     		add	r10, r10, r3
 1226              	.LVL122:
 773:Generated_Source\PSoC5/StripLights.c **** 		StripLights_Pixel(x0 - x, y0 + y, color);
 1227              		.loc 1 773 0
 1228 006a FFF7FEFF 		bl	StripLights_Pixel
 1229              	.LVL123:
 1230 006e 7B00     		lsls	r3, r7, #1
 1231              	.LVL124:
 1232 0070 C3EB0B03 		rsb	r3, r3, fp
 1233              	.LVL125:
ARM GAS  C:\Users\matij\AppData\Local\Temp\ccfrwtxb.s 			page 43


 774:Generated_Source\PSoC5/StripLights.c **** 		StripLights_Pixel( x0 + x, y0 - y, color);
 1234              		.loc 1 774 0
 1235 0074 1846     		mov	r0, r3
 1236 0076 4946     		mov	r1, r9
 1237 0078 2A46     		mov	r2, r5
 775:Generated_Source\PSoC5/StripLights.c **** 		StripLights_Pixel( x0 - x, y0 - y, color);
 1238              		.loc 1 775 0
 1239 007a C4EB0609 		rsb	r9, r4, r6
 774:Generated_Source\PSoC5/StripLights.c **** 		StripLights_Pixel( x0 + x, y0 - y, color);
 1240              		.loc 1 774 0
 1241 007e 0193     		str	r3, [sp, #4]
 1242 0080 FFF7FEFF 		bl	StripLights_Pixel
 1243              	.LVL126:
 775:Generated_Source\PSoC5/StripLights.c **** 		StripLights_Pixel( x0 - x, y0 - y, color);
 1244              		.loc 1 775 0
 1245 0084 4946     		mov	r1, r9
 1246 0086 5846     		mov	r0, fp
 1247 0088 2A46     		mov	r2, r5
 1248 008a FFF7FEFF 		bl	StripLights_Pixel
 1249              	.LVL127:
 776:Generated_Source\PSoC5/StripLights.c **** 		StripLights_Pixel( x0 + y, y0 + x, color);
 1250              		.loc 1 776 0
 1251 008e 019B     		ldr	r3, [sp, #4]
 1252 0090 4946     		mov	r1, r9
 1253 0092 1846     		mov	r0, r3
 1254 0094 2A46     		mov	r2, r5
 1255 0096 FFF7FEFF 		bl	StripLights_Pixel
 1256              	.LVL128:
 1257 009a 06EB0709 		add	r9, r6, r7
 777:Generated_Source\PSoC5/StripLights.c **** 		StripLights_Pixel( x0 - y, y0 + x, color);
 1258              		.loc 1 777 0
 1259 009e 04EB0803 		add	r3, r4, r8
 1260 00a2 1846     		mov	r0, r3
 1261 00a4 4946     		mov	r1, r9
 1262 00a6 2A46     		mov	r2, r5
 778:Generated_Source\PSoC5/StripLights.c **** 		StripLights_Pixel( x0 + y, y0 - x, color);
 1263              		.loc 1 778 0
 1264 00a8 C4EB080B 		rsb	fp, r4, r8
 777:Generated_Source\PSoC5/StripLights.c **** 		StripLights_Pixel( x0 - y, y0 + x, color);
 1265              		.loc 1 777 0
 1266 00ac 0193     		str	r3, [sp, #4]
 1267 00ae FFF7FEFF 		bl	StripLights_Pixel
 1268              	.LVL129:
 778:Generated_Source\PSoC5/StripLights.c **** 		StripLights_Pixel( x0 + y, y0 - x, color);
 1269              		.loc 1 778 0
 1270 00b2 4946     		mov	r1, r9
 1271 00b4 2A46     		mov	r2, r5
 1272 00b6 5846     		mov	r0, fp
 1273 00b8 FFF7FEFF 		bl	StripLights_Pixel
 1274              	.LVL130:
 1275 00bc 7B00     		lsls	r3, r7, #1
 1276              	.LVL131:
 1277 00be C3EB0909 		rsb	r9, r3, r9
 779:Generated_Source\PSoC5/StripLights.c **** 		StripLights_Pixel( x0 - y, y0 - x, color);
 1278              		.loc 1 779 0
 1279 00c2 019B     		ldr	r3, [sp, #4]
 1280              	.LVL132:
ARM GAS  C:\Users\matij\AppData\Local\Temp\ccfrwtxb.s 			page 44


 1281 00c4 2A46     		mov	r2, r5
 1282 00c6 1846     		mov	r0, r3
 1283 00c8 4946     		mov	r1, r9
 1284 00ca FFF7FEFF 		bl	StripLights_Pixel
 1285              	.LVL133:
 780:Generated_Source\PSoC5/StripLights.c **** 	}
 1286              		.loc 1 780 0
 1287 00ce 2A46     		mov	r2, r5
 1288 00d0 4946     		mov	r1, r9
 1289 00d2 5846     		mov	r0, fp
 1290 00d4 FFF7FEFF 		bl	StripLights_Pixel
 1291              	.LVL134:
 1292 00d8 0137     		adds	r7, r7, #1
 1293              	.LVL135:
 1294 00da B1E7     		b	.L102
 1295              	.LVL136:
 1296              	.L105:
 782:Generated_Source\PSoC5/StripLights.c **** 
 1297              		.loc 1 782 0
 1298 00dc 03B0     		add	sp, sp, #12
 1299              		.cfi_def_cfa_offset 36
 1300              	.LVL137:
 1301              		@ sp needed
 1302 00de BDE8F08F 		pop	{r4, r5, r6, r7, r8, r9, r10, fp, pc}
 1303              		.cfi_endproc
 1304              	.LFE80:
 1305              		.size	StripLights_DrawCircle, .-StripLights_DrawCircle
 1306              		.section	.text.StripLights_DrawLine,"ax",%progbits
 1307              		.align	1
 1308              		.global	StripLights_DrawLine
 1309              		.thumb
 1310              		.thumb_func
 1311              		.type	StripLights_DrawLine, %function
 1312              	StripLights_DrawLine:
 1313              	.LFB81:
 802:Generated_Source\PSoC5/StripLights.c **** 	int32 dy = y1 - y0; /* Difference between y0 and y1 */
 1314              		.loc 1 802 0
 1315              		.cfi_startproc
 1316              		@ args = 4, pretend = 0, frame = 0
 1317              		@ frame_needed = 0, uses_anonymous_args = 0
 1318              	.LVL138:
 1319 0000 2DE9F84F 		push	{r3, r4, r5, r6, r7, r8, r9, r10, fp, lr}
 1320              		.cfi_def_cfa_offset 40
 1321              		.cfi_offset 3, -40
 1322              		.cfi_offset 4, -36
 1323              		.cfi_offset 5, -32
 1324              		.cfi_offset 6, -28
 1325              		.cfi_offset 7, -24
 1326              		.cfi_offset 8, -20
 1327              		.cfi_offset 9, -16
 1328              		.cfi_offset 10, -12
 1329              		.cfi_offset 11, -8
 1330              		.cfi_offset 14, -4
 807:Generated_Source\PSoC5/StripLights.c **** 	{
 1331              		.loc 1 807 0
 1332 0004 5E1A     		subs	r6, r3, r1
 1333              	.LVL139:
ARM GAS  C:\Users\matij\AppData\Local\Temp\ccfrwtxb.s 			page 45


 804:Generated_Source\PSoC5/StripLights.c **** 	int32 stepx, stepy;
 1334              		.loc 1 804 0
 1335 0006 A2EB0005 		sub	r5, r2, r0
 1336              	.LVL140:
 809:Generated_Source\PSoC5/StripLights.c **** 		stepy = -1;
 1337              		.loc 1 809 0
 1338 000a 46BF     		itte	mi
 1339 000c 7642     		rsbmi	r6, r6, #0
 1340              	.LVL141:
 810:Generated_Source\PSoC5/StripLights.c **** 	}
 1341              		.loc 1 810 0
 1342 000e 4FF0FF3B 		movmi	fp, #-1
 814:Generated_Source\PSoC5/StripLights.c **** 	}
 1343              		.loc 1 814 0
 1344 0012 4FF0010B 		movpl	fp, #1
 1345              	.LVL142:
 817:Generated_Source\PSoC5/StripLights.c **** 	{
 1346              		.loc 1 817 0
 1347 0016 002D     		cmp	r5, #0
 819:Generated_Source\PSoC5/StripLights.c **** 		stepx = -1;
 1348              		.loc 1 819 0
 1349 0018 B8BF     		it	lt
 1350 001a 6D42     		rsblt	r5, r5, #0
 1351              	.LVL143:
 802:Generated_Source\PSoC5/StripLights.c **** 	int32 dy = y1 - y0; /* Difference between y0 and y1 */
 1352              		.loc 1 802 0
 1353 001c 9046     		mov	r8, r2
 827:Generated_Source\PSoC5/StripLights.c **** 	dx <<= 1; /* dx is now 2*dx  */
 1354              		.loc 1 827 0
 1355 001e 4FEA4606 		lsl	r6, r6, #1
 1356              	.LVL144:
 828:Generated_Source\PSoC5/StripLights.c **** 	StripLights_Pixel(x0, y0, color);
 1357              		.loc 1 828 0
 1358 0022 4FEA4505 		lsl	r5, r5, #1
 1359              	.LVL145:
 829:Generated_Source\PSoC5/StripLights.c **** 
 1360              		.loc 1 829 0
 1361 0026 0A9A     		ldr	r2, [sp, #40]
 1362              	.LVL146:
 820:Generated_Source\PSoC5/StripLights.c **** 	}
 1363              		.loc 1 820 0
 1364 0028 B4BF     		ite	lt
 1365 002a 4FF0FF3A 		movlt	r10, #-1
 824:Generated_Source\PSoC5/StripLights.c **** 	}
 1366              		.loc 1 824 0
 1367 002e 4FF0010A 		movge	r10, #1
 1368              	.LVL147:
 802:Generated_Source\PSoC5/StripLights.c **** 	int32 dy = y1 - y0; /* Difference between y0 and y1 */
 1369              		.loc 1 802 0
 1370 0032 0746     		mov	r7, r0
 1371 0034 0C46     		mov	r4, r1
 1372 0036 9946     		mov	r9, r3
 829:Generated_Source\PSoC5/StripLights.c **** 
 1373              		.loc 1 829 0
 1374 0038 FFF7FEFF 		bl	StripLights_Pixel
 1375              	.LVL148:
 831:Generated_Source\PSoC5/StripLights.c **** 	{
ARM GAS  C:\Users\matij\AppData\Local\Temp\ccfrwtxb.s 			page 46


 1376              		.loc 1 831 0
 1377 003c AE42     		cmp	r6, r5
 1378 003e 14DA     		bge	.L109
 1379              	.LBB16:
 833:Generated_Source\PSoC5/StripLights.c **** 		while (x0 != x1)
 1380              		.loc 1 833 0
 1381 0040 A6EB6509 		sub	r9, r6, r5, asr #1
 1382              	.LVL149:
 1383              	.L110:
 834:Generated_Source\PSoC5/StripLights.c **** 		{
 1384              		.loc 1 834 0
 1385 0044 4745     		cmp	r7, r8
 1386 0046 0ED0     		beq	.L119
 836:Generated_Source\PSoC5/StripLights.c **** 			{
 1387              		.loc 1 836 0
 1388 0048 B9F1000F 		cmp	r9, #0
 838:Generated_Source\PSoC5/StripLights.c **** 				fraction -= dx;
 1389              		.loc 1 838 0
 1390 004c A8BF     		it	ge
 1391 004e 5C44     		addge	r4, r4, fp
 1392              	.LVL150:
 841:Generated_Source\PSoC5/StripLights.c **** 			fraction += dy;
 1393              		.loc 1 841 0
 1394 0050 5744     		add	r7, r7, r10
 1395              	.LVL151:
 839:Generated_Source\PSoC5/StripLights.c **** 			}
 1396              		.loc 1 839 0
 1397 0052 A8BF     		it	ge
 1398 0054 C5EB0909 		rsbge	r9, r5, r9
 1399              	.LVL152:
 843:Generated_Source\PSoC5/StripLights.c **** 		}
 1400              		.loc 1 843 0
 1401 0058 0A9A     		ldr	r2, [sp, #40]
 1402 005a 2146     		mov	r1, r4
 1403 005c 3846     		mov	r0, r7
 842:Generated_Source\PSoC5/StripLights.c **** 			StripLights_Pixel(x0, y0, color);
 1404              		.loc 1 842 0
 1405 005e B144     		add	r9, r9, r6
 1406              	.LVL153:
 843:Generated_Source\PSoC5/StripLights.c **** 		}
 1407              		.loc 1 843 0
 1408 0060 FFF7FEFF 		bl	StripLights_Pixel
 1409              	.LVL154:
 1410 0064 EEE7     		b	.L110
 1411              	.L119:
 1412 0066 BDE8F88F 		pop	{r3, r4, r5, r6, r7, r8, r9, r10, fp, pc}
 1413              	.LVL155:
 1414              	.L109:
 1415              	.LBE16:
 1416              	.LBB17:
 848:Generated_Source\PSoC5/StripLights.c **** 		while (y0 != y1)
 1417              		.loc 1 848 0
 1418 006a A5EB6608 		sub	r8, r5, r6, asr #1
 1419              	.LVL156:
 1420              	.L113:
 849:Generated_Source\PSoC5/StripLights.c **** 		{
 1421              		.loc 1 849 0
ARM GAS  C:\Users\matij\AppData\Local\Temp\ccfrwtxb.s 			page 47


 1422 006e 4C45     		cmp	r4, r9
 1423 0070 0ED0     		beq	.L120
 851:Generated_Source\PSoC5/StripLights.c **** 			{
 1424              		.loc 1 851 0
 1425 0072 B8F1000F 		cmp	r8, #0
 853:Generated_Source\PSoC5/StripLights.c **** 				fraction -= dy;
 1426              		.loc 1 853 0
 1427 0076 A8BF     		it	ge
 1428 0078 5744     		addge	r7, r7, r10
 1429              	.LVL157:
 856:Generated_Source\PSoC5/StripLights.c **** 			fraction += dx;
 1430              		.loc 1 856 0
 1431 007a 5C44     		add	r4, r4, fp
 1432              	.LVL158:
 854:Generated_Source\PSoC5/StripLights.c **** 			}
 1433              		.loc 1 854 0
 1434 007c A8BF     		it	ge
 1435 007e C6EB0808 		rsbge	r8, r6, r8
 1436              	.LVL159:
 858:Generated_Source\PSoC5/StripLights.c **** 		}
 1437              		.loc 1 858 0
 1438 0082 0A9A     		ldr	r2, [sp, #40]
 1439 0084 2146     		mov	r1, r4
 1440 0086 3846     		mov	r0, r7
 857:Generated_Source\PSoC5/StripLights.c **** 			StripLights_Pixel( x0, y0, color);
 1441              		.loc 1 857 0
 1442 0088 A844     		add	r8, r8, r5
 1443              	.LVL160:
 858:Generated_Source\PSoC5/StripLights.c **** 		}
 1444              		.loc 1 858 0
 1445 008a FFF7FEFF 		bl	StripLights_Pixel
 1446              	.LVL161:
 1447 008e EEE7     		b	.L113
 1448              	.L120:
 1449 0090 BDE8F88F 		pop	{r3, r4, r5, r6, r7, r8, r9, r10, fp, pc}
 1450              	.LBE17:
 1451              		.cfi_endproc
 1452              	.LFE81:
 1453              		.size	StripLights_DrawLine, .-StripLights_DrawLine
 1454              		.section	.text.StripLights_DrawRect,"ax",%progbits
 1455              		.align	1
 1456              		.global	StripLights_DrawRect
 1457              		.thumb
 1458              		.thumb_func
 1459              		.type	StripLights_DrawRect, %function
 1460              	StripLights_DrawRect:
 1461              	.LFB82:
 881:Generated_Source\PSoC5/StripLights.c ****      int xDiff;
 1462              		.loc 1 881 0
 1463              		.cfi_startproc
 1464              		@ args = 8, pretend = 0, frame = 0
 1465              		@ frame_needed = 0, uses_anonymous_args = 0
 1466              	.LVL162:
 1467 0000 2DE9F743 		push	{r0, r1, r2, r4, r5, r6, r7, r8, r9, lr}
 1468              		.cfi_def_cfa_offset 40
 1469              		.cfi_offset 4, -28
 1470              		.cfi_offset 5, -24
ARM GAS  C:\Users\matij\AppData\Local\Temp\ccfrwtxb.s 			page 48


 1471              		.cfi_offset 6, -20
 1472              		.cfi_offset 7, -16
 1473              		.cfi_offset 8, -12
 1474              		.cfi_offset 9, -8
 1475              		.cfi_offset 14, -4
 881:Generated_Source\PSoC5/StripLights.c ****      int xDiff;
 1476              		.loc 1 881 0
 1477 0004 1E46     		mov	r6, r3
 1478 0006 0A9B     		ldr	r3, [sp, #40]
 1479              	.LVL163:
 1480 0008 0446     		mov	r4, r0
 1481 000a 8846     		mov	r8, r1
 1482 000c 1546     		mov	r5, r2
 1483 000e 0B9F     		ldr	r7, [sp, #44]
 884:Generated_Source\PSoC5/StripLights.c **** 	{	
 1484              		.loc 1 884 0
 1485 0010 ABB1     		cbz	r3, .L122
 887:Generated_Source\PSoC5/StripLights.c **** 		{
 1486              		.loc 1 887 0
 1487 0012 9042     		cmp	r0, r2
 889:Generated_Source\PSoC5/StripLights.c **** 		}
 1488              		.loc 1 889 0
 1489 0014 CCBF     		ite	gt
 1490 0016 C2EB0009 		rsbgt	r9, r2, r0
 1491              	.LVL164:
 893:Generated_Source\PSoC5/StripLights.c **** 		}
 1492              		.loc 1 893 0
 1493 001a C0EB0209 		rsble	r9, r0, r2
 1494              	.LVL165:
 1495              	.L127:
 899:Generated_Source\PSoC5/StripLights.c **** 		
 1496              		.loc 1 899 0
 1497 001e 2246     		mov	r2, r4
 1498 0020 2046     		mov	r0, r4
 1499 0022 0097     		str	r7, [sp]
 1500 0024 3346     		mov	r3, r6
 1501 0026 4146     		mov	r1, r8
 1502 0028 FFF7FEFF 		bl	StripLights_DrawLine
 1503              	.LVL166:
 901:Generated_Source\PSoC5/StripLights.c **** 				x0--;
 1504              		.loc 1 901 0
 1505 002c A542     		cmp	r5, r4
 902:Generated_Source\PSoC5/StripLights.c **** 			else
 1506              		.loc 1 902 0
 1507 002e B4BF     		ite	lt
 1508 0030 04F1FF34 		addlt	r4, r4, #-1
 1509              	.LVL167:
 904:Generated_Source\PSoC5/StripLights.c **** 		
 1510              		.loc 1 904 0
 1511 0034 0134     		addge	r4, r4, #1
 1512              	.LVL168:
 897:Generated_Source\PSoC5/StripLights.c **** 		{
 1513              		.loc 1 897 0
 1514 0036 19F1FF39 		adds	r9, r9, #-1
 1515              	.LVL169:
 1516 003a F0D2     		bcs	.L127
 1517 003c 1BE0     		b	.L131
ARM GAS  C:\Users\matij\AppData\Local\Temp\ccfrwtxb.s 			page 49


 1518              	.LVL170:
 1519              	.L122:
 913:Generated_Source\PSoC5/StripLights.c **** 		StripLights_DrawLine(x0, y1, x1, y1, color);
 1520              		.loc 1 913 0
 1521 003e 0B46     		mov	r3, r1
 1522 0040 0097     		str	r7, [sp]
 1523 0042 FFF7FEFF 		bl	StripLights_DrawLine
 1524              	.LVL171:
 914:Generated_Source\PSoC5/StripLights.c **** 		StripLights_DrawLine(x0, y0, x0, y1, color);
 1525              		.loc 1 914 0
 1526 0046 3346     		mov	r3, r6
 1527 0048 2A46     		mov	r2, r5
 1528 004a 3146     		mov	r1, r6
 1529 004c 2046     		mov	r0, r4
 1530 004e 0097     		str	r7, [sp]
 1531 0050 FFF7FEFF 		bl	StripLights_DrawLine
 1532              	.LVL172:
 915:Generated_Source\PSoC5/StripLights.c **** 		StripLights_DrawLine(x1, y0, x1, y1, color);
 1533              		.loc 1 915 0
 1534 0054 3346     		mov	r3, r6
 1535 0056 2246     		mov	r2, r4
 1536 0058 4146     		mov	r1, r8
 1537 005a 2046     		mov	r0, r4
 1538 005c 0097     		str	r7, [sp]
 1539 005e FFF7FEFF 		bl	StripLights_DrawLine
 1540              	.LVL173:
 916:Generated_Source\PSoC5/StripLights.c **** 	}
 1541              		.loc 1 916 0
 1542 0062 3346     		mov	r3, r6
 1543 0064 2A46     		mov	r2, r5
 1544 0066 4146     		mov	r1, r8
 1545 0068 2846     		mov	r0, r5
 1546 006a 0A97     		str	r7, [sp, #40]
 918:Generated_Source\PSoC5/StripLights.c **** 
 1547              		.loc 1 918 0
 1548 006c 03B0     		add	sp, sp, #12
 1549              		.cfi_remember_state
 1550              		.cfi_def_cfa_offset 28
 1551              		@ sp needed
 1552 006e BDE8F043 		pop	{r4, r5, r6, r7, r8, r9, lr}
 1553              		.cfi_restore 14
 1554              		.cfi_restore 9
 1555              		.cfi_restore 8
 1556              		.cfi_restore 7
 1557              		.cfi_restore 6
 1558              		.cfi_restore 5
 1559              		.cfi_restore 4
 1560              		.cfi_def_cfa_offset 0
 1561              	.LVL174:
 916:Generated_Source\PSoC5/StripLights.c **** 	}
 1562              		.loc 1 916 0
 1563 0072 FFF7FEBF 		b	StripLights_DrawLine
 1564              	.LVL175:
 1565              	.L131:
 1566              		.cfi_restore_state
 918:Generated_Source\PSoC5/StripLights.c **** 
 1567              		.loc 1 918 0
ARM GAS  C:\Users\matij\AppData\Local\Temp\ccfrwtxb.s 			page 50


 1568 0076 03B0     		add	sp, sp, #12
 1569              		.cfi_def_cfa_offset 28
 1570              		@ sp needed
 1571 0078 BDE8F083 		pop	{r4, r5, r6, r7, r8, r9, pc}
 1572              		.cfi_endproc
 1573              	.LFE82:
 1574              		.size	StripLights_DrawRect, .-StripLights_DrawRect
 1575              		.section	.text.StripLights_Dim,"ax",%progbits
 1576              		.align	1
 1577              		.global	StripLights_Dim
 1578              		.thumb
 1579              		.thumb_func
 1580              		.type	StripLights_Dim, %function
 1581              	StripLights_Dim:
 1582              	.LFB83:
 937:Generated_Source\PSoC5/StripLights.c **** extern uint32  StripLights_DimMask;
 1583              		.loc 1 937 0
 1584              		.cfi_startproc
 1585              		@ args = 0, pretend = 0, frame = 0
 1586              		@ frame_needed = 0, uses_anonymous_args = 0
 1587              		@ link register save eliminated.
 1588              	.LVL176:
 941:Generated_Source\PSoC5/StripLights.c ****     {           
 1589              		.loc 1 941 0
 1590 0000 0138     		subs	r0, r0, #1
 1591              	.LVL177:
 1592 0002 164A     		ldr	r2, .L144
 1593 0004 164B     		ldr	r3, .L144+4
 1594 0006 0628     		cmp	r0, #6
 1595 0008 21D8     		bhi	.L133
 1596 000a DFE800F0 		tbb	[pc, r0]
 1597              	.L135:
 1598 000e 04       		.byte	(.L134-.L135)/2
 1599 000f 08       		.byte	(.L136-.L135)/2
 1600 0010 0C       		.byte	(.L137-.L135)/2
 1601 0011 10       		.byte	(.L138-.L135)/2
 1602 0012 14       		.byte	(.L139-.L135)/2
 1603 0013 18       		.byte	(.L140-.L135)/2
 1604 0014 1C       		.byte	(.L141-.L135)/2
 1605 0015 00       		.p2align 1
 1606              	.L134:
 944:Generated_Source\PSoC5/StripLights.c ****            StripLights_DimShift = 1;
 1607              		.loc 1 944 0
 1608 0016 1349     		ldr	r1, .L144+8
 1609 0018 1160     		str	r1, [r2]
 945:Generated_Source\PSoC5/StripLights.c ****            break;
 1610              		.loc 1 945 0
 1611 001a 0122     		movs	r2, #1
 1612 001c 1BE0     		b	.L143
 1613              	.L136:
 949:Generated_Source\PSoC5/StripLights.c ****            StripLights_DimShift = 2;
 1614              		.loc 1 949 0
 1615 001e 1249     		ldr	r1, .L144+12
 1616 0020 1160     		str	r1, [r2]
 950:Generated_Source\PSoC5/StripLights.c ****            break;
 1617              		.loc 1 950 0
 1618 0022 0222     		movs	r2, #2
ARM GAS  C:\Users\matij\AppData\Local\Temp\ccfrwtxb.s 			page 51


 1619 0024 17E0     		b	.L143
 1620              	.L137:
 954:Generated_Source\PSoC5/StripLights.c ****            StripLights_DimShift = 3;
 1621              		.loc 1 954 0
 1622 0026 1149     		ldr	r1, .L144+16
 1623 0028 1160     		str	r1, [r2]
 955:Generated_Source\PSoC5/StripLights.c ****            break;
 1624              		.loc 1 955 0
 1625 002a 0322     		movs	r2, #3
 1626 002c 13E0     		b	.L143
 1627              	.L138:
 959:Generated_Source\PSoC5/StripLights.c ****            StripLights_DimShift = 4;
 1628              		.loc 1 959 0
 1629 002e 1049     		ldr	r1, .L144+20
 1630 0030 1160     		str	r1, [r2]
 960:Generated_Source\PSoC5/StripLights.c ****            break;
 1631              		.loc 1 960 0
 1632 0032 0422     		movs	r2, #4
 1633 0034 0FE0     		b	.L143
 1634              	.L139:
 964:Generated_Source\PSoC5/StripLights.c ****            StripLights_DimShift = 5;
 1635              		.loc 1 964 0
 1636 0036 0F49     		ldr	r1, .L144+24
 1637 0038 1160     		str	r1, [r2]
 965:Generated_Source\PSoC5/StripLights.c ****            break;
 1638              		.loc 1 965 0
 1639 003a 0522     		movs	r2, #5
 1640 003c 0BE0     		b	.L143
 1641              	.L140:
 969:Generated_Source\PSoC5/StripLights.c ****            StripLights_DimShift = 6;
 1642              		.loc 1 969 0
 1643 003e 0E49     		ldr	r1, .L144+28
 1644 0040 1160     		str	r1, [r2]
 970:Generated_Source\PSoC5/StripLights.c ****            break;
 1645              		.loc 1 970 0
 1646 0042 0622     		movs	r2, #6
 1647 0044 07E0     		b	.L143
 1648              	.L141:
 974:Generated_Source\PSoC5/StripLights.c ****            StripLights_DimShift = 7;
 1649              		.loc 1 974 0
 1650 0046 0D49     		ldr	r1, .L144+32
 1651 0048 1160     		str	r1, [r2]
 975:Generated_Source\PSoC5/StripLights.c ****            break;
 1652              		.loc 1 975 0
 1653 004a 0722     		movs	r2, #7
 1654 004c 03E0     		b	.L143
 1655              	.L133:
 980:Generated_Source\PSoC5/StripLights.c ****            StripLights_DimShift = 0;
 1656              		.loc 1 980 0
 1657 004e 6FF07F41 		mvn	r1, #-16777216
 1658 0052 1160     		str	r1, [r2]
 1659              		.loc 1 981 0
 1660 0054 0022     		movs	r2, #0
 1661              	.L143:
 1662 0056 1A60     		str	r2, [r3]
 1663 0058 7047     		bx	lr
 1664              	.L145:
ARM GAS  C:\Users\matij\AppData\Local\Temp\ccfrwtxb.s 			page 52


 1665 005a 00BF     		.align	2
 1666              	.L144:
 1667 005c 00000000 		.word	StripLights_DimMask
 1668 0060 00000000 		.word	StripLights_DimShift
 1669 0064 7F7F7F00 		.word	8355711
 1670 0068 3F3F3F00 		.word	4144959
 1671 006c 1F1F1F00 		.word	2039583
 1672 0070 0F0F0F00 		.word	986895
 1673 0074 07070700 		.word	460551
 1674 0078 03030300 		.word	197379
 1675 007c 01010100 		.word	65793
 1676              		.cfi_endproc
 1677              	.LFE83:
 1678              		.size	StripLights_Dim, .-StripLights_Dim
 1679              		.section	.text.StripLights_bplot,"ax",%progbits
 1680              		.align	1
 1681              		.global	StripLights_bplot
 1682              		.thumb
 1683              		.thumb_func
 1684              		.type	StripLights_bplot, %function
 1685              	StripLights_bplot:
 1686              	.LFB84:
 982:Generated_Source\PSoC5/StripLights.c ****            break;
 983:Generated_Source\PSoC5/StripLights.c ****         
 984:Generated_Source\PSoC5/StripLights.c ****     }
 985:Generated_Source\PSoC5/StripLights.c **** }
 986:Generated_Source\PSoC5/StripLights.c **** 
 987:Generated_Source\PSoC5/StripLights.c **** void StripLights_bplot( int32 x, int32 y, uint8 * bitMap, int32 update)
 988:Generated_Source\PSoC5/StripLights.c **** {
 1687              		.loc 1 988 0
 1688              		.cfi_startproc
 1689              		@ args = 0, pretend = 0, frame = 8
 1690              		@ frame_needed = 0, uses_anonymous_args = 0
 1691              	.LVL178:
 1692 0000 2DE9F74F 		push	{r0, r1, r2, r4, r5, r6, r7, r8, r9, r10, fp, lr}
 1693              		.cfi_def_cfa_offset 48
 1694              		.cfi_offset 4, -36
 1695              		.cfi_offset 5, -32
 1696              		.cfi_offset 6, -28
 1697              		.cfi_offset 7, -24
 1698              		.cfi_offset 8, -20
 1699              		.cfi_offset 9, -16
 1700              		.cfi_offset 10, -12
 1701              		.cfi_offset 11, -8
 1702              		.cfi_offset 14, -4
 1703              		.loc 1 988 0
 1704 0004 0646     		mov	r6, r0
 1705 0006 0D46     		mov	r5, r1
 989:Generated_Source\PSoC5/StripLights.c ****     int32 dx, dy;
 990:Generated_Source\PSoC5/StripLights.c ****     int32 aindex = 0;
 991:Generated_Source\PSoC5/StripLights.c ****     int32 maxX, maxY;
 992:Generated_Source\PSoC5/StripLights.c **** 
 993:Generated_Source\PSoC5/StripLights.c ****     maxX = x + (int32)bitMap[aindex++];
 1706              		.loc 1 993 0
 1707 0008 92F80080 		ldrb	r8, [r2]	@ zero_extendqisi2
 994:Generated_Source\PSoC5/StripLights.c ****     maxY = y  + (int32)bitMap[aindex++];
 1708              		.loc 1 994 0
ARM GAS  C:\Users\matij\AppData\Local\Temp\ccfrwtxb.s 			page 53


 1709 000c 92F80190 		ldrb	r9, [r2, #1]	@ zero_extendqisi2
 988:Generated_Source\PSoC5/StripLights.c ****     int32 dx, dy;
 1710              		.loc 1 988 0
 1711 0010 1746     		mov	r7, r2
 993:Generated_Source\PSoC5/StripLights.c ****     maxY = y  + (int32)bitMap[aindex++];
 1712              		.loc 1 993 0
 1713 0012 8044     		add	r8, r8, r0
 1714              	.LVL179:
 1715              		.loc 1 994 0
 1716 0014 8944     		add	r9, r9, r1
 1717              	.LVL180:
 1718 0016 0222     		movs	r2, #2
 1719              	.LVL181:
 1720              	.L147:
 995:Generated_Source\PSoC5/StripLights.c **** 
 996:Generated_Source\PSoC5/StripLights.c **** 	for(dy = y; dy < maxY; dy++)
 1721              		.loc 1 996 0 discriminator 1
 1722 0018 4D45     		cmp	r5, r9
 1723 001a 14DA     		bge	.L149
 1724              		.loc 1 996 0 is_stmt 0
 1725 001c 3446     		mov	r4, r6
 1726 001e 07EB020A 		add	r10, r7, r2
 1727 0022 C6EB020B 		rsb	fp, r6, r2
 1728              	.L150:
 997:Generated_Source\PSoC5/StripLights.c ****     {
 998:Generated_Source\PSoC5/StripLights.c **** 		for(dx = x; dx < maxX; dx++)
 1729              		.loc 1 998 0 is_stmt 1 discriminator 1
 1730 0026 4445     		cmp	r4, r8
 1731 0028 0BEB0402 		add	r2, fp, r4
 1732              	.LVL182:
 1733 002c 09DA     		bge	.L152
 999:Generated_Source\PSoC5/StripLights.c ****         {
1000:Generated_Source\PSoC5/StripLights.c ****             StripLights_Pixel(dx, dy, bitMap[aindex++]);
 1734              		.loc 1 1000 0 discriminator 3
 1735 002e 2046     		mov	r0, r4
 1736 0030 1AF8012B 		ldrb	r2, [r10], #1	@ zero_extendqisi2
 1737 0034 2946     		mov	r1, r5
 1738 0036 0193     		str	r3, [sp, #4]
 1739              	.LVL183:
 998:Generated_Source\PSoC5/StripLights.c ****         {
 1740              		.loc 1 998 0 discriminator 3
 1741 0038 0134     		adds	r4, r4, #1
 1742              	.LVL184:
 1743              		.loc 1 1000 0 discriminator 3
 1744 003a FFF7FEFF 		bl	StripLights_Pixel
 1745              	.LVL185:
 998:Generated_Source\PSoC5/StripLights.c ****         {
 1746              		.loc 1 998 0 discriminator 3
 1747 003e 019B     		ldr	r3, [sp, #4]
 1748              	.LVL186:
 1749 0040 F1E7     		b	.L150
 1750              	.LVL187:
 1751              	.L152:
 996:Generated_Source\PSoC5/StripLights.c ****     {
 1752              		.loc 1 996 0 discriminator 2
 1753 0042 0135     		adds	r5, r5, #1
 1754              	.LVL188:
ARM GAS  C:\Users\matij\AppData\Local\Temp\ccfrwtxb.s 			page 54


 1755 0044 E8E7     		b	.L147
 1756              	.LVL189:
 1757              	.L149:
1001:Generated_Source\PSoC5/StripLights.c ****         }
1002:Generated_Source\PSoC5/StripLights.c ****     }
1003:Generated_Source\PSoC5/StripLights.c **** 	if(update) StripLights_Trigger(1);
 1758              		.loc 1 1003 0
 1759 0046 2BB1     		cbz	r3, .L146
 1760              		.loc 1 1003 0 is_stmt 0 discriminator 1
 1761 0048 0120     		movs	r0, #1
1004:Generated_Source\PSoC5/StripLights.c **** }
 1762              		.loc 1 1004 0 is_stmt 1 discriminator 1
 1763 004a 03B0     		add	sp, sp, #12
 1764              		.cfi_remember_state
 1765              		.cfi_def_cfa_offset 36
 1766              		@ sp needed
 1767 004c BDE8F04F 		pop	{r4, r5, r6, r7, r8, r9, r10, fp, lr}
 1768              		.cfi_restore 14
 1769              		.cfi_restore 11
 1770              		.cfi_restore 10
 1771              		.cfi_restore 9
 1772              		.cfi_restore 8
 1773              		.cfi_restore 7
 1774              		.cfi_restore 6
 1775              		.cfi_restore 5
 1776              		.cfi_restore 4
 1777              		.cfi_def_cfa_offset 0
 1778              	.LVL190:
1003:Generated_Source\PSoC5/StripLights.c **** }
 1779              		.loc 1 1003 0 discriminator 1
 1780 0050 FFF7FEBF 		b	StripLights_Trigger
 1781              	.LVL191:
 1782              	.L146:
 1783              		.cfi_restore_state
 1784              		.loc 1 1004 0
 1785 0054 03B0     		add	sp, sp, #12
 1786              		.cfi_def_cfa_offset 36
 1787              		@ sp needed
 1788 0056 BDE8F08F 		pop	{r4, r5, r6, r7, r8, r9, r10, fp, pc}
 1789              		.cfi_endproc
 1790              	.LFE84:
 1791              		.size	StripLights_bplot, .-StripLights_bplot
 1792              		.global	gamma
 1793              		.global	StripLights_CLUT
 1794              		.global	StripLights_Blue_Shift
 1795              		.global	StripLights_Green_Shift
 1796              		.global	StripLights_Red_Shift
 1797              		.comm	StripLights_DimShift,4,4
 1798              		.comm	StripLights_DimMask,4,4
 1799              		.comm	StripLights_refreshComplete,4,4
 1800              		.global	StripLights_row
 1801              		.global	StripLights_ledIndex
 1802              		.comm	StripLights_ledArray,1200,4
 1803              		.global	StripLights_initvar
 1804              		.comm	Config,44,4
 1805              		.comm	System_u,1,1
 1806              		.comm	StripLights_UseGammaCorrection,1,1
ARM GAS  C:\Users\matij\AppData\Local\Temp\ccfrwtxb.s 			page 55


 1807              		.comm	StripLights_Done,4,4
 1808              		.section	.rodata
 1809              		.align	2
 1810              		.set	.LANCHOR1,. + 0
 1811              		.type	StripLights_CLUT, %object
 1812              		.size	StripLights_CLUT, 480
 1813              	StripLights_CLUT:
 1814 0000 FFFF0000 		.word	65535
 1815 0004 FFCC0000 		.word	52479
 1816 0008 FF990000 		.word	39423
 1817 000c FF330000 		.word	13311
 1818 0010 FF000000 		.word	255
 1819 0014 B3006600 		.word	6684851
 1820 0018 99009900 		.word	10027161
 1821 001c 6600B300 		.word	11731046
 1822 0020 3300CC00 		.word	13369395
 1823 0024 1919B300 		.word	11737369
 1824 0028 00339900 		.word	10040064
 1825 002c 00409900 		.word	10043392
 1826 0030 00669900 		.word	10053120
 1827 0034 00999900 		.word	10066176
 1828 0038 00CC9900 		.word	10079232
 1829 003c 00E66600 		.word	6743552
 1830 0040 00FF0000 		.word	65280
 1831 0044 33FF0000 		.word	65331
 1832 0048 66FF0000 		.word	65382
 1833 004c 80FF0000 		.word	65408
 1834 0050 99FF0000 		.word	65433
 1835 0054 B2FF0000 		.word	65458
 1836 0058 CCFF0000 		.word	65484
 1837 005c E5FF0000 		.word	65509
 1838 0060 00000000 		.word	0
 1839 0064 00005500 		.word	5570560
 1840 0068 0000AA00 		.word	11141120
 1841 006c 0000FF00 		.word	16711680
 1842 0070 55000000 		.word	85
 1843 0074 55005500 		.word	5570645
 1844 0078 5500AA00 		.word	11141205
 1845 007c 5500FF00 		.word	16711765
 1846 0080 AA000000 		.word	170
 1847 0084 AA005500 		.word	5570730
 1848 0088 AA00AA00 		.word	11141290
 1849 008c AA00FF00 		.word	16711850
 1850 0090 FF000000 		.word	255
 1851 0094 FF005500 		.word	5570815
 1852 0098 FF00AA00 		.word	11141375
 1853 009c FF00FF00 		.word	16711935
 1854 00a0 00550000 		.word	21760
 1855 00a4 00555500 		.word	5592320
 1856 00a8 0055AA00 		.word	11162880
 1857 00ac 0055FF00 		.word	16733440
 1858 00b0 55550000 		.word	21845
 1859 00b4 55555500 		.word	5592405
 1860 00b8 5555AA00 		.word	11162965
 1861 00bc 5555FF00 		.word	16733525
 1862 00c0 AA550000 		.word	21930
 1863 00c4 AA555500 		.word	5592490
ARM GAS  C:\Users\matij\AppData\Local\Temp\ccfrwtxb.s 			page 56


 1864 00c8 AA55AA00 		.word	11163050
 1865 00cc AA55FF00 		.word	16733610
 1866 00d0 FF550000 		.word	22015
 1867 00d4 FF555500 		.word	5592575
 1868 00d8 FF55AA00 		.word	11163135
 1869 00dc FF55FF00 		.word	16733695
 1870 00e0 00AA0000 		.word	43520
 1871 00e4 00AA5500 		.word	5614080
 1872 00e8 00AAAA00 		.word	11184640
 1873 00ec 00AAFF00 		.word	16755200
 1874 00f0 55AA0000 		.word	43605
 1875 00f4 55AA5500 		.word	5614165
 1876 00f8 55AAAA00 		.word	11184725
 1877 00fc 55AAFF00 		.word	16755285
 1878 0100 AAAA0000 		.word	43690
 1879 0104 AAAA5500 		.word	5614250
 1880 0108 AAAAAA00 		.word	11184810
 1881 010c AAAAFF00 		.word	16755370
 1882 0110 FFAA0000 		.word	43775
 1883 0114 FFAA5500 		.word	5614335
 1884 0118 FFAAAA00 		.word	11184895
 1885 011c FFAAFF00 		.word	16755455
 1886 0120 00FF0000 		.word	65280
 1887 0124 00FF5500 		.word	5635840
 1888 0128 00FFAA00 		.word	11206400
 1889 012c 00FFFF00 		.word	16776960
 1890 0130 55FF0000 		.word	65365
 1891 0134 55FF5500 		.word	5635925
 1892 0138 55FFAA00 		.word	11206485
 1893 013c 55FFFF00 		.word	16777045
 1894 0140 AAFF0000 		.word	65450
 1895 0144 AAFF5500 		.word	5636010
 1896 0148 AAFFAA00 		.word	11206570
 1897 014c AAFFFF00 		.word	16777130
 1898 0150 FFFF0000 		.word	65535
 1899 0154 FFFF5500 		.word	5636095
 1900 0158 FFFFAA00 		.word	11206655
 1901 015c FFFFFF00 		.word	16777215
 1902 0160 FF800000 		.word	33023
 1903 0164 FF008000 		.word	8388863
 1904 0168 FF00FF00 		.word	16711935
 1905 016c 8000FF00 		.word	16711808
 1906 0170 0080FF00 		.word	16744448
 1907 0174 00FF8000 		.word	8453888
 1908 0178 FF000000 		.word	255
 1909 017c 20202000 		.word	2105376
 1910 0180 00002000 		.word	2097152
 1911 0184 00000010 		.word	268435456
 1912 0188 00000000 		.word	0
 1913 018c 00000000 		.word	0
 1914 0190 00000000 		.word	0
 1915 0194 00000000 		.word	0
 1916 0198 00000000 		.word	0
 1917 019c 00000000 		.word	0
 1918 01a0 0000FF00 		.word	16711680
 1919 01a4 0010F000 		.word	15732736
 1920 01a8 0020E000 		.word	14688256
ARM GAS  C:\Users\matij\AppData\Local\Temp\ccfrwtxb.s 			page 57


 1921 01ac 0030D000 		.word	13643776
 1922 01b0 0040C000 		.word	12599296
 1923 01b4 0050B000 		.word	11554816
 1924 01b8 0060A000 		.word	10510336
 1925 01bc 00709000 		.word	9465856
 1926 01c0 00808000 		.word	8421376
 1927 01c4 00907000 		.word	7376896
 1928 01c8 00A06000 		.word	6332416
 1929 01cc 00B05000 		.word	5287936
 1930 01d0 00C04000 		.word	4243456
 1931 01d4 00D03000 		.word	3198976
 1932 01d8 00E02000 		.word	2154496
 1933 01dc 00FF0000 		.word	65280
 1934              		.type	gamma, %object
 1935              		.size	gamma, 256
 1936              	gamma:
 1937 01e0 00       		.byte	0
 1938 01e1 00       		.byte	0
 1939 01e2 00       		.byte	0
 1940 01e3 00       		.byte	0
 1941 01e4 00       		.byte	0
 1942 01e5 00       		.byte	0
 1943 01e6 00       		.byte	0
 1944 01e7 00       		.byte	0
 1945 01e8 00       		.byte	0
 1946 01e9 00       		.byte	0
 1947 01ea 00       		.byte	0
 1948 01eb 00       		.byte	0
 1949 01ec 00       		.byte	0
 1950 01ed 00       		.byte	0
 1951 01ee 00       		.byte	0
 1952 01ef 00       		.byte	0
 1953 01f0 00       		.byte	0
 1954 01f1 00       		.byte	0
 1955 01f2 00       		.byte	0
 1956 01f3 00       		.byte	0
 1957 01f4 00       		.byte	0
 1958 01f5 00       		.byte	0
 1959 01f6 00       		.byte	0
 1960 01f7 00       		.byte	0
 1961 01f8 00       		.byte	0
 1962 01f9 00       		.byte	0
 1963 01fa 00       		.byte	0
 1964 01fb 00       		.byte	0
 1965 01fc 01       		.byte	1
 1966 01fd 01       		.byte	1
 1967 01fe 01       		.byte	1
 1968 01ff 01       		.byte	1
 1969 0200 01       		.byte	1
 1970 0201 01       		.byte	1
 1971 0202 01       		.byte	1
 1972 0203 01       		.byte	1
 1973 0204 01       		.byte	1
 1974 0205 01       		.byte	1
 1975 0206 01       		.byte	1
 1976 0207 01       		.byte	1
 1977 0208 01       		.byte	1
ARM GAS  C:\Users\matij\AppData\Local\Temp\ccfrwtxb.s 			page 58


 1978 0209 02       		.byte	2
 1979 020a 02       		.byte	2
 1980 020b 02       		.byte	2
 1981 020c 02       		.byte	2
 1982 020d 02       		.byte	2
 1983 020e 02       		.byte	2
 1984 020f 02       		.byte	2
 1985 0210 02       		.byte	2
 1986 0211 03       		.byte	3
 1987 0212 03       		.byte	3
 1988 0213 03       		.byte	3
 1989 0214 03       		.byte	3
 1990 0215 03       		.byte	3
 1991 0216 03       		.byte	3
 1992 0217 03       		.byte	3
 1993 0218 04       		.byte	4
 1994 0219 04       		.byte	4
 1995 021a 04       		.byte	4
 1996 021b 04       		.byte	4
 1997 021c 04       		.byte	4
 1998 021d 05       		.byte	5
 1999 021e 05       		.byte	5
 2000 021f 05       		.byte	5
 2001 0220 05       		.byte	5
 2002 0221 06       		.byte	6
 2003 0222 06       		.byte	6
 2004 0223 06       		.byte	6
 2005 0224 06       		.byte	6
 2006 0225 07       		.byte	7
 2007 0226 07       		.byte	7
 2008 0227 07       		.byte	7
 2009 0228 07       		.byte	7
 2010 0229 08       		.byte	8
 2011 022a 08       		.byte	8
 2012 022b 08       		.byte	8
 2013 022c 09       		.byte	9
 2014 022d 09       		.byte	9
 2015 022e 09       		.byte	9
 2016 022f 0A       		.byte	10
 2017 0230 0A       		.byte	10
 2018 0231 0A       		.byte	10
 2019 0232 0B       		.byte	11
 2020 0233 0B       		.byte	11
 2021 0234 0B       		.byte	11
 2022 0235 0C       		.byte	12
 2023 0236 0C       		.byte	12
 2024 0237 0D       		.byte	13
 2025 0238 0D       		.byte	13
 2026 0239 0D       		.byte	13
 2027 023a 0E       		.byte	14
 2028 023b 0E       		.byte	14
 2029 023c 0F       		.byte	15
 2030 023d 0F       		.byte	15
 2031 023e 10       		.byte	16
 2032 023f 10       		.byte	16
 2033 0240 11       		.byte	17
 2034 0241 11       		.byte	17
ARM GAS  C:\Users\matij\AppData\Local\Temp\ccfrwtxb.s 			page 59


 2035 0242 12       		.byte	18
 2036 0243 12       		.byte	18
 2037 0244 13       		.byte	19
 2038 0245 13       		.byte	19
 2039 0246 14       		.byte	20
 2040 0247 14       		.byte	20
 2041 0248 15       		.byte	21
 2042 0249 15       		.byte	21
 2043 024a 16       		.byte	22
 2044 024b 16       		.byte	22
 2045 024c 17       		.byte	23
 2046 024d 18       		.byte	24
 2047 024e 18       		.byte	24
 2048 024f 19       		.byte	25
 2049 0250 19       		.byte	25
 2050 0251 1A       		.byte	26
 2051 0252 1B       		.byte	27
 2052 0253 1B       		.byte	27
 2053 0254 1C       		.byte	28
 2054 0255 1D       		.byte	29
 2055 0256 1D       		.byte	29
 2056 0257 1E       		.byte	30
 2057 0258 1F       		.byte	31
 2058 0259 20       		.byte	32
 2059 025a 20       		.byte	32
 2060 025b 21       		.byte	33
 2061 025c 22       		.byte	34
 2062 025d 23       		.byte	35
 2063 025e 23       		.byte	35
 2064 025f 24       		.byte	36
 2065 0260 25       		.byte	37
 2066 0261 26       		.byte	38
 2067 0262 27       		.byte	39
 2068 0263 27       		.byte	39
 2069 0264 28       		.byte	40
 2070 0265 29       		.byte	41
 2071 0266 2A       		.byte	42
 2072 0267 2B       		.byte	43
 2073 0268 2C       		.byte	44
 2074 0269 2D       		.byte	45
 2075 026a 2E       		.byte	46
 2076 026b 2F       		.byte	47
 2077 026c 30       		.byte	48
 2078 026d 31       		.byte	49
 2079 026e 32       		.byte	50
 2080 026f 32       		.byte	50
 2081 0270 33       		.byte	51
 2082 0271 34       		.byte	52
 2083 0272 36       		.byte	54
 2084 0273 37       		.byte	55
 2085 0274 38       		.byte	56
 2086 0275 39       		.byte	57
 2087 0276 3A       		.byte	58
 2088 0277 3B       		.byte	59
 2089 0278 3C       		.byte	60
 2090 0279 3D       		.byte	61
 2091 027a 3E       		.byte	62
ARM GAS  C:\Users\matij\AppData\Local\Temp\ccfrwtxb.s 			page 60


 2092 027b 3F       		.byte	63
 2093 027c 40       		.byte	64
 2094 027d 42       		.byte	66
 2095 027e 43       		.byte	67
 2096 027f 44       		.byte	68
 2097 0280 45       		.byte	69
 2098 0281 46       		.byte	70
 2099 0282 48       		.byte	72
 2100 0283 49       		.byte	73
 2101 0284 4A       		.byte	74
 2102 0285 4B       		.byte	75
 2103 0286 4D       		.byte	77
 2104 0287 4E       		.byte	78
 2105 0288 4F       		.byte	79
 2106 0289 51       		.byte	81
 2107 028a 52       		.byte	82
 2108 028b 53       		.byte	83
 2109 028c 55       		.byte	85
 2110 028d 56       		.byte	86
 2111 028e 57       		.byte	87
 2112 028f 59       		.byte	89
 2113 0290 5A       		.byte	90
 2114 0291 5C       		.byte	92
 2115 0292 5D       		.byte	93
 2116 0293 5F       		.byte	95
 2117 0294 60       		.byte	96
 2118 0295 62       		.byte	98
 2119 0296 63       		.byte	99
 2120 0297 65       		.byte	101
 2121 0298 66       		.byte	102
 2122 0299 68       		.byte	104
 2123 029a 69       		.byte	105
 2124 029b 6B       		.byte	107
 2125 029c 6D       		.byte	109
 2126 029d 6E       		.byte	110
 2127 029e 70       		.byte	112
 2128 029f 72       		.byte	114
 2129 02a0 73       		.byte	115
 2130 02a1 75       		.byte	117
 2131 02a2 77       		.byte	119
 2132 02a3 78       		.byte	120
 2133 02a4 7A       		.byte	122
 2134 02a5 7C       		.byte	124
 2135 02a6 7E       		.byte	126
 2136 02a7 7F       		.byte	127
 2137 02a8 81       		.byte	-127
 2138 02a9 83       		.byte	-125
 2139 02aa 85       		.byte	-123
 2140 02ab 87       		.byte	-121
 2141 02ac 89       		.byte	-119
 2142 02ad 8A       		.byte	-118
 2143 02ae 8C       		.byte	-116
 2144 02af 8E       		.byte	-114
 2145 02b0 90       		.byte	-112
 2146 02b1 92       		.byte	-110
 2147 02b2 94       		.byte	-108
 2148 02b3 96       		.byte	-106
ARM GAS  C:\Users\matij\AppData\Local\Temp\ccfrwtxb.s 			page 61


 2149 02b4 98       		.byte	-104
 2150 02b5 9A       		.byte	-102
 2151 02b6 9C       		.byte	-100
 2152 02b7 9E       		.byte	-98
 2153 02b8 A0       		.byte	-96
 2154 02b9 A2       		.byte	-94
 2155 02ba A4       		.byte	-92
 2156 02bb A7       		.byte	-89
 2157 02bc A9       		.byte	-87
 2158 02bd AB       		.byte	-85
 2159 02be AD       		.byte	-83
 2160 02bf AF       		.byte	-81
 2161 02c0 B1       		.byte	-79
 2162 02c1 B4       		.byte	-76
 2163 02c2 B6       		.byte	-74
 2164 02c3 B8       		.byte	-72
 2165 02c4 BA       		.byte	-70
 2166 02c5 BD       		.byte	-67
 2167 02c6 BF       		.byte	-65
 2168 02c7 C1       		.byte	-63
 2169 02c8 C4       		.byte	-60
 2170 02c9 C6       		.byte	-58
 2171 02ca C8       		.byte	-56
 2172 02cb CB       		.byte	-53
 2173 02cc CD       		.byte	-51
 2174 02cd D0       		.byte	-48
 2175 02ce D2       		.byte	-46
 2176 02cf D5       		.byte	-43
 2177 02d0 D7       		.byte	-41
 2178 02d1 DA       		.byte	-38
 2179 02d2 DC       		.byte	-36
 2180 02d3 DF       		.byte	-33
 2181 02d4 E1       		.byte	-31
 2182 02d5 E4       		.byte	-28
 2183 02d6 E7       		.byte	-25
 2184 02d7 E9       		.byte	-23
 2185 02d8 EC       		.byte	-20
 2186 02d9 EF       		.byte	-17
 2187 02da F1       		.byte	-15
 2188 02db F4       		.byte	-12
 2189 02dc F7       		.byte	-9
 2190 02dd F9       		.byte	-7
 2191 02de FC       		.byte	-4
 2192 02df FF       		.byte	-1
 2193              		.data
 2194              		.align	2
 2195              		.set	.LANCHOR2,. + 0
 2196              		.type	StripLights_Green_Shift, %object
 2197              		.size	StripLights_Green_Shift, 4
 2198              	StripLights_Green_Shift:
 2199 0000 08000000 		.word	8
 2200              		.type	StripLights_Blue_Shift, %object
 2201              		.size	StripLights_Blue_Shift, 4
 2202              	StripLights_Blue_Shift:
 2203 0004 10000000 		.word	16
 2204              		.bss
 2205              		.align	2
ARM GAS  C:\Users\matij\AppData\Local\Temp\ccfrwtxb.s 			page 62


 2206              		.set	.LANCHOR0,. + 0
 2207              		.type	colorIndex.7250, %object
 2208              		.size	colorIndex.7250, 4
 2209              	colorIndex.7250:
 2210 0000 00000000 		.space	4
 2211              		.type	StripLights_Red_Shift, %object
 2212              		.size	StripLights_Red_Shift, 4
 2213              	StripLights_Red_Shift:
 2214 0004 00000000 		.space	4
 2215              		.type	StripLights_initvar, %object
 2216              		.size	StripLights_initvar, 1
 2217              	StripLights_initvar:
 2218 0008 00       		.space	1
 2219 0009 000000   		.space	3
 2220              		.type	StripLights_row, %object
 2221              		.size	StripLights_row, 4
 2222              	StripLights_row:
 2223 000c 00000000 		.space	4
 2224              		.type	StripLights_ledIndex, %object
 2225              		.size	StripLights_ledIndex, 4
 2226              	StripLights_ledIndex:
 2227 0010 00000000 		.space	4
 2228              		.text
 2229              	.Letext0:
 2230              		.file 2 "c:\\program files (x86)\\cypress\\psoc creator\\4.2\\psoc creator\\import\\gnu\\arm\\5.4.
 2231              		.file 3 "c:\\program files (x86)\\cypress\\psoc creator\\4.2\\psoc creator\\import\\gnu\\arm\\5.4.
 2232              		.file 4 "Generated_Source\\PSoC5/cytypes.h"
 2233              		.file 5 "Generated_Source\\PSoC5/StripLights.h"
 2234              		.file 6 "Generated_Source\\PSoC5/BCom_1_BCom.h"
 2235              		.file 7 "Generated_Source\\PSoC5/BCom_1_checksum.h"
 2236              		.file 8 "Generated_Source\\PSoC5/core_cm3.h"
 2237              		.file 9 "Generated_Source\\PSoC5\\StripLights_fonts.h"
 2238              		.file 10 "Generated_Source\\PSoC5/StripLights_cisr.h"
 2239              		.file 11 "Generated_Source\\PSoC5/StripLights_fisr.h"
 2240              		.file 12 "Generated_Source\\PSoC5/CyLib.h"
 2241              		.section	.debug_info,"",%progbits
 2242              	.Ldebug_info0:
 2243 0000 40140000 		.4byte	0x1440
 2244 0004 0400     		.2byte	0x4
 2245 0006 00000000 		.4byte	.Ldebug_abbrev0
 2246 000a 04       		.byte	0x4
 2247 000b 01       		.uleb128 0x1
 2248 000c C0050000 		.4byte	.LASF123
 2249 0010 0C       		.byte	0xc
 2250 0011 1A020000 		.4byte	.LASF124
 2251 0015 13040000 		.4byte	.LASF125
 2252 0019 18000000 		.4byte	.Ldebug_ranges0+0x18
 2253 001d 00000000 		.4byte	0
 2254 0021 00000000 		.4byte	.Ldebug_line0
 2255 0025 02       		.uleb128 0x2
 2256 0026 04       		.byte	0x4
 2257 0027 04       		.byte	0x4
 2258 0028 11010000 		.4byte	.LASF0
 2259 002c 03       		.uleb128 0x3
 2260 002d 04       		.byte	0x4
 2261 002e 05       		.byte	0x5
 2262 002f 696E7400 		.ascii	"int\000"
ARM GAS  C:\Users\matij\AppData\Local\Temp\ccfrwtxb.s 			page 63


 2263 0033 02       		.uleb128 0x2
 2264 0034 08       		.byte	0x8
 2265 0035 04       		.byte	0x4
 2266 0036 10070000 		.4byte	.LASF1
 2267 003a 02       		.uleb128 0x2
 2268 003b 01       		.byte	0x1
 2269 003c 06       		.byte	0x6
 2270 003d 9E060000 		.4byte	.LASF2
 2271 0041 04       		.uleb128 0x4
 2272 0042 1D050000 		.4byte	.LASF5
 2273 0046 02       		.byte	0x2
 2274 0047 1D       		.byte	0x1d
 2275 0048 4C000000 		.4byte	0x4c
 2276 004c 02       		.uleb128 0x2
 2277 004d 01       		.byte	0x1
 2278 004e 08       		.byte	0x8
 2279 004f A7050000 		.4byte	.LASF3
 2280 0053 02       		.uleb128 0x2
 2281 0054 02       		.byte	0x2
 2282 0055 05       		.byte	0x5
 2283 0056 B3040000 		.4byte	.LASF4
 2284 005a 04       		.uleb128 0x4
 2285 005b 9E010000 		.4byte	.LASF6
 2286 005f 02       		.byte	0x2
 2287 0060 2B       		.byte	0x2b
 2288 0061 65000000 		.4byte	0x65
 2289 0065 02       		.uleb128 0x2
 2290 0066 02       		.byte	0x2
 2291 0067 07       		.byte	0x7
 2292 0068 B8060000 		.4byte	.LASF7
 2293 006c 04       		.uleb128 0x4
 2294 006d 6B000000 		.4byte	.LASF8
 2295 0071 02       		.byte	0x2
 2296 0072 3F       		.byte	0x3f
 2297 0073 77000000 		.4byte	0x77
 2298 0077 02       		.uleb128 0x2
 2299 0078 04       		.byte	0x4
 2300 0079 05       		.byte	0x5
 2301 007a BD040000 		.4byte	.LASF9
 2302 007e 04       		.uleb128 0x4
 2303 007f B5050000 		.4byte	.LASF10
 2304 0083 02       		.byte	0x2
 2305 0084 41       		.byte	0x41
 2306 0085 89000000 		.4byte	0x89
 2307 0089 02       		.uleb128 0x2
 2308 008a 04       		.byte	0x4
 2309 008b 07       		.byte	0x7
 2310 008c 69050000 		.4byte	.LASF11
 2311 0090 02       		.uleb128 0x2
 2312 0091 08       		.byte	0x8
 2313 0092 05       		.byte	0x5
 2314 0093 A3030000 		.4byte	.LASF12
 2315 0097 02       		.uleb128 0x2
 2316 0098 08       		.byte	0x8
 2317 0099 07       		.byte	0x7
 2318 009a 33010000 		.4byte	.LASF13
 2319 009e 02       		.uleb128 0x2
ARM GAS  C:\Users\matij\AppData\Local\Temp\ccfrwtxb.s 			page 64


 2320 009f 04       		.byte	0x4
 2321 00a0 07       		.byte	0x7
 2322 00a1 35000000 		.4byte	.LASF14
 2323 00a5 04       		.uleb128 0x4
 2324 00a6 D1020000 		.4byte	.LASF15
 2325 00aa 03       		.byte	0x3
 2326 00ab 18       		.byte	0x18
 2327 00ac 41000000 		.4byte	0x41
 2328 00b0 04       		.uleb128 0x4
 2329 00b1 73040000 		.4byte	.LASF16
 2330 00b5 03       		.byte	0x3
 2331 00b6 24       		.byte	0x24
 2332 00b7 5A000000 		.4byte	0x5a
 2333 00bb 04       		.uleb128 0x4
 2334 00bc 7B050000 		.4byte	.LASF17
 2335 00c0 03       		.byte	0x3
 2336 00c1 2C       		.byte	0x2c
 2337 00c2 6C000000 		.4byte	0x6c
 2338 00c6 04       		.uleb128 0x4
 2339 00c7 EA000000 		.4byte	.LASF18
 2340 00cb 03       		.byte	0x3
 2341 00cc 30       		.byte	0x30
 2342 00cd 7E000000 		.4byte	0x7e
 2343 00d1 05       		.uleb128 0x5
 2344 00d2 0A070000 		.4byte	.LASF19
 2345 00d6 04       		.byte	0x4
 2346 00d7 E401     		.2byte	0x1e4
 2347 00d9 4C000000 		.4byte	0x4c
 2348 00dd 05       		.uleb128 0x5
 2349 00de C1020000 		.4byte	.LASF20
 2350 00e2 04       		.byte	0x4
 2351 00e3 E501     		.2byte	0x1e5
 2352 00e5 65000000 		.4byte	0x65
 2353 00e9 05       		.uleb128 0x5
 2354 00ea F5030000 		.4byte	.LASF21
 2355 00ee 04       		.byte	0x4
 2356 00ef E601     		.2byte	0x1e6
 2357 00f1 89000000 		.4byte	0x89
 2358 00f5 05       		.uleb128 0x5
 2359 00f6 2D010000 		.4byte	.LASF22
 2360 00fa 04       		.byte	0x4
 2361 00fb E901     		.2byte	0x1e9
 2362 00fd 77000000 		.4byte	0x77
 2363 0101 02       		.uleb128 0x2
 2364 0102 01       		.byte	0x1
 2365 0103 08       		.byte	0x8
 2366 0104 7A020000 		.4byte	.LASF23
 2367 0108 05       		.uleb128 0x5
 2368 0109 75000000 		.4byte	.LASF24
 2369 010d 04       		.byte	0x4
 2370 010e 8E02     		.2byte	0x28e
 2371 0110 14010000 		.4byte	0x114
 2372 0114 06       		.uleb128 0x6
 2373 0115 D1000000 		.4byte	0xd1
 2374 0119 07       		.uleb128 0x7
 2375 011a 04       		.byte	0x4
 2376 011b 1F010000 		.4byte	0x11f
ARM GAS  C:\Users\matij\AppData\Local\Temp\ccfrwtxb.s 			page 65


 2377 011f 08       		.uleb128 0x8
 2378 0120 02       		.uleb128 0x2
 2379 0121 08       		.byte	0x8
 2380 0122 04       		.byte	0x4
 2381 0123 67040000 		.4byte	.LASF25
 2382 0127 02       		.uleb128 0x2
 2383 0128 04       		.byte	0x4
 2384 0129 07       		.byte	0x7
 2385 012a 60050000 		.4byte	.LASF26
 2386 012e 04       		.uleb128 0x4
 2387 012f 2B070000 		.4byte	.LASF27
 2388 0133 05       		.byte	0x5
 2389 0134 26       		.byte	0x26
 2390 0135 19010000 		.4byte	0x119
 2391 0139 09       		.uleb128 0x9
 2392 013a 84000000 		.4byte	.LASF34
 2393 013e 01       		.byte	0x1
 2394 013f 06       		.byte	0x6
 2395 0140 22       		.byte	0x22
 2396 0141 A0010000 		.4byte	0x1a0
 2397 0145 0A       		.uleb128 0xa
 2398 0146 64020000 		.4byte	.LASF28
 2399 014a 06       		.byte	0x6
 2400 014b 23       		.byte	0x23
 2401 014c D1000000 		.4byte	0xd1
 2402 0150 01       		.byte	0x1
 2403 0151 01       		.byte	0x1
 2404 0152 07       		.byte	0x7
 2405 0153 00       		.byte	0
 2406 0154 0B       		.uleb128 0xb
 2407 0155 41636B00 		.ascii	"Ack\000"
 2408 0159 06       		.byte	0x6
 2409 015a 24       		.byte	0x24
 2410 015b D1000000 		.4byte	0xd1
 2411 015f 01       		.byte	0x1
 2412 0160 01       		.byte	0x1
 2413 0161 06       		.byte	0x6
 2414 0162 00       		.byte	0
 2415 0163 0A       		.uleb128 0xa
 2416 0164 8D040000 		.4byte	.LASF29
 2417 0168 06       		.byte	0x6
 2418 0169 25       		.byte	0x25
 2419 016a D1000000 		.4byte	0xd1
 2420 016e 01       		.byte	0x1
 2421 016f 01       		.byte	0x1
 2422 0170 05       		.byte	0x5
 2423 0171 00       		.byte	0
 2424 0172 0A       		.uleb128 0xa
 2425 0173 7A000000 		.4byte	.LASF30
 2426 0177 06       		.byte	0x6
 2427 0178 26       		.byte	0x26
 2428 0179 D1000000 		.4byte	0xd1
 2429 017d 01       		.byte	0x1
 2430 017e 01       		.byte	0x1
 2431 017f 04       		.byte	0x4
 2432 0180 00       		.byte	0
 2433 0181 0A       		.uleb128 0xa
ARM GAS  C:\Users\matij\AppData\Local\Temp\ccfrwtxb.s 			page 66


 2434 0182 C6040000 		.4byte	.LASF31
 2435 0186 06       		.byte	0x6
 2436 0187 27       		.byte	0x27
 2437 0188 D1000000 		.4byte	0xd1
 2438 018c 01       		.byte	0x1
 2439 018d 01       		.byte	0x1
 2440 018e 03       		.byte	0x3
 2441 018f 00       		.byte	0
 2442 0190 0B       		.uleb128 0xb
 2443 0191 52465500 		.ascii	"RFU\000"
 2444 0195 06       		.byte	0x6
 2445 0196 28       		.byte	0x28
 2446 0197 D1000000 		.4byte	0xd1
 2447 019b 01       		.byte	0x1
 2448 019c 03       		.byte	0x3
 2449 019d 00       		.byte	0
 2450 019e 00       		.byte	0
 2451 019f 00       		.byte	0
 2452 01a0 0C       		.uleb128 0xc
 2453 01a1 BD030000 		.4byte	.LASF126
 2454 01a5 01       		.byte	0x1
 2455 01a6 06       		.byte	0x6
 2456 01a7 21       		.byte	0x21
 2457 01a8 C3010000 		.4byte	0x1c3
 2458 01ac 0D       		.uleb128 0xd
 2459 01ad AC040000 		.4byte	.LASF32
 2460 01b1 06       		.byte	0x6
 2461 01b2 29       		.byte	0x29
 2462 01b3 39010000 		.4byte	0x139
 2463 01b7 0D       		.uleb128 0xd
 2464 01b8 83050000 		.4byte	.LASF33
 2465 01bc 06       		.byte	0x6
 2466 01bd 2A       		.byte	0x2a
 2467 01be D1000000 		.4byte	0xd1
 2468 01c2 00       		.byte	0
 2469 01c3 09       		.uleb128 0x9
 2470 01c4 17010000 		.4byte	.LASF35
 2471 01c8 04       		.byte	0x4
 2472 01c9 06       		.byte	0x6
 2473 01ca 30       		.byte	0x30
 2474 01cb F4010000 		.4byte	0x1f4
 2475 01cf 0E       		.uleb128 0xe
 2476 01d0 AC040000 		.4byte	.LASF32
 2477 01d4 06       		.byte	0x6
 2478 01d5 31       		.byte	0x31
 2479 01d6 D1000000 		.4byte	0xd1
 2480 01da 00       		.byte	0
 2481 01db 0E       		.uleb128 0xe
 2482 01dc 3F020000 		.4byte	.LASF36
 2483 01e0 06       		.byte	0x6
 2484 01e1 32       		.byte	0x32
 2485 01e2 D1000000 		.4byte	0xd1
 2486 01e6 01       		.byte	0x1
 2487 01e7 0E       		.uleb128 0xe
 2488 01e8 AA060000 		.4byte	.LASF37
 2489 01ec 06       		.byte	0x6
 2490 01ed 33       		.byte	0x33
ARM GAS  C:\Users\matij\AppData\Local\Temp\ccfrwtxb.s 			page 67


 2491 01ee DD000000 		.4byte	0xdd
 2492 01f2 02       		.byte	0x2
 2493 01f3 00       		.byte	0
 2494 01f4 09       		.uleb128 0x9
 2495 01f5 DC000000 		.4byte	.LASF38
 2496 01f9 0C       		.byte	0xc
 2497 01fa 06       		.byte	0x6
 2498 01fb 2D       		.byte	0x2d
 2499 01fc 25020000 		.4byte	0x225
 2500 0200 0E       		.uleb128 0xe
 2501 0201 17070000 		.4byte	.LASF39
 2502 0205 06       		.byte	0x6
 2503 0206 2E       		.byte	0x2e
 2504 0207 E9000000 		.4byte	0xe9
 2505 020b 00       		.byte	0
 2506 020c 0E       		.uleb128 0xe
 2507 020d 5D020000 		.4byte	.LASF40
 2508 0211 06       		.byte	0x6
 2509 0212 2F       		.byte	0x2f
 2510 0213 E9000000 		.4byte	0xe9
 2511 0217 04       		.byte	0x4
 2512 0218 0E       		.uleb128 0xe
 2513 0219 87030000 		.4byte	.LASF41
 2514 021d 06       		.byte	0x6
 2515 021e 34       		.byte	0x34
 2516 021f C3010000 		.4byte	0x1c3
 2517 0223 08       		.byte	0x8
 2518 0224 00       		.byte	0
 2519 0225 09       		.uleb128 0x9
 2520 0226 D6010000 		.4byte	.LASF42
 2521 022a 0C       		.byte	0xc
 2522 022b 06       		.byte	0x6
 2523 022c 37       		.byte	0x37
 2524 022d 62020000 		.4byte	0x262
 2525 0231 0E       		.uleb128 0xe
 2526 0232 F3000000 		.4byte	.LASF43
 2527 0236 06       		.byte	0x6
 2528 0237 38       		.byte	0x38
 2529 0238 62020000 		.4byte	0x262
 2530 023c 00       		.byte	0
 2531 023d 0F       		.uleb128 0xf
 2532 023e 43524300 		.ascii	"CRC\000"
 2533 0242 06       		.byte	0x6
 2534 0243 39       		.byte	0x39
 2535 0244 B0000000 		.4byte	0xb0
 2536 0248 04       		.byte	0x4
 2537 0249 0E       		.uleb128 0xe
 2538 024a CE030000 		.4byte	.LASF44
 2539 024e 06       		.byte	0x6
 2540 024f 3A       		.byte	0x3a
 2541 0250 A5000000 		.4byte	0xa5
 2542 0254 06       		.byte	0x6
 2543 0255 0E       		.uleb128 0xe
 2544 0256 6E030000 		.4byte	.LASF45
 2545 025a 06       		.byte	0x6
 2546 025b 3B       		.byte	0x3b
 2547 025c 68020000 		.4byte	0x268
ARM GAS  C:\Users\matij\AppData\Local\Temp\ccfrwtxb.s 			page 68


 2548 0260 08       		.byte	0x8
 2549 0261 00       		.byte	0
 2550 0262 07       		.uleb128 0x7
 2551 0263 04       		.byte	0x4
 2552 0264 F4010000 		.4byte	0x1f4
 2553 0268 07       		.uleb128 0x7
 2554 0269 04       		.byte	0x4
 2555 026a A5000000 		.4byte	0xa5
 2556 026e 04       		.uleb128 0x4
 2557 026f 56030000 		.4byte	.LASF46
 2558 0273 06       		.byte	0x6
 2559 0274 3E       		.byte	0x3e
 2560 0275 79020000 		.4byte	0x279
 2561 0279 07       		.uleb128 0x7
 2562 027a 04       		.byte	0x4
 2563 027b 7F020000 		.4byte	0x27f
 2564 027f 10       		.uleb128 0x10
 2565 0280 8A020000 		.4byte	0x28a
 2566 0284 11       		.uleb128 0x11
 2567 0285 8A020000 		.4byte	0x28a
 2568 0289 00       		.byte	0
 2569 028a 07       		.uleb128 0x7
 2570 028b 04       		.byte	0x4
 2571 028c 25020000 		.4byte	0x225
 2572 0290 04       		.uleb128 0x4
 2573 0291 15000000 		.4byte	.LASF47
 2574 0295 06       		.byte	0x6
 2575 0296 3F       		.byte	0x3f
 2576 0297 9B020000 		.4byte	0x29b
 2577 029b 07       		.uleb128 0x7
 2578 029c 04       		.byte	0x4
 2579 029d A1020000 		.4byte	0x2a1
 2580 02a1 10       		.uleb128 0x10
 2581 02a2 B1020000 		.4byte	0x2b1
 2582 02a6 11       		.uleb128 0x11
 2583 02a7 B1020000 		.4byte	0x2b1
 2584 02ab 11       		.uleb128 0x11
 2585 02ac C6000000 		.4byte	0xc6
 2586 02b0 00       		.byte	0
 2587 02b1 07       		.uleb128 0x7
 2588 02b2 04       		.byte	0x4
 2589 02b3 B7020000 		.4byte	0x2b7
 2590 02b7 12       		.uleb128 0x12
 2591 02b8 A5000000 		.4byte	0xa5
 2592 02bc 09       		.uleb128 0x9
 2593 02bd 00000000 		.4byte	.LASF48
 2594 02c1 0C       		.byte	0xc
 2595 02c2 06       		.byte	0x6
 2596 02c3 41       		.byte	0x41
 2597 02c4 ED020000 		.4byte	0x2ed
 2598 02c8 0E       		.uleb128 0xe
 2599 02c9 3F020000 		.4byte	.LASF36
 2600 02cd 06       		.byte	0x6
 2601 02ce 42       		.byte	0x42
 2602 02cf A5000000 		.4byte	0xa5
 2603 02d3 00       		.byte	0
 2604 02d4 0E       		.uleb128 0xe
ARM GAS  C:\Users\matij\AppData\Local\Temp\ccfrwtxb.s 			page 69


 2605 02d5 D5030000 		.4byte	.LASF49
 2606 02d9 06       		.byte	0x6
 2607 02da 43       		.byte	0x43
 2608 02db 6E020000 		.4byte	0x26e
 2609 02df 04       		.byte	0x4
 2610 02e0 0E       		.uleb128 0xe
 2611 02e1 42000000 		.4byte	.LASF50
 2612 02e5 06       		.byte	0x6
 2613 02e6 44       		.byte	0x44
 2614 02e7 ED020000 		.4byte	0x2ed
 2615 02eb 08       		.byte	0x8
 2616 02ec 00       		.byte	0
 2617 02ed 07       		.uleb128 0x7
 2618 02ee 04       		.byte	0x4
 2619 02ef BC020000 		.4byte	0x2bc
 2620 02f3 09       		.uleb128 0x9
 2621 02f4 D8040000 		.4byte	.LASF51
 2622 02f8 20       		.byte	0x20
 2623 02f9 06       		.byte	0x6
 2624 02fa 48       		.byte	0x48
 2625 02fb 30030000 		.4byte	0x330
 2626 02ff 0E       		.uleb128 0xe
 2627 0300 0B020000 		.4byte	.LASF52
 2628 0304 06       		.byte	0x6
 2629 0305 49       		.byte	0x49
 2630 0306 E9000000 		.4byte	0xe9
 2631 030a 00       		.byte	0
 2632 030b 0F       		.uleb128 0xf
 2633 030c 55494400 		.ascii	"UID\000"
 2634 0310 06       		.byte	0x6
 2635 0311 4A       		.byte	0x4a
 2636 0312 E9000000 		.4byte	0xe9
 2637 0316 04       		.byte	0x4
 2638 0317 0E       		.uleb128 0xe
 2639 0318 D1010000 		.4byte	.LASF53
 2640 031c 06       		.byte	0x6
 2641 031d 4B       		.byte	0x4b
 2642 031e 30030000 		.4byte	0x330
 2643 0322 08       		.byte	0x8
 2644 0323 0E       		.uleb128 0xe
 2645 0324 1E070000 		.4byte	.LASF54
 2646 0328 06       		.byte	0x6
 2647 0329 4C       		.byte	0x4c
 2648 032a E9000000 		.4byte	0xe9
 2649 032e 1C       		.byte	0x1c
 2650 032f 00       		.byte	0
 2651 0330 13       		.uleb128 0x13
 2652 0331 01010000 		.4byte	0x101
 2653 0335 40030000 		.4byte	0x340
 2654 0339 14       		.uleb128 0x14
 2655 033a 27010000 		.4byte	0x127
 2656 033e 13       		.byte	0x13
 2657 033f 00       		.byte	0
 2658 0340 09       		.uleb128 0x9
 2659 0341 A9010000 		.4byte	.LASF55
 2660 0345 08       		.byte	0x8
 2661 0346 06       		.byte	0x6
ARM GAS  C:\Users\matij\AppData\Local\Temp\ccfrwtxb.s 			page 70


 2662 0347 4E       		.byte	0x4e
 2663 0348 65030000 		.4byte	0x365
 2664 034c 0F       		.uleb128 0xf
 2665 034d 44435000 		.ascii	"DCP\000"
 2666 0351 06       		.byte	0x6
 2667 0352 4F       		.byte	0x4f
 2668 0353 6E020000 		.4byte	0x26e
 2669 0357 00       		.byte	0
 2670 0358 0E       		.uleb128 0xe
 2671 0359 FD040000 		.4byte	.LASF56
 2672 035d 06       		.byte	0x6
 2673 035e 50       		.byte	0x50
 2674 035f ED020000 		.4byte	0x2ed
 2675 0363 04       		.byte	0x4
 2676 0364 00       		.byte	0
 2677 0365 09       		.uleb128 0x9
 2678 0366 6B020000 		.4byte	.LASF57
 2679 036a 2C       		.byte	0x2c
 2680 036b 06       		.byte	0x6
 2681 036c 47       		.byte	0x47
 2682 036d 96030000 		.4byte	0x396
 2683 0371 0E       		.uleb128 0xe
 2684 0372 90060000 		.4byte	.LASF58
 2685 0376 06       		.byte	0x6
 2686 0377 4D       		.byte	0x4d
 2687 0378 F3020000 		.4byte	0x2f3
 2688 037c 00       		.byte	0
 2689 037d 0E       		.uleb128 0xe
 2690 037e 2F000000 		.4byte	.LASF59
 2691 0382 06       		.byte	0x6
 2692 0383 51       		.byte	0x51
 2693 0384 40030000 		.4byte	0x340
 2694 0388 20       		.byte	0x20
 2695 0389 0E       		.uleb128 0xe
 2696 038a 57050000 		.4byte	.LASF60
 2697 038e 06       		.byte	0x6
 2698 038f 52       		.byte	0x52
 2699 0390 90020000 		.4byte	0x290
 2700 0394 28       		.byte	0x28
 2701 0395 00       		.byte	0
 2702 0396 15       		.uleb128 0x15
 2703 0397 76030000 		.4byte	.LASF64
 2704 039b 01       		.byte	0x1
 2705 039c C501     		.2byte	0x1c5
 2706 039e 01       		.byte	0x1
 2707 039f D4030000 		.4byte	0x3d4
 2708 03a3 16       		.uleb128 0x16
 2709 03a4 57000000 		.4byte	.LASF61
 2710 03a8 01       		.byte	0x1
 2711 03a9 C701     		.2byte	0x1c7
 2712 03ab E9000000 		.4byte	0xe9
 2713 03af 16       		.uleb128 0x16
 2714 03b0 08050000 		.4byte	.LASF62
 2715 03b4 01       		.byte	0x1
 2716 03b5 C801     		.2byte	0x1c8
 2717 03b7 E9000000 		.4byte	0xe9
 2718 03bb 17       		.uleb128 0x17
ARM GAS  C:\Users\matij\AppData\Local\Temp\ccfrwtxb.s 			page 71


 2719 03bc F7040000 		.4byte	.LASF66
 2720 03c0 01       		.byte	0x1
 2721 03c1 C901     		.2byte	0x1c9
 2722 03c3 E9000000 		.4byte	0xe9
 2723 03c7 16       		.uleb128 0x16
 2724 03c8 6A060000 		.4byte	.LASF63
 2725 03cc 01       		.byte	0x1
 2726 03cd CA01     		.2byte	0x1ca
 2727 03cf E9000000 		.4byte	0xe9
 2728 03d3 00       		.byte	0
 2729 03d4 15       		.uleb128 0x15
 2730 03d5 F6010000 		.4byte	.LASF65
 2731 03d9 01       		.byte	0x1
 2732 03da 6902     		.2byte	0x269
 2733 03dc 01       		.byte	0x1
 2734 03dd 50040000 		.4byte	0x450
 2735 03e1 18       		.uleb128 0x18
 2736 03e2 7200     		.ascii	"r\000"
 2737 03e4 01       		.byte	0x1
 2738 03e5 6902     		.2byte	0x269
 2739 03e7 50040000 		.4byte	0x450
 2740 03eb 18       		.uleb128 0x18
 2741 03ec 6700     		.ascii	"g\000"
 2742 03ee 01       		.byte	0x1
 2743 03ef 6902     		.2byte	0x269
 2744 03f1 50040000 		.4byte	0x450
 2745 03f5 18       		.uleb128 0x18
 2746 03f6 6200     		.ascii	"b\000"
 2747 03f8 01       		.byte	0x1
 2748 03f9 6902     		.2byte	0x269
 2749 03fb 50040000 		.4byte	0x450
 2750 03ff 18       		.uleb128 0x18
 2751 0400 6800     		.ascii	"h\000"
 2752 0402 01       		.byte	0x1
 2753 0403 6902     		.2byte	0x269
 2754 0405 25000000 		.4byte	0x25
 2755 0409 18       		.uleb128 0x18
 2756 040a 7300     		.ascii	"s\000"
 2757 040c 01       		.byte	0x1
 2758 040d 6902     		.2byte	0x269
 2759 040f 25000000 		.4byte	0x25
 2760 0413 18       		.uleb128 0x18
 2761 0414 7600     		.ascii	"v\000"
 2762 0416 01       		.byte	0x1
 2763 0417 6902     		.2byte	0x269
 2764 0419 25000000 		.4byte	0x25
 2765 041d 19       		.uleb128 0x19
 2766 041e 6900     		.ascii	"i\000"
 2767 0420 01       		.byte	0x1
 2768 0421 6B02     		.2byte	0x26b
 2769 0423 2C000000 		.4byte	0x2c
 2770 0427 19       		.uleb128 0x19
 2771 0428 6600     		.ascii	"f\000"
 2772 042a 01       		.byte	0x1
 2773 042b 6C02     		.2byte	0x26c
 2774 042d 25000000 		.4byte	0x25
 2775 0431 19       		.uleb128 0x19
ARM GAS  C:\Users\matij\AppData\Local\Temp\ccfrwtxb.s 			page 72


 2776 0432 7000     		.ascii	"p\000"
 2777 0434 01       		.byte	0x1
 2778 0435 6C02     		.2byte	0x26c
 2779 0437 25000000 		.4byte	0x25
 2780 043b 19       		.uleb128 0x19
 2781 043c 7100     		.ascii	"q\000"
 2782 043e 01       		.byte	0x1
 2783 043f 6C02     		.2byte	0x26c
 2784 0441 25000000 		.4byte	0x25
 2785 0445 19       		.uleb128 0x19
 2786 0446 7400     		.ascii	"t\000"
 2787 0448 01       		.byte	0x1
 2788 0449 6C02     		.2byte	0x26c
 2789 044b 25000000 		.4byte	0x25
 2790 044f 00       		.byte	0
 2791 0450 07       		.uleb128 0x7
 2792 0451 04       		.byte	0x4
 2793 0452 25000000 		.4byte	0x25
 2794 0456 15       		.uleb128 0x15
 2795 0457 CC000000 		.4byte	.LASF67
 2796 045b 01       		.byte	0x1
 2797 045c A803     		.2byte	0x3a8
 2798 045e 01       		.byte	0x1
 2799 045f 88040000 		.4byte	0x488
 2800 0463 1A       		.uleb128 0x1a
 2801 0464 A3040000 		.4byte	.LASF68
 2802 0468 01       		.byte	0x1
 2803 0469 A803     		.2byte	0x3a8
 2804 046b E9000000 		.4byte	0xe9
 2805 046f 16       		.uleb128 0x16
 2806 0470 57000000 		.4byte	.LASF61
 2807 0474 01       		.byte	0x1
 2808 0475 AA03     		.2byte	0x3aa
 2809 0477 E9000000 		.4byte	0xe9
 2810 047b 16       		.uleb128 0x16
 2811 047c 08050000 		.4byte	.LASF62
 2812 0480 01       		.byte	0x1
 2813 0481 AB03     		.2byte	0x3ab
 2814 0483 E9000000 		.4byte	0xe9
 2815 0487 00       		.byte	0
 2816 0488 1B       		.uleb128 0x1b
 2817 0489 B8010000 		.4byte	.LASF127
 2818 048d 01       		.byte	0x1
 2819 048e 4301     		.2byte	0x143
 2820 0490 E9000000 		.4byte	0xe9
 2821 0494 00000000 		.4byte	.LFB66
 2822 0498 18000000 		.4byte	.LFE66-.LFB66
 2823 049c 01       		.uleb128 0x1
 2824 049d 9C       		.byte	0x9c
 2825 049e 1C       		.uleb128 0x1c
 2826 049f 7C040000 		.4byte	.LASF128
 2827 04a3 01       		.byte	0x1
 2828 04a4 5E01     		.2byte	0x15e
 2829 04a6 00000000 		.4byte	.LFB67
 2830 04aa 0C000000 		.4byte	.LFE67-.LFB67
 2831 04ae 01       		.uleb128 0x1
 2832 04af 9C       		.byte	0x9c
ARM GAS  C:\Users\matij\AppData\Local\Temp\ccfrwtxb.s 			page 73


 2833 04b0 1D       		.uleb128 0x1d
 2834 04b1 CB060000 		.4byte	.LASF87
 2835 04b5 01       		.byte	0x1
 2836 04b6 7201     		.2byte	0x172
 2837 04b8 E9000000 		.4byte	0xe9
 2838 04bc 00000000 		.4byte	.LFB68
 2839 04c0 24000000 		.4byte	.LFE68-.LFB68
 2840 04c4 01       		.uleb128 0x1
 2841 04c5 9C       		.byte	0x9c
 2842 04c6 09050000 		.4byte	0x509
 2843 04ca 1E       		.uleb128 0x1e
 2844 04cb C8020000 		.4byte	.LASF71
 2845 04cf 01       		.byte	0x1
 2846 04d0 7201     		.2byte	0x172
 2847 04d2 E9000000 		.4byte	0xe9
 2848 04d6 00000000 		.4byte	.LLST0
 2849 04da 1F       		.uleb128 0x1f
 2850 04db F7040000 		.4byte	.LASF66
 2851 04df 01       		.byte	0x1
 2852 04e0 7401     		.2byte	0x174
 2853 04e2 E9000000 		.4byte	0xe9
 2854 04e6 21000000 		.4byte	.LLST1
 2855 04ea 16       		.uleb128 0x16
 2856 04eb 92040000 		.4byte	.LASF69
 2857 04ef 01       		.byte	0x1
 2858 04f0 7501     		.2byte	0x175
 2859 04f2 1E050000 		.4byte	0x51e
 2860 04f6 20       		.uleb128 0x20
 2861 04f7 C1000000 		.4byte	.LASF70
 2862 04fb 01       		.byte	0x1
 2863 04fc 7601     		.2byte	0x176
 2864 04fe E9000000 		.4byte	0xe9
 2865 0502 05       		.uleb128 0x5
 2866 0503 03       		.byte	0x3
 2867 0504 00000000 		.4byte	colorIndex.7250
 2868 0508 00       		.byte	0
 2869 0509 13       		.uleb128 0x13
 2870 050a 19050000 		.4byte	0x519
 2871 050e 19050000 		.4byte	0x519
 2872 0512 14       		.uleb128 0x14
 2873 0513 27010000 		.4byte	0x127
 2874 0517 77       		.byte	0x77
 2875 0518 00       		.byte	0
 2876 0519 12       		.uleb128 0x12
 2877 051a E9000000 		.4byte	0xe9
 2878 051e 12       		.uleb128 0x12
 2879 051f 09050000 		.4byte	0x509
 2880 0523 21       		.uleb128 0x21
 2881 0524 F1060000 		.4byte	.LASF74
 2882 0528 01       		.byte	0x1
 2883 0529 8501     		.2byte	0x185
 2884 052b 00000000 		.4byte	.LFB69
 2885 052f 14000000 		.4byte	.LFE69-.LFB69
 2886 0533 01       		.uleb128 0x1
 2887 0534 9C       		.byte	0x9c
 2888 0535 64050000 		.4byte	0x564
 2889 0539 22       		.uleb128 0x22
ARM GAS  C:\Users\matij\AppData\Local\Temp\ccfrwtxb.s 			page 74


 2890 053a 52656400 		.ascii	"Red\000"
 2891 053e 01       		.byte	0x1
 2892 053f 8501     		.2byte	0x185
 2893 0541 E9000000 		.4byte	0xe9
 2894 0545 01       		.uleb128 0x1
 2895 0546 50       		.byte	0x50
 2896 0547 23       		.uleb128 0x23
 2897 0548 51050000 		.4byte	.LASF72
 2898 054c 01       		.byte	0x1
 2899 054d 8501     		.2byte	0x185
 2900 054f E9000000 		.4byte	0xe9
 2901 0553 01       		.uleb128 0x1
 2902 0554 51       		.byte	0x51
 2903 0555 23       		.uleb128 0x23
 2904 0556 7B010000 		.4byte	.LASF73
 2905 055a 01       		.byte	0x1
 2906 055b 8501     		.2byte	0x185
 2907 055d E9000000 		.4byte	0xe9
 2908 0561 01       		.uleb128 0x1
 2909 0562 52       		.byte	0x52
 2910 0563 00       		.byte	0
 2911 0564 21       		.uleb128 0x21
 2912 0565 E2040000 		.4byte	.LASF75
 2913 0569 01       		.byte	0x1
 2914 056a 0A02     		.2byte	0x20a
 2915 056c 00000000 		.4byte	.LFB73
 2916 0570 18000000 		.4byte	.LFE73-.LFB73
 2917 0574 01       		.uleb128 0x1
 2918 0575 9C       		.byte	0x9c
 2919 0576 A6050000 		.4byte	0x5a6
 2920 057a 23       		.uleb128 0x23
 2921 057b F7040000 		.4byte	.LASF66
 2922 057f 01       		.byte	0x1
 2923 0580 0A02     		.2byte	0x20a
 2924 0582 E9000000 		.4byte	0xe9
 2925 0586 01       		.uleb128 0x1
 2926 0587 50       		.byte	0x50
 2927 0588 24       		.uleb128 0x24
 2928 0589 726F7700 		.ascii	"row\000"
 2929 058d 01       		.byte	0x1
 2930 058e 0C02     		.2byte	0x20c
 2931 0590 E9000000 		.4byte	0xe9
 2932 0594 00       		.byte	0
 2933 0595 25       		.uleb128 0x25
 2934 0596 636F6C00 		.ascii	"col\000"
 2935 059a 01       		.byte	0x1
 2936 059b 0C02     		.2byte	0x20c
 2937 059d E9000000 		.4byte	0xe9
 2938 05a1 55000000 		.4byte	.LLST2
 2939 05a5 00       		.byte	0
 2940 05a6 26       		.uleb128 0x26
 2941 05a7 91030000 		.4byte	.LASF76
 2942 05ab 01       		.byte	0x1
 2943 05ac E4       		.byte	0xe4
 2944 05ad 00000000 		.4byte	.LFB64
 2945 05b1 80000000 		.4byte	.LFE64-.LFB64
 2946 05b5 01       		.uleb128 0x1
ARM GAS  C:\Users\matij\AppData\Local\Temp\ccfrwtxb.s 			page 75


 2947 05b6 9C       		.byte	0x9c
 2948 05b7 54060000 		.4byte	0x654
 2949 05bb 27       		.uleb128 0x27
 2950 05bc AD000000 		.4byte	.LASF77
 2951 05c0 01       		.byte	0x1
 2952 05c1 E6       		.byte	0xe6
 2953 05c2 D1000000 		.4byte	0xd1
 2954 05c6 27       		.uleb128 0x27
 2955 05c7 6A060000 		.4byte	.LASF63
 2956 05cb 01       		.byte	0x1
 2957 05cc E7       		.byte	0xe7
 2958 05cd E9000000 		.4byte	0xe9
 2959 05d1 28       		.uleb128 0x28
 2960 05d2 56040000 		.4byte	0x456
 2961 05d6 34000000 		.4byte	.LBB4
 2962 05da 0C000000 		.4byte	.LBE4-.LBB4
 2963 05de 01       		.byte	0x1
 2964 05df F7       		.byte	0xf7
 2965 05e0 02060000 		.4byte	0x602
 2966 05e4 29       		.uleb128 0x29
 2967 05e5 63040000 		.4byte	0x463
 2968 05e9 74000000 		.4byte	.LLST3
 2969 05ed 2A       		.uleb128 0x2a
 2970 05ee 34000000 		.4byte	.LBB5
 2971 05f2 0C000000 		.4byte	.LBE5-.LBB5
 2972 05f6 2B       		.uleb128 0x2b
 2973 05f7 6F040000 		.4byte	0x46f
 2974 05fb 2B       		.uleb128 0x2b
 2975 05fc 7B040000 		.4byte	0x47b
 2976 0600 00       		.byte	0
 2977 0601 00       		.byte	0
 2978 0602 2C       		.uleb128 0x2c
 2979 0603 2A000000 		.4byte	.LVL8
 2980 0607 64050000 		.4byte	0x564
 2981 060b 15060000 		.4byte	0x615
 2982 060f 2D       		.uleb128 0x2d
 2983 0610 01       		.uleb128 0x1
 2984 0611 50       		.byte	0x50
 2985 0612 01       		.uleb128 0x1
 2986 0613 30       		.byte	0x30
 2987 0614 00       		.byte	0
 2988 0615 2C       		.uleb128 0x2c
 2989 0616 34000000 		.4byte	.LVL9
 2990 061a FF130000 		.4byte	0x13ff
 2991 061e 29060000 		.4byte	0x629
 2992 0622 2D       		.uleb128 0x2d
 2993 0623 01       		.uleb128 0x1
 2994 0624 50       		.byte	0x50
 2995 0625 02       		.uleb128 0x2
 2996 0626 75       		.byte	0x75
 2997 0627 00       		.sleb128 0
 2998 0628 00       		.byte	0
 2999 0629 2C       		.uleb128 0x2c
 3000 062a 4E000000 		.4byte	.LVL11
 3001 062e 0A140000 		.4byte	0x140a
 3002 0632 40060000 		.4byte	0x640
 3003 0636 2D       		.uleb128 0x2d
ARM GAS  C:\Users\matij\AppData\Local\Temp\ccfrwtxb.s 			page 76


 3004 0637 01       		.uleb128 0x1
 3005 0638 50       		.byte	0x50
 3006 0639 05       		.uleb128 0x5
 3007 063a 03       		.byte	0x3
 3008 063b 00000000 		.4byte	StripLights_CISR
 3009 063f 00       		.byte	0
 3010 0640 2E       		.uleb128 0x2e
 3011 0641 54000000 		.4byte	.LVL12
 3012 0645 15140000 		.4byte	0x1415
 3013 0649 2D       		.uleb128 0x2d
 3014 064a 01       		.uleb128 0x1
 3015 064b 50       		.byte	0x50
 3016 064c 05       		.uleb128 0x5
 3017 064d 03       		.byte	0x3
 3018 064e 00000000 		.4byte	StripLights_FISR
 3019 0652 00       		.byte	0
 3020 0653 00       		.byte	0
 3021 0654 21       		.uleb128 0x21
 3022 0655 5F010000 		.4byte	.LASF78
 3023 0659 01       		.byte	0x1
 3024 065a 2B02     		.2byte	0x22b
 3025 065c 00000000 		.4byte	.LFB74
 3026 0660 28000000 		.4byte	.LFE74-.LFB74
 3027 0664 01       		.uleb128 0x1
 3028 0665 9C       		.byte	0x9c
 3029 0666 7B060000 		.4byte	0x67b
 3030 066a 1E       		.uleb128 0x1e
 3031 066b F7040000 		.4byte	.LASF66
 3032 066f 01       		.byte	0x1
 3033 0670 2B02     		.2byte	0x22b
 3034 0672 E9000000 		.4byte	0xe9
 3035 0676 88000000 		.4byte	.LLST4
 3036 067a 00       		.byte	0
 3037 067b 21       		.uleb128 0x21
 3038 067c E2010000 		.4byte	.LASF79
 3039 0680 01       		.byte	0x1
 3040 0681 1D01     		.2byte	0x11d
 3041 0683 00000000 		.4byte	.LFB65
 3042 0687 44000000 		.4byte	.LFE65-.LFB65
 3043 068b 01       		.uleb128 0x1
 3044 068c 9C       		.byte	0x9c
 3045 068d BB060000 		.4byte	0x6bb
 3046 0691 2F       		.uleb128 0x2f
 3047 0692 72737400 		.ascii	"rst\000"
 3048 0696 01       		.byte	0x1
 3049 0697 1D01     		.2byte	0x11d
 3050 0699 E9000000 		.4byte	0xe9
 3051 069d CC000000 		.4byte	.LLST5
 3052 06a1 1F       		.uleb128 0x1f
 3053 06a2 F7040000 		.4byte	.LASF66
 3054 06a6 01       		.byte	0x1
 3055 06a7 1F01     		.2byte	0x11f
 3056 06a9 E9000000 		.4byte	0xe9
 3057 06ad ED000000 		.4byte	.LLST6
 3058 06b1 30       		.uleb128 0x30
 3059 06b2 1E000000 		.4byte	.LVL20
 3060 06b6 54060000 		.4byte	0x654
ARM GAS  C:\Users\matij\AppData\Local\Temp\ccfrwtxb.s 			page 77


 3061 06ba 00       		.byte	0
 3062 06bb 21       		.uleb128 0x21
 3063 06bc 44020000 		.4byte	.LASF80
 3064 06c0 01       		.byte	0x1
 3065 06c1 F701     		.2byte	0x1f7
 3066 06c3 00000000 		.4byte	.LFB72
 3067 06c7 10000000 		.4byte	.LFE72-.LFB72
 3068 06cb 01       		.uleb128 0x1
 3069 06cc 9C       		.byte	0x9c
 3070 06cd 06070000 		.4byte	0x706
 3071 06d1 1E       		.uleb128 0x1e
 3072 06d2 F7040000 		.4byte	.LASF66
 3073 06d6 01       		.byte	0x1
 3074 06d7 F701     		.2byte	0x1f7
 3075 06d9 E9000000 		.4byte	0xe9
 3076 06dd 0F010000 		.4byte	.LLST7
 3077 06e1 2C       		.uleb128 0x2c
 3078 06e2 06000000 		.4byte	.LVL22
 3079 06e6 64050000 		.4byte	0x564
 3080 06ea F6060000 		.4byte	0x6f6
 3081 06ee 2D       		.uleb128 0x2d
 3082 06ef 01       		.uleb128 0x1
 3083 06f0 50       		.byte	0x50
 3084 06f1 03       		.uleb128 0x3
 3085 06f2 F3       		.byte	0xf3
 3086 06f3 01       		.uleb128 0x1
 3087 06f4 50       		.byte	0x50
 3088 06f5 00       		.byte	0
 3089 06f6 31       		.uleb128 0x31
 3090 06f7 10000000 		.4byte	.LVL23
 3091 06fb 7B060000 		.4byte	0x67b
 3092 06ff 2D       		.uleb128 0x2d
 3093 0700 01       		.uleb128 0x1
 3094 0701 50       		.byte	0x50
 3095 0702 01       		.uleb128 0x1
 3096 0703 31       		.byte	0x31
 3097 0704 00       		.byte	0
 3098 0705 00       		.byte	0
 3099 0706 21       		.uleb128 0x21
 3100 0707 FA000000 		.4byte	.LASF81
 3101 070b 01       		.byte	0x1
 3102 070c 9D01     		.2byte	0x19d
 3103 070e 00000000 		.4byte	.LFB70
 3104 0712 38000000 		.4byte	.LFE70-.LFB70
 3105 0716 01       		.uleb128 0x1
 3106 0717 9C       		.byte	0x9c
 3107 0718 4A070000 		.4byte	0x74a
 3108 071c 16       		.uleb128 0x16
 3109 071d 57000000 		.4byte	.LASF61
 3110 0721 01       		.byte	0x1
 3111 0722 9F01     		.2byte	0x19f
 3112 0724 E9000000 		.4byte	0xe9
 3113 0728 16       		.uleb128 0x16
 3114 0729 08050000 		.4byte	.LASF62
 3115 072d 01       		.byte	0x1
 3116 072e A001     		.2byte	0x1a0
 3117 0730 E9000000 		.4byte	0xe9
ARM GAS  C:\Users\matij\AppData\Local\Temp\ccfrwtxb.s 			page 78


 3118 0734 17       		.uleb128 0x17
 3119 0735 F7040000 		.4byte	.LASF66
 3120 0739 01       		.byte	0x1
 3121 073a A101     		.2byte	0x1a1
 3122 073c E9000000 		.4byte	0xe9
 3123 0740 32       		.uleb128 0x32
 3124 0741 22000000 		.4byte	.LVL24
 3125 0745 54060000 		.4byte	0x654
 3126 0749 00       		.byte	0
 3127 074a 33       		.uleb128 0x33
 3128 074b 96030000 		.4byte	0x396
 3129 074f 00000000 		.4byte	.LFB71
 3130 0753 5C000000 		.4byte	.LFE71-.LFB71
 3131 0757 01       		.uleb128 0x1
 3132 0758 9C       		.byte	0x9c
 3133 0759 BD070000 		.4byte	0x7bd
 3134 075d 16       		.uleb128 0x16
 3135 075e 57000000 		.4byte	.LASF61
 3136 0762 01       		.byte	0x1
 3137 0763 C701     		.2byte	0x1c7
 3138 0765 E9000000 		.4byte	0xe9
 3139 0769 16       		.uleb128 0x16
 3140 076a 08050000 		.4byte	.LASF62
 3141 076e 01       		.byte	0x1
 3142 076f C801     		.2byte	0x1c8
 3143 0771 E9000000 		.4byte	0xe9
 3144 0775 34       		.uleb128 0x34
 3145 0776 BB030000 		.4byte	0x3bb
 3146 077a 16       		.uleb128 0x16
 3147 077b 6A060000 		.4byte	.LASF63
 3148 077f 01       		.byte	0x1
 3149 0780 CA01     		.2byte	0x1ca
 3150 0782 E9000000 		.4byte	0xe9
 3151 0786 35       		.uleb128 0x35
 3152 0787 00000000 		.4byte	.Ldebug_ranges0+0
 3153 078b B3070000 		.4byte	0x7b3
 3154 078f 2B       		.uleb128 0x2b
 3155 0790 5D070000 		.4byte	0x75d
 3156 0794 2B       		.uleb128 0x2b
 3157 0795 69070000 		.4byte	0x769
 3158 0799 34       		.uleb128 0x34
 3159 079a BB030000 		.4byte	0x3bb
 3160 079e 2B       		.uleb128 0x2b
 3161 079f 7A070000 		.4byte	0x77a
 3162 07a3 2E       		.uleb128 0x2e
 3163 07a4 38000000 		.4byte	.LVL26
 3164 07a8 20140000 		.4byte	0x1420
 3165 07ac 2D       		.uleb128 0x2d
 3166 07ad 01       		.uleb128 0x1
 3167 07ae 50       		.byte	0x50
 3168 07af 01       		.uleb128 0x1
 3169 07b0 31       		.byte	0x31
 3170 07b1 00       		.byte	0
 3171 07b2 00       		.byte	0
 3172 07b3 30       		.uleb128 0x30
 3173 07b4 1E000000 		.4byte	.LVL25
 3174 07b8 54060000 		.4byte	0x654
ARM GAS  C:\Users\matij\AppData\Local\Temp\ccfrwtxb.s 			page 79


 3175 07bc 00       		.byte	0
 3176 07bd 36       		.uleb128 0x36
 3177 07be 55060000 		.4byte	.LASF82
 3178 07c2 01       		.byte	0x1
 3179 07c3 4B02     		.2byte	0x24b
 3180 07c5 00000000 		.4byte	.LFB75
 3181 07c9 14010000 		.4byte	.LFE75-.LFB75
 3182 07cd 01       		.uleb128 0x1
 3183 07ce 9C       		.byte	0x9c
 3184 07cf 99080000 		.4byte	0x899
 3185 07d3 2F       		.uleb128 0x2f
 3186 07d4 7200     		.ascii	"r\000"
 3187 07d6 01       		.byte	0x1
 3188 07d7 4B02     		.2byte	0x24b
 3189 07d9 25000000 		.4byte	0x25
 3190 07dd 30010000 		.4byte	.LLST8
 3191 07e1 2F       		.uleb128 0x2f
 3192 07e2 6700     		.ascii	"g\000"
 3193 07e4 01       		.byte	0x1
 3194 07e5 4B02     		.2byte	0x24b
 3195 07e7 25000000 		.4byte	0x25
 3196 07eb 5E010000 		.4byte	.LLST9
 3197 07ef 2F       		.uleb128 0x2f
 3198 07f0 6200     		.ascii	"b\000"
 3199 07f2 01       		.byte	0x1
 3200 07f3 4B02     		.2byte	0x24b
 3201 07f5 25000000 		.4byte	0x25
 3202 07f9 8C010000 		.4byte	.LLST10
 3203 07fd 2F       		.uleb128 0x2f
 3204 07fe 6800     		.ascii	"h\000"
 3205 0800 01       		.byte	0x1
 3206 0801 4B02     		.2byte	0x24b
 3207 0803 50040000 		.4byte	0x450
 3208 0807 BA010000 		.4byte	.LLST11
 3209 080b 2F       		.uleb128 0x2f
 3210 080c 7300     		.ascii	"s\000"
 3211 080e 01       		.byte	0x1
 3212 080f 4B02     		.2byte	0x24b
 3213 0811 50040000 		.4byte	0x450
 3214 0815 E6010000 		.4byte	.LLST12
 3215 0819 2F       		.uleb128 0x2f
 3216 081a 7600     		.ascii	"v\000"
 3217 081c 01       		.byte	0x1
 3218 081d 4B02     		.2byte	0x24b
 3219 081f 50040000 		.4byte	0x450
 3220 0823 06020000 		.4byte	.LLST13
 3221 0827 25       		.uleb128 0x25
 3222 0828 6D696E00 		.ascii	"min\000"
 3223 082c 01       		.byte	0x1
 3224 082d 4D02     		.2byte	0x24d
 3225 082f 25000000 		.4byte	0x25
 3226 0833 26020000 		.4byte	.LLST14
 3227 0837 25       		.uleb128 0x25
 3228 0838 6D617800 		.ascii	"max\000"
 3229 083c 01       		.byte	0x1
 3230 083d 4D02     		.2byte	0x24d
 3231 083f 25000000 		.4byte	0x25
ARM GAS  C:\Users\matij\AppData\Local\Temp\ccfrwtxb.s 			page 80


 3232 0843 63020000 		.4byte	.LLST15
 3233 0847 1F       		.uleb128 0x1f
 3234 0848 B2060000 		.4byte	.LASF83
 3235 084c 01       		.byte	0x1
 3236 084d 4D02     		.2byte	0x24d
 3237 084f 25000000 		.4byte	0x25
 3238 0853 81020000 		.4byte	.LLST16
 3239 0857 37       		.uleb128 0x37
 3240 0858 4D494E00 		.ascii	"MIN\000"
 3241 085c 01       		.byte	0x1
 3242 085d 4E02     		.2byte	0x24e
 3243 085f 2C000000 		.4byte	0x2c
 3244 0863 69080000 		.4byte	0x869
 3245 0867 38       		.uleb128 0x38
 3246 0868 00       		.byte	0
 3247 0869 37       		.uleb128 0x37
 3248 086a 4D415800 		.ascii	"MAX\000"
 3249 086e 01       		.byte	0x1
 3250 086f 4F02     		.2byte	0x24f
 3251 0871 2C000000 		.4byte	0x2c
 3252 0875 7B080000 		.4byte	0x87b
 3253 0879 38       		.uleb128 0x38
 3254 087a 00       		.byte	0
 3255 087b 30       		.uleb128 0x30
 3256 087c 3E000000 		.4byte	.LVL32
 3257 0880 2B140000 		.4byte	0x142b
 3258 0884 2E       		.uleb128 0x2e
 3259 0885 54000000 		.4byte	.LVL35
 3260 0889 37140000 		.4byte	0x1437
 3261 088d 2D       		.uleb128 0x2d
 3262 088e 02       		.uleb128 0x2
 3263 088f 7D       		.byte	0x7d
 3264 0890 00       		.sleb128 0
 3265 0891 05       		.uleb128 0x5
 3266 0892 91       		.byte	0x91
 3267 0893 48       		.sleb128 -56
 3268 0894 F6       		.byte	0xf6
 3269 0895 08       		.byte	0x8
 3270 0896 33       		.uleb128 0x33
 3271 0897 00       		.byte	0
 3272 0898 00       		.byte	0
 3273 0899 39       		.uleb128 0x39
 3274 089a D4030000 		.4byte	0x3d4
 3275 089e 00000000 		.4byte	.LFB76
 3276 08a2 E4000000 		.4byte	.LFE76-.LFB76
 3277 08a6 01       		.uleb128 0x1
 3278 08a7 9C       		.byte	0x9c
 3279 08a8 71090000 		.4byte	0x971
 3280 08ac 29       		.uleb128 0x29
 3281 08ad E1030000 		.4byte	0x3e1
 3282 08b1 B5020000 		.4byte	.LLST17
 3283 08b5 29       		.uleb128 0x29
 3284 08b6 EB030000 		.4byte	0x3eb
 3285 08ba E1020000 		.4byte	.LLST18
 3286 08be 29       		.uleb128 0x29
 3287 08bf F5030000 		.4byte	0x3f5
 3288 08c3 0D030000 		.4byte	.LLST19
ARM GAS  C:\Users\matij\AppData\Local\Temp\ccfrwtxb.s 			page 81


 3289 08c7 29       		.uleb128 0x29
 3290 08c8 FF030000 		.4byte	0x3ff
 3291 08cc 39030000 		.4byte	.LLST20
 3292 08d0 29       		.uleb128 0x29
 3293 08d1 09040000 		.4byte	0x409
 3294 08d5 67030000 		.4byte	.LLST21
 3295 08d9 29       		.uleb128 0x29
 3296 08da 13040000 		.4byte	0x413
 3297 08de 93030000 		.4byte	.LLST22
 3298 08e2 34       		.uleb128 0x34
 3299 08e3 1D040000 		.4byte	0x41d
 3300 08e7 34       		.uleb128 0x34
 3301 08e8 27040000 		.4byte	0x427
 3302 08ec 34       		.uleb128 0x34
 3303 08ed 31040000 		.4byte	0x431
 3304 08f1 34       		.uleb128 0x34
 3305 08f2 3B040000 		.4byte	0x43b
 3306 08f6 34       		.uleb128 0x34
 3307 08f7 45040000 		.4byte	0x445
 3308 08fb 2A       		.uleb128 0x2a
 3309 08fc 22000000 		.4byte	.LBB14
 3310 0900 C2000000 		.4byte	.LBE14-.LBB14
 3311 0904 29       		.uleb128 0x29
 3312 0905 13040000 		.4byte	0x413
 3313 0909 BF030000 		.4byte	.LLST23
 3314 090d 29       		.uleb128 0x29
 3315 090e 09040000 		.4byte	0x409
 3316 0912 DE030000 		.4byte	.LLST24
 3317 0916 29       		.uleb128 0x29
 3318 0917 FF030000 		.4byte	0x3ff
 3319 091b FE030000 		.4byte	.LLST25
 3320 091f 29       		.uleb128 0x29
 3321 0920 F5030000 		.4byte	0x3f5
 3322 0924 27040000 		.4byte	.LLST26
 3323 0928 29       		.uleb128 0x29
 3324 0929 EB030000 		.4byte	0x3eb
 3325 092d 48040000 		.4byte	.LLST27
 3326 0931 29       		.uleb128 0x29
 3327 0932 E1030000 		.4byte	0x3e1
 3328 0936 69040000 		.4byte	.LLST28
 3329 093a 2A       		.uleb128 0x2a
 3330 093b 22000000 		.4byte	.LBB15
 3331 093f C2000000 		.4byte	.LBE15-.LBB15
 3332 0943 3A       		.uleb128 0x3a
 3333 0944 1D040000 		.4byte	0x41d
 3334 0948 8A040000 		.4byte	.LLST29
 3335 094c 3A       		.uleb128 0x3a
 3336 094d 27040000 		.4byte	0x427
 3337 0951 A8040000 		.4byte	.LLST30
 3338 0955 3A       		.uleb128 0x3a
 3339 0956 31040000 		.4byte	0x431
 3340 095a C6040000 		.4byte	.LLST31
 3341 095e 3A       		.uleb128 0x3a
 3342 095f 3B040000 		.4byte	0x43b
 3343 0963 E4040000 		.4byte	.LLST32
 3344 0967 3B       		.uleb128 0x3b
 3345 0968 45040000 		.4byte	0x445
ARM GAS  C:\Users\matij\AppData\Local\Temp\ccfrwtxb.s 			page 82


 3346 096c 01       		.uleb128 0x1
 3347 096d 50       		.byte	0x50
 3348 096e 00       		.byte	0
 3349 096f 00       		.byte	0
 3350 0970 00       		.byte	0
 3351 0971 21       		.uleb128 0x21
 3352 0972 D9020000 		.4byte	.LASF84
 3353 0976 01       		.byte	0x1
 3354 0977 B002     		.2byte	0x2b0
 3355 0979 00000000 		.4byte	.LFB78
 3356 097d 14000000 		.4byte	.LFE78-.LFB78
 3357 0981 01       		.uleb128 0x1
 3358 0982 9C       		.byte	0x9c
 3359 0983 AE090000 		.4byte	0x9ae
 3360 0987 22       		.uleb128 0x22
 3361 0988 7800     		.ascii	"x\000"
 3362 098a 01       		.byte	0x1
 3363 098b B002     		.2byte	0x2b0
 3364 098d F5000000 		.4byte	0xf5
 3365 0991 01       		.uleb128 0x1
 3366 0992 50       		.byte	0x50
 3367 0993 22       		.uleb128 0x22
 3368 0994 7900     		.ascii	"y\000"
 3369 0996 01       		.byte	0x1
 3370 0997 B002     		.2byte	0x2b0
 3371 0999 F5000000 		.4byte	0xf5
 3372 099d 01       		.uleb128 0x1
 3373 099e 51       		.byte	0x51
 3374 099f 23       		.uleb128 0x23
 3375 09a0 F7040000 		.4byte	.LASF66
 3376 09a4 01       		.byte	0x1
 3377 09a5 B002     		.2byte	0x2b0
 3378 09a7 E9000000 		.4byte	0xe9
 3379 09ab 01       		.uleb128 0x1
 3380 09ac 52       		.byte	0x52
 3381 09ad 00       		.byte	0
 3382 09ae 36       		.uleb128 0x36
 3383 09af 3B050000 		.4byte	.LASF85
 3384 09b3 01       		.byte	0x1
 3385 09b4 9A02     		.2byte	0x29a
 3386 09b6 00000000 		.4byte	.LFB77
 3387 09ba 70000000 		.4byte	.LFE77-.LFB77
 3388 09be 01       		.uleb128 0x1
 3389 09bf 9C       		.byte	0x9c
 3390 09c0 950A0000 		.4byte	0xa95
 3391 09c4 2F       		.uleb128 0x2f
 3392 09c5 7800     		.ascii	"x\000"
 3393 09c7 01       		.byte	0x1
 3394 09c8 9A02     		.2byte	0x29a
 3395 09ca F5000000 		.4byte	0xf5
 3396 09ce 0F050000 		.4byte	.LLST33
 3397 09d2 2F       		.uleb128 0x2f
 3398 09d3 7900     		.ascii	"y\000"
 3399 09d5 01       		.byte	0x1
 3400 09d6 9A02     		.2byte	0x29a
 3401 09d8 F5000000 		.4byte	0xf5
 3402 09dc 3B050000 		.4byte	.LLST34
ARM GAS  C:\Users\matij\AppData\Local\Temp\ccfrwtxb.s 			page 83


 3403 09e0 2F       		.uleb128 0x2f
 3404 09e1 6800     		.ascii	"h\000"
 3405 09e3 01       		.byte	0x1
 3406 09e4 9A02     		.2byte	0x29a
 3407 09e6 25000000 		.4byte	0x25
 3408 09ea 67050000 		.4byte	.LLST35
 3409 09ee 2F       		.uleb128 0x2f
 3410 09ef 7300     		.ascii	"s\000"
 3411 09f1 01       		.byte	0x1
 3412 09f2 9A02     		.2byte	0x29a
 3413 09f4 25000000 		.4byte	0x25
 3414 09f8 95050000 		.4byte	.LLST36
 3415 09fc 2F       		.uleb128 0x2f
 3416 09fd 7600     		.ascii	"v\000"
 3417 09ff 01       		.byte	0x1
 3418 0a00 9A02     		.2byte	0x29a
 3419 0a02 25000000 		.4byte	0x25
 3420 0a06 C4050000 		.4byte	.LLST37
 3421 0a0a 3C       		.uleb128 0x3c
 3422 0a0b 5200     		.ascii	"R\000"
 3423 0a0d 01       		.byte	0x1
 3424 0a0e 9B02     		.2byte	0x29b
 3425 0a10 25000000 		.4byte	0x25
 3426 0a14 02       		.uleb128 0x2
 3427 0a15 91       		.byte	0x91
 3428 0a16 5C       		.sleb128 -36
 3429 0a17 3C       		.uleb128 0x3c
 3430 0a18 4700     		.ascii	"G\000"
 3431 0a1a 01       		.byte	0x1
 3432 0a1b 9B02     		.2byte	0x29b
 3433 0a1d 25000000 		.4byte	0x25
 3434 0a21 02       		.uleb128 0x2
 3435 0a22 91       		.byte	0x91
 3436 0a23 60       		.sleb128 -32
 3437 0a24 3C       		.uleb128 0x3c
 3438 0a25 4200     		.ascii	"B\000"
 3439 0a27 01       		.byte	0x1
 3440 0a28 9B02     		.2byte	0x29b
 3441 0a2a 25000000 		.4byte	0x25
 3442 0a2e 02       		.uleb128 0x2
 3443 0a2f 91       		.byte	0x91
 3444 0a30 64       		.sleb128 -28
 3445 0a31 1F       		.uleb128 0x1f
 3446 0a32 4E060000 		.4byte	.LASF86
 3447 0a36 01       		.byte	0x1
 3448 0a37 9E02     		.2byte	0x29e
 3449 0a39 E9000000 		.4byte	0xe9
 3450 0a3d E4050000 		.4byte	.LLST38
 3451 0a41 2C       		.uleb128 0x2c
 3452 0a42 1A000000 		.4byte	.LVL92
 3453 0a46 D4030000 		.4byte	0x3d4
 3454 0a4a 7E0A0000 		.4byte	0xa7e
 3455 0a4e 2D       		.uleb128 0x2d
 3456 0a4f 01       		.uleb128 0x1
 3457 0a50 50       		.byte	0x50
 3458 0a51 02       		.uleb128 0x2
 3459 0a52 91       		.byte	0x91
ARM GAS  C:\Users\matij\AppData\Local\Temp\ccfrwtxb.s 			page 84


 3460 0a53 5C       		.sleb128 -36
 3461 0a54 2D       		.uleb128 0x2d
 3462 0a55 01       		.uleb128 0x1
 3463 0a56 51       		.byte	0x51
 3464 0a57 02       		.uleb128 0x2
 3465 0a58 91       		.byte	0x91
 3466 0a59 60       		.sleb128 -32
 3467 0a5a 2D       		.uleb128 0x2d
 3468 0a5b 01       		.uleb128 0x1
 3469 0a5c 52       		.byte	0x52
 3470 0a5d 02       		.uleb128 0x2
 3471 0a5e 91       		.byte	0x91
 3472 0a5f 64       		.sleb128 -28
 3473 0a60 2D       		.uleb128 0x2d
 3474 0a61 01       		.uleb128 0x1
 3475 0a62 53       		.byte	0x53
 3476 0a63 05       		.uleb128 0x5
 3477 0a64 F3       		.byte	0xf3
 3478 0a65 03       		.uleb128 0x3
 3479 0a66 F5       		.byte	0xf5
 3480 0a67 02       		.uleb128 0x2
 3481 0a68 25       		.uleb128 0x25
 3482 0a69 2D       		.uleb128 0x2d
 3483 0a6a 02       		.uleb128 0x2
 3484 0a6b 7D       		.byte	0x7d
 3485 0a6c 00       		.sleb128 0
 3486 0a6d 05       		.uleb128 0x5
 3487 0a6e F3       		.byte	0xf3
 3488 0a6f 03       		.uleb128 0x3
 3489 0a70 F5       		.byte	0xf5
 3490 0a71 03       		.uleb128 0x3
 3491 0a72 25       		.uleb128 0x25
 3492 0a73 2D       		.uleb128 0x2d
 3493 0a74 02       		.uleb128 0x2
 3494 0a75 7D       		.byte	0x7d
 3495 0a76 04       		.sleb128 4
 3496 0a77 05       		.uleb128 0x5
 3497 0a78 91       		.byte	0x91
 3498 0a79 00       		.sleb128 0
 3499 0a7a F6       		.byte	0xf6
 3500 0a7b 04       		.byte	0x4
 3501 0a7c 25       		.uleb128 0x25
 3502 0a7d 00       		.byte	0
 3503 0a7e 2E       		.uleb128 0x2e
 3504 0a7f 5E000000 		.4byte	.LVL99
 3505 0a83 71090000 		.4byte	0x971
 3506 0a87 2D       		.uleb128 0x2d
 3507 0a88 01       		.uleb128 0x1
 3508 0a89 50       		.byte	0x50
 3509 0a8a 02       		.uleb128 0x2
 3510 0a8b 75       		.byte	0x75
 3511 0a8c 00       		.sleb128 0
 3512 0a8d 2D       		.uleb128 0x2d
 3513 0a8e 01       		.uleb128 0x1
 3514 0a8f 51       		.byte	0x51
 3515 0a90 02       		.uleb128 0x2
 3516 0a91 76       		.byte	0x76
ARM GAS  C:\Users\matij\AppData\Local\Temp\ccfrwtxb.s 			page 85


 3517 0a92 00       		.sleb128 0
 3518 0a93 00       		.byte	0
 3519 0a94 00       		.byte	0
 3520 0a95 1D       		.uleb128 0x1d
 3521 0a96 4A010000 		.4byte	.LASF88
 3522 0a9a 01       		.byte	0x1
 3523 0a9b CC02     		.2byte	0x2cc
 3524 0a9d E9000000 		.4byte	0xe9
 3525 0aa1 00000000 		.4byte	.LFB79
 3526 0aa5 18000000 		.4byte	.LFE79-.LFB79
 3527 0aa9 01       		.uleb128 0x1
 3528 0aaa 9C       		.byte	0x9c
 3529 0aab D80A0000 		.4byte	0xad8
 3530 0aaf 2F       		.uleb128 0x2f
 3531 0ab0 7800     		.ascii	"x\000"
 3532 0ab2 01       		.byte	0x1
 3533 0ab3 CC02     		.2byte	0x2cc
 3534 0ab5 F5000000 		.4byte	0xf5
 3535 0ab9 41060000 		.4byte	.LLST39
 3536 0abd 22       		.uleb128 0x22
 3537 0abe 7900     		.ascii	"y\000"
 3538 0ac0 01       		.byte	0x1
 3539 0ac1 CC02     		.2byte	0x2cc
 3540 0ac3 F5000000 		.4byte	0xf5
 3541 0ac7 01       		.uleb128 0x1
 3542 0ac8 51       		.byte	0x51
 3543 0ac9 20       		.uleb128 0x20
 3544 0aca F7040000 		.4byte	.LASF66
 3545 0ace 01       		.byte	0x1
 3546 0acf CE02     		.2byte	0x2ce
 3547 0ad1 E9000000 		.4byte	0xe9
 3548 0ad5 01       		.uleb128 0x1
 3549 0ad6 53       		.byte	0x53
 3550 0ad7 00       		.byte	0
 3551 0ad8 21       		.uleb128 0x21
 3552 0ad9 FC030000 		.4byte	.LASF89
 3553 0add 01       		.byte	0x1
 3554 0ade EC02     		.2byte	0x2ec
 3555 0ae0 00000000 		.4byte	.LFB80
 3556 0ae4 E2000000 		.4byte	.LFE80-.LFB80
 3557 0ae8 01       		.uleb128 0x1
 3558 0ae9 9C       		.byte	0x9c
 3559 0aea F30C0000 		.4byte	0xcf3
 3560 0aee 2F       		.uleb128 0x2f
 3561 0aef 783000   		.ascii	"x0\000"
 3562 0af2 01       		.byte	0x1
 3563 0af3 EC02     		.2byte	0x2ec
 3564 0af5 F5000000 		.4byte	0xf5
 3565 0af9 62060000 		.4byte	.LLST40
 3566 0afd 2F       		.uleb128 0x2f
 3567 0afe 793000   		.ascii	"y0\000"
 3568 0b01 01       		.byte	0x1
 3569 0b02 EC02     		.2byte	0x2ec
 3570 0b04 F5000000 		.4byte	0xf5
 3571 0b08 80060000 		.4byte	.LLST41
 3572 0b0c 1E       		.uleb128 0x1e
 3573 0b0d A0050000 		.4byte	.LASF90
ARM GAS  C:\Users\matij\AppData\Local\Temp\ccfrwtxb.s 			page 86


 3574 0b11 01       		.byte	0x1
 3575 0b12 EC02     		.2byte	0x2ec
 3576 0b14 F5000000 		.4byte	0xf5
 3577 0b18 9E060000 		.4byte	.LLST42
 3578 0b1c 1E       		.uleb128 0x1e
 3579 0b1d F7040000 		.4byte	.LASF66
 3580 0b21 01       		.byte	0x1
 3581 0b22 EC02     		.2byte	0x2ec
 3582 0b24 E9000000 		.4byte	0xe9
 3583 0b28 CA060000 		.4byte	.LLST43
 3584 0b2c 3C       		.uleb128 0x3c
 3585 0b2d 6600     		.ascii	"f\000"
 3586 0b2f 01       		.byte	0x1
 3587 0b30 EE02     		.2byte	0x2ee
 3588 0b32 F5000000 		.4byte	0xf5
 3589 0b36 01       		.uleb128 0x1
 3590 0b37 5A       		.byte	0x5a
 3591 0b38 1F       		.uleb128 0x1f
 3592 0b39 02050000 		.4byte	.LASF91
 3593 0b3d 01       		.byte	0x1
 3594 0b3e EF02     		.2byte	0x2ef
 3595 0b40 F5000000 		.4byte	0xf5
 3596 0b44 E8060000 		.4byte	.LLST44
 3597 0b48 1F       		.uleb128 0x1f
 3598 0b49 98060000 		.4byte	.LASF92
 3599 0b4d 01       		.byte	0x1
 3600 0b4e F002     		.2byte	0x2f0
 3601 0b50 F5000000 		.4byte	0xf5
 3602 0b54 9B070000 		.4byte	.LLST45
 3603 0b58 25       		.uleb128 0x25
 3604 0b59 7800     		.ascii	"x\000"
 3605 0b5b 01       		.byte	0x1
 3606 0b5c F102     		.2byte	0x2f1
 3607 0b5e F5000000 		.4byte	0xf5
 3608 0b62 DD070000 		.4byte	.LLST46
 3609 0b66 3C       		.uleb128 0x3c
 3610 0b67 7900     		.ascii	"y\000"
 3611 0b69 01       		.byte	0x1
 3612 0b6a F202     		.2byte	0x2f2
 3613 0b6c F5000000 		.4byte	0xf5
 3614 0b70 01       		.uleb128 0x1
 3615 0b71 54       		.byte	0x54
 3616 0b72 2C       		.uleb128 0x2c
 3617 0b73 20000000 		.4byte	.LVL110
 3618 0b77 71090000 		.4byte	0x971
 3619 0b7b 950B0000 		.4byte	0xb95
 3620 0b7f 2D       		.uleb128 0x2d
 3621 0b80 01       		.uleb128 0x1
 3622 0b81 50       		.byte	0x50
 3623 0b82 02       		.uleb128 0x2
 3624 0b83 78       		.byte	0x78
 3625 0b84 00       		.sleb128 0
 3626 0b85 2D       		.uleb128 0x2d
 3627 0b86 01       		.uleb128 0x1
 3628 0b87 51       		.byte	0x51
 3629 0b88 05       		.uleb128 0x5
 3630 0b89 74       		.byte	0x74
ARM GAS  C:\Users\matij\AppData\Local\Temp\ccfrwtxb.s 			page 87


 3631 0b8a 00       		.sleb128 0
 3632 0b8b 76       		.byte	0x76
 3633 0b8c 00       		.sleb128 0
 3634 0b8d 22       		.byte	0x22
 3635 0b8e 2D       		.uleb128 0x2d
 3636 0b8f 01       		.uleb128 0x1
 3637 0b90 52       		.byte	0x52
 3638 0b91 02       		.uleb128 0x2
 3639 0b92 75       		.byte	0x75
 3640 0b93 00       		.sleb128 0
 3641 0b94 00       		.byte	0
 3642 0b95 2C       		.uleb128 0x2c
 3643 0b96 28000000 		.4byte	.LVL111
 3644 0b9a 71090000 		.4byte	0x971
 3645 0b9e B20B0000 		.4byte	0xbb2
 3646 0ba2 2D       		.uleb128 0x2d
 3647 0ba3 01       		.uleb128 0x1
 3648 0ba4 51       		.byte	0x51
 3649 0ba5 05       		.uleb128 0x5
 3650 0ba6 76       		.byte	0x76
 3651 0ba7 00       		.sleb128 0
 3652 0ba8 74       		.byte	0x74
 3653 0ba9 00       		.sleb128 0
 3654 0baa 1C       		.byte	0x1c
 3655 0bab 2D       		.uleb128 0x2d
 3656 0bac 01       		.uleb128 0x1
 3657 0bad 52       		.byte	0x52
 3658 0bae 02       		.uleb128 0x2
 3659 0baf 75       		.byte	0x75
 3660 0bb0 00       		.sleb128 0
 3661 0bb1 00       		.byte	0
 3662 0bb2 2C       		.uleb128 0x2c
 3663 0bb3 32000000 		.4byte	.LVL112
 3664 0bb7 71090000 		.4byte	0x971
 3665 0bbb CC0B0000 		.4byte	0xbcc
 3666 0bbf 2D       		.uleb128 0x2d
 3667 0bc0 01       		.uleb128 0x1
 3668 0bc1 51       		.byte	0x51
 3669 0bc2 02       		.uleb128 0x2
 3670 0bc3 76       		.byte	0x76
 3671 0bc4 00       		.sleb128 0
 3672 0bc5 2D       		.uleb128 0x2d
 3673 0bc6 01       		.uleb128 0x1
 3674 0bc7 52       		.byte	0x52
 3675 0bc8 02       		.uleb128 0x2
 3676 0bc9 75       		.byte	0x75
 3677 0bca 00       		.sleb128 0
 3678 0bcb 00       		.byte	0
 3679 0bcc 2C       		.uleb128 0x2c
 3680 0bcd 3E000000 		.4byte	.LVL113
 3681 0bd1 71090000 		.4byte	0x971
 3682 0bd5 EF0B0000 		.4byte	0xbef
 3683 0bd9 2D       		.uleb128 0x2d
 3684 0bda 01       		.uleb128 0x1
 3685 0bdb 50       		.byte	0x50
 3686 0bdc 05       		.uleb128 0x5
 3687 0bdd 78       		.byte	0x78
ARM GAS  C:\Users\matij\AppData\Local\Temp\ccfrwtxb.s 			page 88


 3688 0bde 00       		.sleb128 0
 3689 0bdf 74       		.byte	0x74
 3690 0be0 00       		.sleb128 0
 3691 0be1 1C       		.byte	0x1c
 3692 0be2 2D       		.uleb128 0x2d
 3693 0be3 01       		.uleb128 0x1
 3694 0be4 51       		.byte	0x51
 3695 0be5 02       		.uleb128 0x2
 3696 0be6 76       		.byte	0x76
 3697 0be7 00       		.sleb128 0
 3698 0be8 2D       		.uleb128 0x2d
 3699 0be9 01       		.uleb128 0x1
 3700 0bea 52       		.byte	0x52
 3701 0beb 02       		.uleb128 0x2
 3702 0bec 75       		.byte	0x75
 3703 0bed 00       		.sleb128 0
 3704 0bee 00       		.byte	0
 3705 0bef 2C       		.uleb128 0x2c
 3706 0bf0 6E000000 		.4byte	.LVL123
 3707 0bf4 71090000 		.4byte	0x971
 3708 0bf8 0F0C0000 		.4byte	0xc0f
 3709 0bfc 2D       		.uleb128 0x2d
 3710 0bfd 01       		.uleb128 0x1
 3711 0bfe 50       		.byte	0x50
 3712 0bff 02       		.uleb128 0x2
 3713 0c00 7B       		.byte	0x7b
 3714 0c01 00       		.sleb128 0
 3715 0c02 2D       		.uleb128 0x2d
 3716 0c03 01       		.uleb128 0x1
 3717 0c04 51       		.byte	0x51
 3718 0c05 02       		.uleb128 0x2
 3719 0c06 79       		.byte	0x79
 3720 0c07 00       		.sleb128 0
 3721 0c08 2D       		.uleb128 0x2d
 3722 0c09 01       		.uleb128 0x1
 3723 0c0a 52       		.byte	0x52
 3724 0c0b 02       		.uleb128 0x2
 3725 0c0c 75       		.byte	0x75
 3726 0c0d 00       		.sleb128 0
 3727 0c0e 00       		.byte	0
 3728 0c0f 2C       		.uleb128 0x2c
 3729 0c10 84000000 		.4byte	.LVL126
 3730 0c14 71090000 		.4byte	0x971
 3731 0c18 330C0000 		.4byte	0xc33
 3732 0c1c 2D       		.uleb128 0x2d
 3733 0c1d 01       		.uleb128 0x1
 3734 0c1e 50       		.byte	0x50
 3735 0c1f 03       		.uleb128 0x3
 3736 0c20 91       		.byte	0x91
 3737 0c21 54       		.sleb128 -44
 3738 0c22 06       		.byte	0x6
 3739 0c23 2D       		.uleb128 0x2d
 3740 0c24 01       		.uleb128 0x1
 3741 0c25 51       		.byte	0x51
 3742 0c26 05       		.uleb128 0x5
 3743 0c27 74       		.byte	0x74
 3744 0c28 00       		.sleb128 0
ARM GAS  C:\Users\matij\AppData\Local\Temp\ccfrwtxb.s 			page 89


 3745 0c29 76       		.byte	0x76
 3746 0c2a 00       		.sleb128 0
 3747 0c2b 22       		.byte	0x22
 3748 0c2c 2D       		.uleb128 0x2d
 3749 0c2d 01       		.uleb128 0x1
 3750 0c2e 52       		.byte	0x52
 3751 0c2f 02       		.uleb128 0x2
 3752 0c30 75       		.byte	0x75
 3753 0c31 00       		.sleb128 0
 3754 0c32 00       		.byte	0
 3755 0c33 2C       		.uleb128 0x2c
 3756 0c34 8E000000 		.4byte	.LVL127
 3757 0c38 71090000 		.4byte	0x971
 3758 0c3c 530C0000 		.4byte	0xc53
 3759 0c40 2D       		.uleb128 0x2d
 3760 0c41 01       		.uleb128 0x1
 3761 0c42 50       		.byte	0x50
 3762 0c43 02       		.uleb128 0x2
 3763 0c44 7B       		.byte	0x7b
 3764 0c45 00       		.sleb128 0
 3765 0c46 2D       		.uleb128 0x2d
 3766 0c47 01       		.uleb128 0x1
 3767 0c48 51       		.byte	0x51
 3768 0c49 02       		.uleb128 0x2
 3769 0c4a 79       		.byte	0x79
 3770 0c4b 00       		.sleb128 0
 3771 0c4c 2D       		.uleb128 0x2d
 3772 0c4d 01       		.uleb128 0x1
 3773 0c4e 52       		.byte	0x52
 3774 0c4f 02       		.uleb128 0x2
 3775 0c50 75       		.byte	0x75
 3776 0c51 00       		.sleb128 0
 3777 0c52 00       		.byte	0
 3778 0c53 2C       		.uleb128 0x2c
 3779 0c54 9A000000 		.4byte	.LVL128
 3780 0c58 71090000 		.4byte	0x971
 3781 0c5c 740C0000 		.4byte	0xc74
 3782 0c60 2D       		.uleb128 0x2d
 3783 0c61 01       		.uleb128 0x1
 3784 0c62 50       		.byte	0x50
 3785 0c63 03       		.uleb128 0x3
 3786 0c64 91       		.byte	0x91
 3787 0c65 54       		.sleb128 -44
 3788 0c66 06       		.byte	0x6
 3789 0c67 2D       		.uleb128 0x2d
 3790 0c68 01       		.uleb128 0x1
 3791 0c69 51       		.byte	0x51
 3792 0c6a 02       		.uleb128 0x2
 3793 0c6b 79       		.byte	0x79
 3794 0c6c 00       		.sleb128 0
 3795 0c6d 2D       		.uleb128 0x2d
 3796 0c6e 01       		.uleb128 0x1
 3797 0c6f 52       		.byte	0x52
 3798 0c70 02       		.uleb128 0x2
 3799 0c71 75       		.byte	0x75
 3800 0c72 00       		.sleb128 0
 3801 0c73 00       		.byte	0
ARM GAS  C:\Users\matij\AppData\Local\Temp\ccfrwtxb.s 			page 90


 3802 0c74 2C       		.uleb128 0x2c
 3803 0c75 B2000000 		.4byte	.LVL129
 3804 0c79 71090000 		.4byte	0x971
 3805 0c7d 950C0000 		.4byte	0xc95
 3806 0c81 2D       		.uleb128 0x2d
 3807 0c82 01       		.uleb128 0x1
 3808 0c83 50       		.byte	0x50
 3809 0c84 03       		.uleb128 0x3
 3810 0c85 91       		.byte	0x91
 3811 0c86 54       		.sleb128 -44
 3812 0c87 06       		.byte	0x6
 3813 0c88 2D       		.uleb128 0x2d
 3814 0c89 01       		.uleb128 0x1
 3815 0c8a 51       		.byte	0x51
 3816 0c8b 02       		.uleb128 0x2
 3817 0c8c 79       		.byte	0x79
 3818 0c8d 00       		.sleb128 0
 3819 0c8e 2D       		.uleb128 0x2d
 3820 0c8f 01       		.uleb128 0x1
 3821 0c90 52       		.byte	0x52
 3822 0c91 02       		.uleb128 0x2
 3823 0c92 75       		.byte	0x75
 3824 0c93 00       		.sleb128 0
 3825 0c94 00       		.byte	0
 3826 0c95 2C       		.uleb128 0x2c
 3827 0c96 BC000000 		.4byte	.LVL130
 3828 0c9a 71090000 		.4byte	0x971
 3829 0c9e B50C0000 		.4byte	0xcb5
 3830 0ca2 2D       		.uleb128 0x2d
 3831 0ca3 01       		.uleb128 0x1
 3832 0ca4 50       		.byte	0x50
 3833 0ca5 02       		.uleb128 0x2
 3834 0ca6 7B       		.byte	0x7b
 3835 0ca7 00       		.sleb128 0
 3836 0ca8 2D       		.uleb128 0x2d
 3837 0ca9 01       		.uleb128 0x1
 3838 0caa 51       		.byte	0x51
 3839 0cab 02       		.uleb128 0x2
 3840 0cac 79       		.byte	0x79
 3841 0cad 00       		.sleb128 0
 3842 0cae 2D       		.uleb128 0x2d
 3843 0caf 01       		.uleb128 0x1
 3844 0cb0 52       		.byte	0x52
 3845 0cb1 02       		.uleb128 0x2
 3846 0cb2 75       		.byte	0x75
 3847 0cb3 00       		.sleb128 0
 3848 0cb4 00       		.byte	0
 3849 0cb5 2C       		.uleb128 0x2c
 3850 0cb6 CE000000 		.4byte	.LVL133
 3851 0cba 71090000 		.4byte	0x971
 3852 0cbe D60C0000 		.4byte	0xcd6
 3853 0cc2 2D       		.uleb128 0x2d
 3854 0cc3 01       		.uleb128 0x1
 3855 0cc4 50       		.byte	0x50
 3856 0cc5 03       		.uleb128 0x3
 3857 0cc6 91       		.byte	0x91
 3858 0cc7 54       		.sleb128 -44
ARM GAS  C:\Users\matij\AppData\Local\Temp\ccfrwtxb.s 			page 91


 3859 0cc8 06       		.byte	0x6
 3860 0cc9 2D       		.uleb128 0x2d
 3861 0cca 01       		.uleb128 0x1
 3862 0ccb 51       		.byte	0x51
 3863 0ccc 02       		.uleb128 0x2
 3864 0ccd 79       		.byte	0x79
 3865 0cce 00       		.sleb128 0
 3866 0ccf 2D       		.uleb128 0x2d
 3867 0cd0 01       		.uleb128 0x1
 3868 0cd1 52       		.byte	0x52
 3869 0cd2 02       		.uleb128 0x2
 3870 0cd3 75       		.byte	0x75
 3871 0cd4 00       		.sleb128 0
 3872 0cd5 00       		.byte	0
 3873 0cd6 2E       		.uleb128 0x2e
 3874 0cd7 D8000000 		.4byte	.LVL134
 3875 0cdb 71090000 		.4byte	0x971
 3876 0cdf 2D       		.uleb128 0x2d
 3877 0ce0 01       		.uleb128 0x1
 3878 0ce1 50       		.byte	0x50
 3879 0ce2 02       		.uleb128 0x2
 3880 0ce3 7B       		.byte	0x7b
 3881 0ce4 00       		.sleb128 0
 3882 0ce5 2D       		.uleb128 0x2d
 3883 0ce6 01       		.uleb128 0x1
 3884 0ce7 51       		.byte	0x51
 3885 0ce8 02       		.uleb128 0x2
 3886 0ce9 79       		.byte	0x79
 3887 0cea 00       		.sleb128 0
 3888 0ceb 2D       		.uleb128 0x2d
 3889 0cec 01       		.uleb128 0x1
 3890 0ced 52       		.byte	0x52
 3891 0cee 02       		.uleb128 0x2
 3892 0cef 75       		.byte	0x75
 3893 0cf0 00       		.sleb128 0
 3894 0cf1 00       		.byte	0
 3895 0cf2 00       		.byte	0
 3896 0cf3 21       		.uleb128 0x21
 3897 0cf4 80010000 		.4byte	.LASF93
 3898 0cf8 01       		.byte	0x1
 3899 0cf9 2103     		.2byte	0x321
 3900 0cfb 00000000 		.4byte	.LFB81
 3901 0cff 94000000 		.4byte	.LFE81-.LFB81
 3902 0d03 01       		.uleb128 0x1
 3903 0d04 9C       		.byte	0x9c
 3904 0d05 250E0000 		.4byte	0xe25
 3905 0d09 2F       		.uleb128 0x2f
 3906 0d0a 783000   		.ascii	"x0\000"
 3907 0d0d 01       		.byte	0x1
 3908 0d0e 2103     		.2byte	0x321
 3909 0d10 F5000000 		.4byte	0xf5
 3910 0d14 39080000 		.4byte	.LLST47
 3911 0d18 2F       		.uleb128 0x2f
 3912 0d19 793000   		.ascii	"y0\000"
 3913 0d1c 01       		.byte	0x1
 3914 0d1d 2103     		.2byte	0x321
 3915 0d1f F5000000 		.4byte	0xf5
ARM GAS  C:\Users\matij\AppData\Local\Temp\ccfrwtxb.s 			page 92


 3916 0d23 62080000 		.4byte	.LLST48
 3917 0d27 2F       		.uleb128 0x2f
 3918 0d28 783100   		.ascii	"x1\000"
 3919 0d2b 01       		.byte	0x1
 3920 0d2c 2103     		.2byte	0x321
 3921 0d2e F5000000 		.4byte	0xf5
 3922 0d32 8B080000 		.4byte	.LLST49
 3923 0d36 2F       		.uleb128 0x2f
 3924 0d37 793100   		.ascii	"y1\000"
 3925 0d3a 01       		.byte	0x1
 3926 0d3b 2103     		.2byte	0x321
 3927 0d3d F5000000 		.4byte	0xf5
 3928 0d41 B7080000 		.4byte	.LLST50
 3929 0d45 1E       		.uleb128 0x1e
 3930 0d46 F7040000 		.4byte	.LASF66
 3931 0d4a 01       		.byte	0x1
 3932 0d4b 2103     		.2byte	0x321
 3933 0d4d E9000000 		.4byte	0xe9
 3934 0d51 EE080000 		.4byte	.LLST51
 3935 0d55 25       		.uleb128 0x25
 3936 0d56 647900   		.ascii	"dy\000"
 3937 0d59 01       		.byte	0x1
 3938 0d5a 2303     		.2byte	0x323
 3939 0d5c F5000000 		.4byte	0xf5
 3940 0d60 0E090000 		.4byte	.LLST52
 3941 0d64 25       		.uleb128 0x25
 3942 0d65 647800   		.ascii	"dx\000"
 3943 0d68 01       		.byte	0x1
 3944 0d69 2403     		.2byte	0x324
 3945 0d6b F5000000 		.4byte	0xf5
 3946 0d6f 5D090000 		.4byte	.LLST53
 3947 0d73 1F       		.uleb128 0x1f
 3948 0d74 B7030000 		.4byte	.LASF94
 3949 0d78 01       		.byte	0x1
 3950 0d79 2503     		.2byte	0x325
 3951 0d7b F5000000 		.4byte	0xf5
 3952 0d7f 7B090000 		.4byte	.LLST54
 3953 0d83 1F       		.uleb128 0x1f
 3954 0d84 0B010000 		.4byte	.LASF95
 3955 0d88 01       		.byte	0x1
 3956 0d89 2503     		.2byte	0x325
 3957 0d8b F5000000 		.4byte	0xf5
 3958 0d8f 9B090000 		.4byte	.LLST55
 3959 0d93 3D       		.uleb128 0x3d
 3960 0d94 40000000 		.4byte	.LBB16
 3961 0d98 2A000000 		.4byte	.LBE16-.LBB16
 3962 0d9c CE0D0000 		.4byte	0xdce
 3963 0da0 1F       		.uleb128 0x1f
 3964 0da1 95010000 		.4byte	.LASF96
 3965 0da5 01       		.byte	0x1
 3966 0da6 4103     		.2byte	0x341
 3967 0da8 2C000000 		.4byte	0x2c
 3968 0dac BB090000 		.4byte	.LLST56
 3969 0db0 2E       		.uleb128 0x2e
 3970 0db1 64000000 		.4byte	.LVL154
 3971 0db5 71090000 		.4byte	0x971
 3972 0db9 2D       		.uleb128 0x2d
ARM GAS  C:\Users\matij\AppData\Local\Temp\ccfrwtxb.s 			page 93


 3973 0dba 01       		.uleb128 0x1
 3974 0dbb 50       		.byte	0x50
 3975 0dbc 02       		.uleb128 0x2
 3976 0dbd 77       		.byte	0x77
 3977 0dbe 00       		.sleb128 0
 3978 0dbf 2D       		.uleb128 0x2d
 3979 0dc0 01       		.uleb128 0x1
 3980 0dc1 51       		.byte	0x51
 3981 0dc2 02       		.uleb128 0x2
 3982 0dc3 74       		.byte	0x74
 3983 0dc4 00       		.sleb128 0
 3984 0dc5 2D       		.uleb128 0x2d
 3985 0dc6 01       		.uleb128 0x1
 3986 0dc7 52       		.byte	0x52
 3987 0dc8 03       		.uleb128 0x3
 3988 0dc9 91       		.byte	0x91
 3989 0dca 00       		.sleb128 0
 3990 0dcb 06       		.byte	0x6
 3991 0dcc 00       		.byte	0
 3992 0dcd 00       		.byte	0
 3993 0dce 3D       		.uleb128 0x3d
 3994 0dcf 6A000000 		.4byte	.LBB17
 3995 0dd3 2A000000 		.4byte	.LBE17-.LBB17
 3996 0dd7 070E0000 		.4byte	0xe07
 3997 0ddb 20       		.uleb128 0x20
 3998 0ddc 95010000 		.4byte	.LASF96
 3999 0de0 01       		.byte	0x1
 4000 0de1 5003     		.2byte	0x350
 4001 0de3 2C000000 		.4byte	0x2c
 4002 0de7 01       		.uleb128 0x1
 4003 0de8 58       		.byte	0x58
 4004 0de9 2E       		.uleb128 0x2e
 4005 0dea 8E000000 		.4byte	.LVL161
 4006 0dee 71090000 		.4byte	0x971
 4007 0df2 2D       		.uleb128 0x2d
 4008 0df3 01       		.uleb128 0x1
 4009 0df4 50       		.byte	0x50
 4010 0df5 02       		.uleb128 0x2
 4011 0df6 77       		.byte	0x77
 4012 0df7 00       		.sleb128 0
 4013 0df8 2D       		.uleb128 0x2d
 4014 0df9 01       		.uleb128 0x1
 4015 0dfa 51       		.byte	0x51
 4016 0dfb 02       		.uleb128 0x2
 4017 0dfc 74       		.byte	0x74
 4018 0dfd 00       		.sleb128 0
 4019 0dfe 2D       		.uleb128 0x2d
 4020 0dff 01       		.uleb128 0x1
 4021 0e00 52       		.byte	0x52
 4022 0e01 03       		.uleb128 0x3
 4023 0e02 91       		.byte	0x91
 4024 0e03 00       		.sleb128 0
 4025 0e04 06       		.byte	0x6
 4026 0e05 00       		.byte	0
 4027 0e06 00       		.byte	0
 4028 0e07 2E       		.uleb128 0x2e
 4029 0e08 3C000000 		.4byte	.LVL148
ARM GAS  C:\Users\matij\AppData\Local\Temp\ccfrwtxb.s 			page 94


 4030 0e0c 71090000 		.4byte	0x971
 4031 0e10 2D       		.uleb128 0x2d
 4032 0e11 01       		.uleb128 0x1
 4033 0e12 50       		.byte	0x50
 4034 0e13 02       		.uleb128 0x2
 4035 0e14 77       		.byte	0x77
 4036 0e15 00       		.sleb128 0
 4037 0e16 2D       		.uleb128 0x2d
 4038 0e17 01       		.uleb128 0x1
 4039 0e18 51       		.byte	0x51
 4040 0e19 02       		.uleb128 0x2
 4041 0e1a 74       		.byte	0x74
 4042 0e1b 00       		.sleb128 0
 4043 0e1c 2D       		.uleb128 0x2d
 4044 0e1d 01       		.uleb128 0x1
 4045 0e1e 52       		.byte	0x52
 4046 0e1f 03       		.uleb128 0x3
 4047 0e20 91       		.byte	0x91
 4048 0e21 00       		.sleb128 0
 4049 0e22 06       		.byte	0x6
 4050 0e23 00       		.byte	0
 4051 0e24 00       		.byte	0
 4052 0e25 21       		.uleb128 0x21
 4053 0e26 AC020000 		.4byte	.LASF97
 4054 0e2a 01       		.byte	0x1
 4055 0e2b 7003     		.2byte	0x370
 4056 0e2d 00000000 		.4byte	.LFB82
 4057 0e31 7C000000 		.4byte	.LFE82-.LFB82
 4058 0e35 01       		.uleb128 0x1
 4059 0e36 9C       		.byte	0x9c
 4060 0e37 7E0F0000 		.4byte	0xf7e
 4061 0e3b 2F       		.uleb128 0x2f
 4062 0e3c 783000   		.ascii	"x0\000"
 4063 0e3f 01       		.byte	0x1
 4064 0e40 7003     		.2byte	0x370
 4065 0e42 F5000000 		.4byte	0xf5
 4066 0e46 CE090000 		.4byte	.LLST57
 4067 0e4a 2F       		.uleb128 0x2f
 4068 0e4b 793000   		.ascii	"y0\000"
 4069 0e4e 01       		.byte	0x1
 4070 0e4f 7003     		.2byte	0x370
 4071 0e51 F5000000 		.4byte	0xf5
 4072 0e55 1B0A0000 		.4byte	.LLST58
 4073 0e59 2F       		.uleb128 0x2f
 4074 0e5a 783100   		.ascii	"x1\000"
 4075 0e5d 01       		.byte	0x1
 4076 0e5e 7003     		.2byte	0x370
 4077 0e60 F5000000 		.4byte	0xf5
 4078 0e64 730A0000 		.4byte	.LLST59
 4079 0e68 2F       		.uleb128 0x2f
 4080 0e69 793100   		.ascii	"y1\000"
 4081 0e6c 01       		.byte	0x1
 4082 0e6d 7003     		.2byte	0x370
 4083 0e6f F5000000 		.4byte	0xf5
 4084 0e73 CB0A0000 		.4byte	.LLST60
 4085 0e77 1E       		.uleb128 0x1e
 4086 0e78 76010000 		.4byte	.LASF98
ARM GAS  C:\Users\matij\AppData\Local\Temp\ccfrwtxb.s 			page 95


 4087 0e7c 01       		.byte	0x1
 4088 0e7d 7003     		.2byte	0x370
 4089 0e7f F5000000 		.4byte	0xf5
 4090 0e83 0D0B0000 		.4byte	.LLST61
 4091 0e87 1E       		.uleb128 0x1e
 4092 0e88 F7040000 		.4byte	.LASF66
 4093 0e8c 01       		.byte	0x1
 4094 0e8d 7003     		.2byte	0x370
 4095 0e8f E9000000 		.4byte	0xe9
 4096 0e93 390B0000 		.4byte	.LLST62
 4097 0e97 1F       		.uleb128 0x1f
 4098 0e98 EB020000 		.4byte	.LASF99
 4099 0e9c 01       		.byte	0x1
 4100 0e9d 7203     		.2byte	0x372
 4101 0e9f 2C000000 		.4byte	0x2c
 4102 0ea3 650B0000 		.4byte	.LLST63
 4103 0ea7 2C       		.uleb128 0x2c
 4104 0ea8 2C000000 		.4byte	.LVL166
 4105 0eac F30C0000 		.4byte	0xcf3
 4106 0eb0 D40E0000 		.4byte	0xed4
 4107 0eb4 2D       		.uleb128 0x2d
 4108 0eb5 01       		.uleb128 0x1
 4109 0eb6 50       		.byte	0x50
 4110 0eb7 02       		.uleb128 0x2
 4111 0eb8 74       		.byte	0x74
 4112 0eb9 00       		.sleb128 0
 4113 0eba 2D       		.uleb128 0x2d
 4114 0ebb 01       		.uleb128 0x1
 4115 0ebc 51       		.byte	0x51
 4116 0ebd 02       		.uleb128 0x2
 4117 0ebe 78       		.byte	0x78
 4118 0ebf 00       		.sleb128 0
 4119 0ec0 2D       		.uleb128 0x2d
 4120 0ec1 01       		.uleb128 0x1
 4121 0ec2 52       		.byte	0x52
 4122 0ec3 02       		.uleb128 0x2
 4123 0ec4 74       		.byte	0x74
 4124 0ec5 00       		.sleb128 0
 4125 0ec6 2D       		.uleb128 0x2d
 4126 0ec7 01       		.uleb128 0x1
 4127 0ec8 53       		.byte	0x53
 4128 0ec9 02       		.uleb128 0x2
 4129 0eca 76       		.byte	0x76
 4130 0ecb 00       		.sleb128 0
 4131 0ecc 2D       		.uleb128 0x2d
 4132 0ecd 02       		.uleb128 0x2
 4133 0ece 7D       		.byte	0x7d
 4134 0ecf 00       		.sleb128 0
 4135 0ed0 02       		.uleb128 0x2
 4136 0ed1 77       		.byte	0x77
 4137 0ed2 00       		.sleb128 0
 4138 0ed3 00       		.byte	0
 4139 0ed4 2C       		.uleb128 0x2c
 4140 0ed5 46000000 		.4byte	.LVL171
 4141 0ed9 F30C0000 		.4byte	0xcf3
 4142 0edd F50E0000 		.4byte	0xef5
 4143 0ee1 2D       		.uleb128 0x2d
ARM GAS  C:\Users\matij\AppData\Local\Temp\ccfrwtxb.s 			page 96


 4144 0ee2 01       		.uleb128 0x1
 4145 0ee3 51       		.byte	0x51
 4146 0ee4 02       		.uleb128 0x2
 4147 0ee5 78       		.byte	0x78
 4148 0ee6 00       		.sleb128 0
 4149 0ee7 2D       		.uleb128 0x2d
 4150 0ee8 01       		.uleb128 0x1
 4151 0ee9 53       		.byte	0x53
 4152 0eea 02       		.uleb128 0x2
 4153 0eeb 78       		.byte	0x78
 4154 0eec 00       		.sleb128 0
 4155 0eed 2D       		.uleb128 0x2d
 4156 0eee 02       		.uleb128 0x2
 4157 0eef 7D       		.byte	0x7d
 4158 0ef0 00       		.sleb128 0
 4159 0ef1 02       		.uleb128 0x2
 4160 0ef2 77       		.byte	0x77
 4161 0ef3 00       		.sleb128 0
 4162 0ef4 00       		.byte	0
 4163 0ef5 2C       		.uleb128 0x2c
 4164 0ef6 54000000 		.4byte	.LVL172
 4165 0efa F30C0000 		.4byte	0xcf3
 4166 0efe 220F0000 		.4byte	0xf22
 4167 0f02 2D       		.uleb128 0x2d
 4168 0f03 01       		.uleb128 0x1
 4169 0f04 50       		.byte	0x50
 4170 0f05 02       		.uleb128 0x2
 4171 0f06 74       		.byte	0x74
 4172 0f07 00       		.sleb128 0
 4173 0f08 2D       		.uleb128 0x2d
 4174 0f09 01       		.uleb128 0x1
 4175 0f0a 51       		.byte	0x51
 4176 0f0b 02       		.uleb128 0x2
 4177 0f0c 76       		.byte	0x76
 4178 0f0d 00       		.sleb128 0
 4179 0f0e 2D       		.uleb128 0x2d
 4180 0f0f 01       		.uleb128 0x1
 4181 0f10 52       		.byte	0x52
 4182 0f11 02       		.uleb128 0x2
 4183 0f12 75       		.byte	0x75
 4184 0f13 00       		.sleb128 0
 4185 0f14 2D       		.uleb128 0x2d
 4186 0f15 01       		.uleb128 0x1
 4187 0f16 53       		.byte	0x53
 4188 0f17 02       		.uleb128 0x2
 4189 0f18 76       		.byte	0x76
 4190 0f19 00       		.sleb128 0
 4191 0f1a 2D       		.uleb128 0x2d
 4192 0f1b 02       		.uleb128 0x2
 4193 0f1c 7D       		.byte	0x7d
 4194 0f1d 00       		.sleb128 0
 4195 0f1e 02       		.uleb128 0x2
 4196 0f1f 77       		.byte	0x77
 4197 0f20 00       		.sleb128 0
 4198 0f21 00       		.byte	0
 4199 0f22 2C       		.uleb128 0x2c
 4200 0f23 62000000 		.4byte	.LVL173
ARM GAS  C:\Users\matij\AppData\Local\Temp\ccfrwtxb.s 			page 97


 4201 0f27 F30C0000 		.4byte	0xcf3
 4202 0f2b 4F0F0000 		.4byte	0xf4f
 4203 0f2f 2D       		.uleb128 0x2d
 4204 0f30 01       		.uleb128 0x1
 4205 0f31 50       		.byte	0x50
 4206 0f32 02       		.uleb128 0x2
 4207 0f33 74       		.byte	0x74
 4208 0f34 00       		.sleb128 0
 4209 0f35 2D       		.uleb128 0x2d
 4210 0f36 01       		.uleb128 0x1
 4211 0f37 51       		.byte	0x51
 4212 0f38 02       		.uleb128 0x2
 4213 0f39 78       		.byte	0x78
 4214 0f3a 00       		.sleb128 0
 4215 0f3b 2D       		.uleb128 0x2d
 4216 0f3c 01       		.uleb128 0x1
 4217 0f3d 52       		.byte	0x52
 4218 0f3e 02       		.uleb128 0x2
 4219 0f3f 74       		.byte	0x74
 4220 0f40 00       		.sleb128 0
 4221 0f41 2D       		.uleb128 0x2d
 4222 0f42 01       		.uleb128 0x1
 4223 0f43 53       		.byte	0x53
 4224 0f44 02       		.uleb128 0x2
 4225 0f45 76       		.byte	0x76
 4226 0f46 00       		.sleb128 0
 4227 0f47 2D       		.uleb128 0x2d
 4228 0f48 02       		.uleb128 0x2
 4229 0f49 7D       		.byte	0x7d
 4230 0f4a 00       		.sleb128 0
 4231 0f4b 02       		.uleb128 0x2
 4232 0f4c 77       		.byte	0x77
 4233 0f4d 00       		.sleb128 0
 4234 0f4e 00       		.byte	0
 4235 0f4f 31       		.uleb128 0x31
 4236 0f50 76000000 		.4byte	.LVL175
 4237 0f54 F30C0000 		.4byte	0xcf3
 4238 0f58 2D       		.uleb128 0x2d
 4239 0f59 01       		.uleb128 0x1
 4240 0f5a 50       		.byte	0x50
 4241 0f5b 03       		.uleb128 0x3
 4242 0f5c F3       		.byte	0xf3
 4243 0f5d 01       		.uleb128 0x1
 4244 0f5e 52       		.byte	0x52
 4245 0f5f 2D       		.uleb128 0x2d
 4246 0f60 01       		.uleb128 0x1
 4247 0f61 51       		.byte	0x51
 4248 0f62 03       		.uleb128 0x3
 4249 0f63 F3       		.byte	0xf3
 4250 0f64 01       		.uleb128 0x1
 4251 0f65 51       		.byte	0x51
 4252 0f66 2D       		.uleb128 0x2d
 4253 0f67 01       		.uleb128 0x1
 4254 0f68 52       		.byte	0x52
 4255 0f69 03       		.uleb128 0x3
 4256 0f6a F3       		.byte	0xf3
 4257 0f6b 01       		.uleb128 0x1
ARM GAS  C:\Users\matij\AppData\Local\Temp\ccfrwtxb.s 			page 98


 4258 0f6c 52       		.byte	0x52
 4259 0f6d 2D       		.uleb128 0x2d
 4260 0f6e 01       		.uleb128 0x1
 4261 0f6f 53       		.byte	0x53
 4262 0f70 03       		.uleb128 0x3
 4263 0f71 F3       		.byte	0xf3
 4264 0f72 01       		.uleb128 0x1
 4265 0f73 53       		.byte	0x53
 4266 0f74 2D       		.uleb128 0x2d
 4267 0f75 02       		.uleb128 0x2
 4268 0f76 91       		.byte	0x91
 4269 0f77 00       		.sleb128 0
 4270 0f78 03       		.uleb128 0x3
 4271 0f79 7D       		.byte	0x7d
 4272 0f7a 04       		.sleb128 4
 4273 0f7b 06       		.byte	0x6
 4274 0f7c 00       		.byte	0
 4275 0f7d 00       		.byte	0
 4276 0f7e 3E       		.uleb128 0x3e
 4277 0f7f 56040000 		.4byte	0x456
 4278 0f83 00000000 		.4byte	.LFB83
 4279 0f87 80000000 		.4byte	.LFE83-.LFB83
 4280 0f8b 01       		.uleb128 0x1
 4281 0f8c 9C       		.byte	0x9c
 4282 0f8d B30F0000 		.4byte	0xfb3
 4283 0f91 29       		.uleb128 0x29
 4284 0f92 63040000 		.4byte	0x463
 4285 0f96 920B0000 		.4byte	.LLST64
 4286 0f9a 16       		.uleb128 0x16
 4287 0f9b 57000000 		.4byte	.LASF61
 4288 0f9f 01       		.byte	0x1
 4289 0fa0 AA03     		.2byte	0x3aa
 4290 0fa2 E9000000 		.4byte	0xe9
 4291 0fa6 16       		.uleb128 0x16
 4292 0fa7 08050000 		.4byte	.LASF62
 4293 0fab 01       		.byte	0x1
 4294 0fac AB03     		.2byte	0x3ab
 4295 0fae E9000000 		.4byte	0xe9
 4296 0fb2 00       		.byte	0
 4297 0fb3 21       		.uleb128 0x21
 4298 0fb4 8D000000 		.4byte	.LASF100
 4299 0fb8 01       		.byte	0x1
 4300 0fb9 DB03     		.2byte	0x3db
 4301 0fbb 00000000 		.4byte	.LFB84
 4302 0fbf 5A000000 		.4byte	.LFE84-.LFB84
 4303 0fc3 01       		.uleb128 0x1
 4304 0fc4 9C       		.byte	0x9c
 4305 0fc5 7D100000 		.4byte	0x107d
 4306 0fc9 2F       		.uleb128 0x2f
 4307 0fca 7800     		.ascii	"x\000"
 4308 0fcc 01       		.byte	0x1
 4309 0fcd DB03     		.2byte	0x3db
 4310 0fcf F5000000 		.4byte	0xf5
 4311 0fd3 B20B0000 		.4byte	.LLST65
 4312 0fd7 2F       		.uleb128 0x2f
 4313 0fd8 7900     		.ascii	"y\000"
 4314 0fda 01       		.byte	0x1
ARM GAS  C:\Users\matij\AppData\Local\Temp\ccfrwtxb.s 			page 99


 4315 0fdb DB03     		.2byte	0x3db
 4316 0fdd F5000000 		.4byte	0xf5
 4317 0fe1 E90B0000 		.4byte	.LLST66
 4318 0fe5 1E       		.uleb128 0x1e
 4319 0fe6 A6000000 		.4byte	.LASF101
 4320 0fea 01       		.byte	0x1
 4321 0feb DB03     		.2byte	0x3db
 4322 0fed 7D100000 		.4byte	0x107d
 4323 0ff1 0A0C0000 		.4byte	.LLST67
 4324 0ff5 1E       		.uleb128 0x1e
 4325 0ff6 9F000000 		.4byte	.LASF102
 4326 0ffa 01       		.byte	0x1
 4327 0ffb DB03     		.2byte	0x3db
 4328 0ffd F5000000 		.4byte	0xf5
 4329 1001 410C0000 		.4byte	.LLST68
 4330 1005 25       		.uleb128 0x25
 4331 1006 647800   		.ascii	"dx\000"
 4332 1009 01       		.byte	0x1
 4333 100a DD03     		.2byte	0x3dd
 4334 100c F5000000 		.4byte	0xf5
 4335 1010 620C0000 		.4byte	.LLST69
 4336 1014 25       		.uleb128 0x25
 4337 1015 647900   		.ascii	"dy\000"
 4338 1018 01       		.byte	0x1
 4339 1019 DD03     		.2byte	0x3dd
 4340 101b F5000000 		.4byte	0xf5
 4341 101f 980C0000 		.4byte	.LLST70
 4342 1023 1F       		.uleb128 0x1f
 4343 1024 C7030000 		.4byte	.LASF103
 4344 1028 01       		.byte	0x1
 4345 1029 DE03     		.2byte	0x3de
 4346 102b F5000000 		.4byte	0xf5
 4347 102f C10C0000 		.4byte	.LLST71
 4348 1033 1F       		.uleb128 0x1f
 4349 1034 86060000 		.4byte	.LASF104
 4350 1038 01       		.byte	0x1
 4351 1039 DF03     		.2byte	0x3df
 4352 103b F5000000 		.4byte	0xf5
 4353 103f 010D0000 		.4byte	.LLST72
 4354 1043 1F       		.uleb128 0x1f
 4355 1044 8B060000 		.4byte	.LASF105
 4356 1048 01       		.byte	0x1
 4357 1049 DF03     		.2byte	0x3df
 4358 104b F5000000 		.4byte	0xf5
 4359 104f 1F0D0000 		.4byte	.LLST73
 4360 1053 2C       		.uleb128 0x2c
 4361 1054 3E000000 		.4byte	.LVL185
 4362 1058 71090000 		.4byte	0x971
 4363 105c 6D100000 		.4byte	0x106d
 4364 1060 2D       		.uleb128 0x2d
 4365 1061 01       		.uleb128 0x1
 4366 1062 50       		.byte	0x50
 4367 1063 02       		.uleb128 0x2
 4368 1064 74       		.byte	0x74
 4369 1065 7F       		.sleb128 -1
 4370 1066 2D       		.uleb128 0x2d
 4371 1067 01       		.uleb128 0x1
ARM GAS  C:\Users\matij\AppData\Local\Temp\ccfrwtxb.s 			page 100


 4372 1068 51       		.byte	0x51
 4373 1069 02       		.uleb128 0x2
 4374 106a 75       		.byte	0x75
 4375 106b 00       		.sleb128 0
 4376 106c 00       		.byte	0
 4377 106d 31       		.uleb128 0x31
 4378 106e 54000000 		.4byte	.LVL191
 4379 1072 7B060000 		.4byte	0x67b
 4380 1076 2D       		.uleb128 0x2d
 4381 1077 01       		.uleb128 0x1
 4382 1078 50       		.byte	0x50
 4383 1079 01       		.uleb128 0x1
 4384 107a 31       		.byte	0x31
 4385 107b 00       		.byte	0
 4386 107c 00       		.byte	0
 4387 107d 07       		.uleb128 0x7
 4388 107e 04       		.byte	0x4
 4389 107f D1000000 		.4byte	0xd1
 4390 1083 13       		.uleb128 0x13
 4391 1084 93100000 		.4byte	0x1093
 4392 1088 93100000 		.4byte	0x1093
 4393 108c 14       		.uleb128 0x14
 4394 108d 27010000 		.4byte	0x127
 4395 1091 FF       		.byte	0xff
 4396 1092 00       		.byte	0
 4397 1093 12       		.uleb128 0x12
 4398 1094 B0000000 		.4byte	0xb0
 4399 1098 3F       		.uleb128 0x3f
 4400 1099 23010000 		.4byte	.LASF106
 4401 109d 07       		.byte	0x7
 4402 109e 6C       		.byte	0x6c
 4403 109f A5120000 		.4byte	0x12a5
 4404 10a3 0002     		.2byte	0x200
 4405 10a5 00       		.byte	0
 4406 10a6 00       		.byte	0
 4407 10a7 C1       		.byte	0xc1
 4408 10a8 C0       		.byte	0xc0
 4409 10a9 81       		.byte	0x81
 4410 10aa C1       		.byte	0xc1
 4411 10ab 40       		.byte	0x40
 4412 10ac 01       		.byte	0x1
 4413 10ad 01       		.byte	0x1
 4414 10ae C3       		.byte	0xc3
 4415 10af C0       		.byte	0xc0
 4416 10b0 03       		.byte	0x3
 4417 10b1 80       		.byte	0x80
 4418 10b2 02       		.byte	0x2
 4419 10b3 41       		.byte	0x41
 4420 10b4 C2       		.byte	0xc2
 4421 10b5 01       		.byte	0x1
 4422 10b6 C6       		.byte	0xc6
 4423 10b7 C0       		.byte	0xc0
 4424 10b8 06       		.byte	0x6
 4425 10b9 80       		.byte	0x80
 4426 10ba 07       		.byte	0x7
 4427 10bb 41       		.byte	0x41
 4428 10bc C7       		.byte	0xc7
ARM GAS  C:\Users\matij\AppData\Local\Temp\ccfrwtxb.s 			page 101


 4429 10bd 00       		.byte	0
 4430 10be 05       		.byte	0x5
 4431 10bf C1       		.byte	0xc1
 4432 10c0 C5       		.byte	0xc5
 4433 10c1 81       		.byte	0x81
 4434 10c2 C4       		.byte	0xc4
 4435 10c3 40       		.byte	0x40
 4436 10c4 04       		.byte	0x4
 4437 10c5 01       		.byte	0x1
 4438 10c6 CC       		.byte	0xcc
 4439 10c7 C0       		.byte	0xc0
 4440 10c8 0C       		.byte	0xc
 4441 10c9 80       		.byte	0x80
 4442 10ca 0D       		.byte	0xd
 4443 10cb 41       		.byte	0x41
 4444 10cc CD       		.byte	0xcd
 4445 10cd 00       		.byte	0
 4446 10ce 0F       		.byte	0xf
 4447 10cf C1       		.byte	0xc1
 4448 10d0 CF       		.byte	0xcf
 4449 10d1 81       		.byte	0x81
 4450 10d2 CE       		.byte	0xce
 4451 10d3 40       		.byte	0x40
 4452 10d4 0E       		.byte	0xe
 4453 10d5 00       		.byte	0
 4454 10d6 0A       		.byte	0xa
 4455 10d7 C1       		.byte	0xc1
 4456 10d8 CA       		.byte	0xca
 4457 10d9 81       		.byte	0x81
 4458 10da CB       		.byte	0xcb
 4459 10db 40       		.byte	0x40
 4460 10dc 0B       		.byte	0xb
 4461 10dd 01       		.byte	0x1
 4462 10de C9       		.byte	0xc9
 4463 10df C0       		.byte	0xc0
 4464 10e0 09       		.byte	0x9
 4465 10e1 80       		.byte	0x80
 4466 10e2 08       		.byte	0x8
 4467 10e3 41       		.byte	0x41
 4468 10e4 C8       		.byte	0xc8
 4469 10e5 01       		.byte	0x1
 4470 10e6 D8       		.byte	0xd8
 4471 10e7 C0       		.byte	0xc0
 4472 10e8 18       		.byte	0x18
 4473 10e9 80       		.byte	0x80
 4474 10ea 19       		.byte	0x19
 4475 10eb 41       		.byte	0x41
 4476 10ec D9       		.byte	0xd9
 4477 10ed 00       		.byte	0
 4478 10ee 1B       		.byte	0x1b
 4479 10ef C1       		.byte	0xc1
 4480 10f0 DB       		.byte	0xdb
 4481 10f1 81       		.byte	0x81
 4482 10f2 DA       		.byte	0xda
 4483 10f3 40       		.byte	0x40
 4484 10f4 1A       		.byte	0x1a
 4485 10f5 00       		.byte	0
ARM GAS  C:\Users\matij\AppData\Local\Temp\ccfrwtxb.s 			page 102


 4486 10f6 1E       		.byte	0x1e
 4487 10f7 C1       		.byte	0xc1
 4488 10f8 DE       		.byte	0xde
 4489 10f9 81       		.byte	0x81
 4490 10fa DF       		.byte	0xdf
 4491 10fb 40       		.byte	0x40
 4492 10fc 1F       		.byte	0x1f
 4493 10fd 01       		.byte	0x1
 4494 10fe DD       		.byte	0xdd
 4495 10ff C0       		.byte	0xc0
 4496 1100 1D       		.byte	0x1d
 4497 1101 80       		.byte	0x80
 4498 1102 1C       		.byte	0x1c
 4499 1103 41       		.byte	0x41
 4500 1104 DC       		.byte	0xdc
 4501 1105 00       		.byte	0
 4502 1106 14       		.byte	0x14
 4503 1107 C1       		.byte	0xc1
 4504 1108 D4       		.byte	0xd4
 4505 1109 81       		.byte	0x81
 4506 110a D5       		.byte	0xd5
 4507 110b 40       		.byte	0x40
 4508 110c 15       		.byte	0x15
 4509 110d 01       		.byte	0x1
 4510 110e D7       		.byte	0xd7
 4511 110f C0       		.byte	0xc0
 4512 1110 17       		.byte	0x17
 4513 1111 80       		.byte	0x80
 4514 1112 16       		.byte	0x16
 4515 1113 41       		.byte	0x41
 4516 1114 D6       		.byte	0xd6
 4517 1115 01       		.byte	0x1
 4518 1116 D2       		.byte	0xd2
 4519 1117 C0       		.byte	0xc0
 4520 1118 12       		.byte	0x12
 4521 1119 80       		.byte	0x80
 4522 111a 13       		.byte	0x13
 4523 111b 41       		.byte	0x41
 4524 111c D3       		.byte	0xd3
 4525 111d 00       		.byte	0
 4526 111e 11       		.byte	0x11
 4527 111f C1       		.byte	0xc1
 4528 1120 D1       		.byte	0xd1
 4529 1121 81       		.byte	0x81
 4530 1122 D0       		.byte	0xd0
 4531 1123 40       		.byte	0x40
 4532 1124 10       		.byte	0x10
 4533 1125 01       		.byte	0x1
 4534 1126 F0       		.byte	0xf0
 4535 1127 C0       		.byte	0xc0
 4536 1128 30       		.byte	0x30
 4537 1129 80       		.byte	0x80
 4538 112a 31       		.byte	0x31
 4539 112b 41       		.byte	0x41
 4540 112c F1       		.byte	0xf1
 4541 112d 00       		.byte	0
 4542 112e 33       		.byte	0x33
ARM GAS  C:\Users\matij\AppData\Local\Temp\ccfrwtxb.s 			page 103


 4543 112f C1       		.byte	0xc1
 4544 1130 F3       		.byte	0xf3
 4545 1131 81       		.byte	0x81
 4546 1132 F2       		.byte	0xf2
 4547 1133 40       		.byte	0x40
 4548 1134 32       		.byte	0x32
 4549 1135 00       		.byte	0
 4550 1136 36       		.byte	0x36
 4551 1137 C1       		.byte	0xc1
 4552 1138 F6       		.byte	0xf6
 4553 1139 81       		.byte	0x81
 4554 113a F7       		.byte	0xf7
 4555 113b 40       		.byte	0x40
 4556 113c 37       		.byte	0x37
 4557 113d 01       		.byte	0x1
 4558 113e F5       		.byte	0xf5
 4559 113f C0       		.byte	0xc0
 4560 1140 35       		.byte	0x35
 4561 1141 80       		.byte	0x80
 4562 1142 34       		.byte	0x34
 4563 1143 41       		.byte	0x41
 4564 1144 F4       		.byte	0xf4
 4565 1145 00       		.byte	0
 4566 1146 3C       		.byte	0x3c
 4567 1147 C1       		.byte	0xc1
 4568 1148 FC       		.byte	0xfc
 4569 1149 81       		.byte	0x81
 4570 114a FD       		.byte	0xfd
 4571 114b 40       		.byte	0x40
 4572 114c 3D       		.byte	0x3d
 4573 114d 01       		.byte	0x1
 4574 114e FF       		.byte	0xff
 4575 114f C0       		.byte	0xc0
 4576 1150 3F       		.byte	0x3f
 4577 1151 80       		.byte	0x80
 4578 1152 3E       		.byte	0x3e
 4579 1153 41       		.byte	0x41
 4580 1154 FE       		.byte	0xfe
 4581 1155 01       		.byte	0x1
 4582 1156 FA       		.byte	0xfa
 4583 1157 C0       		.byte	0xc0
 4584 1158 3A       		.byte	0x3a
 4585 1159 80       		.byte	0x80
 4586 115a 3B       		.byte	0x3b
 4587 115b 41       		.byte	0x41
 4588 115c FB       		.byte	0xfb
 4589 115d 00       		.byte	0
 4590 115e 39       		.byte	0x39
 4591 115f C1       		.byte	0xc1
 4592 1160 F9       		.byte	0xf9
 4593 1161 81       		.byte	0x81
 4594 1162 F8       		.byte	0xf8
 4595 1163 40       		.byte	0x40
 4596 1164 38       		.byte	0x38
 4597 1165 00       		.byte	0
 4598 1166 28       		.byte	0x28
 4599 1167 C1       		.byte	0xc1
ARM GAS  C:\Users\matij\AppData\Local\Temp\ccfrwtxb.s 			page 104


 4600 1168 E8       		.byte	0xe8
 4601 1169 81       		.byte	0x81
 4602 116a E9       		.byte	0xe9
 4603 116b 40       		.byte	0x40
 4604 116c 29       		.byte	0x29
 4605 116d 01       		.byte	0x1
 4606 116e EB       		.byte	0xeb
 4607 116f C0       		.byte	0xc0
 4608 1170 2B       		.byte	0x2b
 4609 1171 80       		.byte	0x80
 4610 1172 2A       		.byte	0x2a
 4611 1173 41       		.byte	0x41
 4612 1174 EA       		.byte	0xea
 4613 1175 01       		.byte	0x1
 4614 1176 EE       		.byte	0xee
 4615 1177 C0       		.byte	0xc0
 4616 1178 2E       		.byte	0x2e
 4617 1179 80       		.byte	0x80
 4618 117a 2F       		.byte	0x2f
 4619 117b 41       		.byte	0x41
 4620 117c EF       		.byte	0xef
 4621 117d 00       		.byte	0
 4622 117e 2D       		.byte	0x2d
 4623 117f C1       		.byte	0xc1
 4624 1180 ED       		.byte	0xed
 4625 1181 81       		.byte	0x81
 4626 1182 EC       		.byte	0xec
 4627 1183 40       		.byte	0x40
 4628 1184 2C       		.byte	0x2c
 4629 1185 01       		.byte	0x1
 4630 1186 E4       		.byte	0xe4
 4631 1187 C0       		.byte	0xc0
 4632 1188 24       		.byte	0x24
 4633 1189 80       		.byte	0x80
 4634 118a 25       		.byte	0x25
 4635 118b 41       		.byte	0x41
 4636 118c E5       		.byte	0xe5
 4637 118d 00       		.byte	0
 4638 118e 27       		.byte	0x27
 4639 118f C1       		.byte	0xc1
 4640 1190 E7       		.byte	0xe7
 4641 1191 81       		.byte	0x81
 4642 1192 E6       		.byte	0xe6
 4643 1193 40       		.byte	0x40
 4644 1194 26       		.byte	0x26
 4645 1195 00       		.byte	0
 4646 1196 22       		.byte	0x22
 4647 1197 C1       		.byte	0xc1
 4648 1198 E2       		.byte	0xe2
 4649 1199 81       		.byte	0x81
 4650 119a E3       		.byte	0xe3
 4651 119b 40       		.byte	0x40
 4652 119c 23       		.byte	0x23
 4653 119d 01       		.byte	0x1
 4654 119e E1       		.byte	0xe1
 4655 119f C0       		.byte	0xc0
 4656 11a0 21       		.byte	0x21
ARM GAS  C:\Users\matij\AppData\Local\Temp\ccfrwtxb.s 			page 105


 4657 11a1 80       		.byte	0x80
 4658 11a2 20       		.byte	0x20
 4659 11a3 41       		.byte	0x41
 4660 11a4 E0       		.byte	0xe0
 4661 11a5 01       		.byte	0x1
 4662 11a6 A0       		.byte	0xa0
 4663 11a7 C0       		.byte	0xc0
 4664 11a8 60       		.byte	0x60
 4665 11a9 80       		.byte	0x80
 4666 11aa 61       		.byte	0x61
 4667 11ab 41       		.byte	0x41
 4668 11ac A1       		.byte	0xa1
 4669 11ad 00       		.byte	0
 4670 11ae 63       		.byte	0x63
 4671 11af C1       		.byte	0xc1
 4672 11b0 A3       		.byte	0xa3
 4673 11b1 81       		.byte	0x81
 4674 11b2 A2       		.byte	0xa2
 4675 11b3 40       		.byte	0x40
 4676 11b4 62       		.byte	0x62
 4677 11b5 00       		.byte	0
 4678 11b6 66       		.byte	0x66
 4679 11b7 C1       		.byte	0xc1
 4680 11b8 A6       		.byte	0xa6
 4681 11b9 81       		.byte	0x81
 4682 11ba A7       		.byte	0xa7
 4683 11bb 40       		.byte	0x40
 4684 11bc 67       		.byte	0x67
 4685 11bd 01       		.byte	0x1
 4686 11be A5       		.byte	0xa5
 4687 11bf C0       		.byte	0xc0
 4688 11c0 65       		.byte	0x65
 4689 11c1 80       		.byte	0x80
 4690 11c2 64       		.byte	0x64
 4691 11c3 41       		.byte	0x41
 4692 11c4 A4       		.byte	0xa4
 4693 11c5 00       		.byte	0
 4694 11c6 6C       		.byte	0x6c
 4695 11c7 C1       		.byte	0xc1
 4696 11c8 AC       		.byte	0xac
 4697 11c9 81       		.byte	0x81
 4698 11ca AD       		.byte	0xad
 4699 11cb 40       		.byte	0x40
 4700 11cc 6D       		.byte	0x6d
 4701 11cd 01       		.byte	0x1
 4702 11ce AF       		.byte	0xaf
 4703 11cf C0       		.byte	0xc0
 4704 11d0 6F       		.byte	0x6f
 4705 11d1 80       		.byte	0x80
 4706 11d2 6E       		.byte	0x6e
 4707 11d3 41       		.byte	0x41
 4708 11d4 AE       		.byte	0xae
 4709 11d5 01       		.byte	0x1
 4710 11d6 AA       		.byte	0xaa
 4711 11d7 C0       		.byte	0xc0
 4712 11d8 6A       		.byte	0x6a
 4713 11d9 80       		.byte	0x80
ARM GAS  C:\Users\matij\AppData\Local\Temp\ccfrwtxb.s 			page 106


 4714 11da 6B       		.byte	0x6b
 4715 11db 41       		.byte	0x41
 4716 11dc AB       		.byte	0xab
 4717 11dd 00       		.byte	0
 4718 11de 69       		.byte	0x69
 4719 11df C1       		.byte	0xc1
 4720 11e0 A9       		.byte	0xa9
 4721 11e1 81       		.byte	0x81
 4722 11e2 A8       		.byte	0xa8
 4723 11e3 40       		.byte	0x40
 4724 11e4 68       		.byte	0x68
 4725 11e5 00       		.byte	0
 4726 11e6 78       		.byte	0x78
 4727 11e7 C1       		.byte	0xc1
 4728 11e8 B8       		.byte	0xb8
 4729 11e9 81       		.byte	0x81
 4730 11ea B9       		.byte	0xb9
 4731 11eb 40       		.byte	0x40
 4732 11ec 79       		.byte	0x79
 4733 11ed 01       		.byte	0x1
 4734 11ee BB       		.byte	0xbb
 4735 11ef C0       		.byte	0xc0
 4736 11f0 7B       		.byte	0x7b
 4737 11f1 80       		.byte	0x80
 4738 11f2 7A       		.byte	0x7a
 4739 11f3 41       		.byte	0x41
 4740 11f4 BA       		.byte	0xba
 4741 11f5 01       		.byte	0x1
 4742 11f6 BE       		.byte	0xbe
 4743 11f7 C0       		.byte	0xc0
 4744 11f8 7E       		.byte	0x7e
 4745 11f9 80       		.byte	0x80
 4746 11fa 7F       		.byte	0x7f
 4747 11fb 41       		.byte	0x41
 4748 11fc BF       		.byte	0xbf
 4749 11fd 00       		.byte	0
 4750 11fe 7D       		.byte	0x7d
 4751 11ff C1       		.byte	0xc1
 4752 1200 BD       		.byte	0xbd
 4753 1201 81       		.byte	0x81
 4754 1202 BC       		.byte	0xbc
 4755 1203 40       		.byte	0x40
 4756 1204 7C       		.byte	0x7c
 4757 1205 01       		.byte	0x1
 4758 1206 B4       		.byte	0xb4
 4759 1207 C0       		.byte	0xc0
 4760 1208 74       		.byte	0x74
 4761 1209 80       		.byte	0x80
 4762 120a 75       		.byte	0x75
 4763 120b 41       		.byte	0x41
 4764 120c B5       		.byte	0xb5
 4765 120d 00       		.byte	0
 4766 120e 77       		.byte	0x77
 4767 120f C1       		.byte	0xc1
 4768 1210 B7       		.byte	0xb7
 4769 1211 81       		.byte	0x81
 4770 1212 B6       		.byte	0xb6
ARM GAS  C:\Users\matij\AppData\Local\Temp\ccfrwtxb.s 			page 107


 4771 1213 40       		.byte	0x40
 4772 1214 76       		.byte	0x76
 4773 1215 00       		.byte	0
 4774 1216 72       		.byte	0x72
 4775 1217 C1       		.byte	0xc1
 4776 1218 B2       		.byte	0xb2
 4777 1219 81       		.byte	0x81
 4778 121a B3       		.byte	0xb3
 4779 121b 40       		.byte	0x40
 4780 121c 73       		.byte	0x73
 4781 121d 01       		.byte	0x1
 4782 121e B1       		.byte	0xb1
 4783 121f C0       		.byte	0xc0
 4784 1220 71       		.byte	0x71
 4785 1221 80       		.byte	0x80
 4786 1222 70       		.byte	0x70
 4787 1223 41       		.byte	0x41
 4788 1224 B0       		.byte	0xb0
 4789 1225 00       		.byte	0
 4790 1226 50       		.byte	0x50
 4791 1227 C1       		.byte	0xc1
 4792 1228 90       		.byte	0x90
 4793 1229 81       		.byte	0x81
 4794 122a 91       		.byte	0x91
 4795 122b 40       		.byte	0x40
 4796 122c 51       		.byte	0x51
 4797 122d 01       		.byte	0x1
 4798 122e 93       		.byte	0x93
 4799 122f C0       		.byte	0xc0
 4800 1230 53       		.byte	0x53
 4801 1231 80       		.byte	0x80
 4802 1232 52       		.byte	0x52
 4803 1233 41       		.byte	0x41
 4804 1234 92       		.byte	0x92
 4805 1235 01       		.byte	0x1
 4806 1236 96       		.byte	0x96
 4807 1237 C0       		.byte	0xc0
 4808 1238 56       		.byte	0x56
 4809 1239 80       		.byte	0x80
 4810 123a 57       		.byte	0x57
 4811 123b 41       		.byte	0x41
 4812 123c 97       		.byte	0x97
 4813 123d 00       		.byte	0
 4814 123e 55       		.byte	0x55
 4815 123f C1       		.byte	0xc1
 4816 1240 95       		.byte	0x95
 4817 1241 81       		.byte	0x81
 4818 1242 94       		.byte	0x94
 4819 1243 40       		.byte	0x40
 4820 1244 54       		.byte	0x54
 4821 1245 01       		.byte	0x1
 4822 1246 9C       		.byte	0x9c
 4823 1247 C0       		.byte	0xc0
 4824 1248 5C       		.byte	0x5c
 4825 1249 80       		.byte	0x80
 4826 124a 5D       		.byte	0x5d
 4827 124b 41       		.byte	0x41
ARM GAS  C:\Users\matij\AppData\Local\Temp\ccfrwtxb.s 			page 108


 4828 124c 9D       		.byte	0x9d
 4829 124d 00       		.byte	0
 4830 124e 5F       		.byte	0x5f
 4831 124f C1       		.byte	0xc1
 4832 1250 9F       		.byte	0x9f
 4833 1251 81       		.byte	0x81
 4834 1252 9E       		.byte	0x9e
 4835 1253 40       		.byte	0x40
 4836 1254 5E       		.byte	0x5e
 4837 1255 00       		.byte	0
 4838 1256 5A       		.byte	0x5a
 4839 1257 C1       		.byte	0xc1
 4840 1258 9A       		.byte	0x9a
 4841 1259 81       		.byte	0x81
 4842 125a 9B       		.byte	0x9b
 4843 125b 40       		.byte	0x40
 4844 125c 5B       		.byte	0x5b
 4845 125d 01       		.byte	0x1
 4846 125e 99       		.byte	0x99
 4847 125f C0       		.byte	0xc0
 4848 1260 59       		.byte	0x59
 4849 1261 80       		.byte	0x80
 4850 1262 58       		.byte	0x58
 4851 1263 41       		.byte	0x41
 4852 1264 98       		.byte	0x98
 4853 1265 01       		.byte	0x1
 4854 1266 88       		.byte	0x88
 4855 1267 C0       		.byte	0xc0
 4856 1268 48       		.byte	0x48
 4857 1269 80       		.byte	0x80
 4858 126a 49       		.byte	0x49
 4859 126b 41       		.byte	0x41
 4860 126c 89       		.byte	0x89
 4861 126d 00       		.byte	0
 4862 126e 4B       		.byte	0x4b
 4863 126f C1       		.byte	0xc1
 4864 1270 8B       		.byte	0x8b
 4865 1271 81       		.byte	0x81
 4866 1272 8A       		.byte	0x8a
 4867 1273 40       		.byte	0x40
 4868 1274 4A       		.byte	0x4a
 4869 1275 00       		.byte	0
 4870 1276 4E       		.byte	0x4e
 4871 1277 C1       		.byte	0xc1
 4872 1278 8E       		.byte	0x8e
 4873 1279 81       		.byte	0x81
 4874 127a 8F       		.byte	0x8f
 4875 127b 40       		.byte	0x40
 4876 127c 4F       		.byte	0x4f
 4877 127d 01       		.byte	0x1
 4878 127e 8D       		.byte	0x8d
 4879 127f C0       		.byte	0xc0
 4880 1280 4D       		.byte	0x4d
 4881 1281 80       		.byte	0x80
 4882 1282 4C       		.byte	0x4c
 4883 1283 41       		.byte	0x41
 4884 1284 8C       		.byte	0x8c
ARM GAS  C:\Users\matij\AppData\Local\Temp\ccfrwtxb.s 			page 109


 4885 1285 00       		.byte	0
 4886 1286 44       		.byte	0x44
 4887 1287 C1       		.byte	0xc1
 4888 1288 84       		.byte	0x84
 4889 1289 81       		.byte	0x81
 4890 128a 85       		.byte	0x85
 4891 128b 40       		.byte	0x40
 4892 128c 45       		.byte	0x45
 4893 128d 01       		.byte	0x1
 4894 128e 87       		.byte	0x87
 4895 128f C0       		.byte	0xc0
 4896 1290 47       		.byte	0x47
 4897 1291 80       		.byte	0x80
 4898 1292 46       		.byte	0x46
 4899 1293 41       		.byte	0x41
 4900 1294 86       		.byte	0x86
 4901 1295 01       		.byte	0x1
 4902 1296 82       		.byte	0x82
 4903 1297 C0       		.byte	0xc0
 4904 1298 42       		.byte	0x42
 4905 1299 80       		.byte	0x80
 4906 129a 43       		.byte	0x43
 4907 129b 41       		.byte	0x41
 4908 129c 83       		.byte	0x83
 4909 129d 00       		.byte	0
 4910 129e 41       		.byte	0x41
 4911 129f C1       		.byte	0xc1
 4912 12a0 81       		.byte	0x81
 4913 12a1 81       		.byte	0x81
 4914 12a2 80       		.byte	0x80
 4915 12a3 40       		.byte	0x40
 4916 12a4 40       		.byte	0x40
 4917 12a5 12       		.uleb128 0x12
 4918 12a6 83100000 		.4byte	0x1083
 4919 12aa 40       		.uleb128 0x40
 4920 12ab E0060000 		.4byte	.LASF107
 4921 12af 05       		.byte	0x5
 4922 12b0 27       		.byte	0x27
 4923 12b1 2E010000 		.4byte	0x12e
 4924 12b5 05       		.uleb128 0x5
 4925 12b6 03       		.byte	0x3
 4926 12b7 00000000 		.4byte	StripLights_Done
 4927 12bb 40       		.uleb128 0x40
 4928 12bc 37030000 		.4byte	.LASF108
 4929 12c0 05       		.byte	0x5
 4930 12c1 29       		.byte	0x29
 4931 12c2 D1000000 		.4byte	0xd1
 4932 12c6 05       		.uleb128 0x5
 4933 12c7 03       		.byte	0x3
 4934 12c8 00000000 		.4byte	StripLights_UseGammaCorrection
 4935 12cc 16       		.uleb128 0x16
 4936 12cd CB040000 		.4byte	.LASF109
 4937 12d1 08       		.byte	0x8
 4938 12d2 1207     		.2byte	0x712
 4939 12d4 D8120000 		.4byte	0x12d8
 4940 12d8 06       		.uleb128 0x6
 4941 12d9 BB000000 		.4byte	0xbb
ARM GAS  C:\Users\matij\AppData\Local\Temp\ccfrwtxb.s 			page 110


 4942 12dd 40       		.uleb128 0x40
 4943 12de 26000000 		.4byte	.LASF110
 4944 12e2 06       		.byte	0x6
 4945 12e3 2B       		.byte	0x2b
 4946 12e4 A0010000 		.4byte	0x1a0
 4947 12e8 05       		.uleb128 0x5
 4948 12e9 03       		.byte	0x3
 4949 12ea 00000000 		.4byte	System_u
 4950 12ee 40       		.uleb128 0x40
 4951 12ef CA010000 		.4byte	.LASF111
 4952 12f3 06       		.byte	0x6
 4953 12f4 54       		.byte	0x54
 4954 12f5 65030000 		.4byte	0x365
 4955 12f9 05       		.uleb128 0x5
 4956 12fa 03       		.byte	0x3
 4957 12fb 00000000 		.4byte	Config
 4958 12ff 40       		.uleb128 0x40
 4959 1300 AD000000 		.4byte	.LASF77
 4960 1304 01       		.byte	0x1
 4961 1305 17       		.byte	0x17
 4962 1306 D1000000 		.4byte	0xd1
 4963 130a 05       		.uleb128 0x5
 4964 130b 03       		.byte	0x3
 4965 130c 00000000 		.4byte	StripLights_initvar
 4966 1310 13       		.uleb128 0x13
 4967 1311 E9000000 		.4byte	0xe9
 4968 1315 27130000 		.4byte	0x1327
 4969 1319 14       		.uleb128 0x14
 4970 131a 27010000 		.4byte	0x127
 4971 131e 00       		.byte	0
 4972 131f 41       		.uleb128 0x41
 4973 1320 27010000 		.4byte	0x127
 4974 1324 2B01     		.2byte	0x12b
 4975 1326 00       		.byte	0
 4976 1327 40       		.uleb128 0x40
 4977 1328 8B050000 		.4byte	.LASF112
 4978 132c 01       		.byte	0x1
 4979 132d 1A       		.byte	0x1a
 4980 132e 10130000 		.4byte	0x1310
 4981 1332 05       		.uleb128 0x5
 4982 1333 03       		.byte	0x3
 4983 1334 00000000 		.4byte	StripLights_ledArray
 4984 1338 40       		.uleb128 0x40
 4985 1339 7F020000 		.4byte	.LASF113
 4986 133d 01       		.byte	0x1
 4987 133e 1F       		.byte	0x1f
 4988 133f E9000000 		.4byte	0xe9
 4989 1343 05       		.uleb128 0x5
 4990 1344 03       		.byte	0x3
 4991 1345 00000000 		.4byte	StripLights_ledIndex
 4992 1349 40       		.uleb128 0x40
 4993 134a 47000000 		.4byte	.LASF114
 4994 134e 01       		.byte	0x1
 4995 134f 20       		.byte	0x20
 4996 1350 E9000000 		.4byte	0xe9
 4997 1354 05       		.uleb128 0x5
 4998 1355 03       		.byte	0x3
ARM GAS  C:\Users\matij\AppData\Local\Temp\ccfrwtxb.s 			page 111


 4999 1356 00000000 		.4byte	StripLights_row
 5000 135a 42       		.uleb128 0x42
 5001 135b 6A060000 		.4byte	.LASF63
 5002 135f 01       		.byte	0x1
 5003 1360 CA01     		.2byte	0x1ca
 5004 1362 E9000000 		.4byte	0xe9
 5005 1366 05       		.uleb128 0x5
 5006 1367 03       		.byte	0x3
 5007 1368 00000000 		.4byte	StripLights_refreshComplete
 5008 136c 42       		.uleb128 0x42
 5009 136d 57000000 		.4byte	.LASF61
 5010 1371 01       		.byte	0x1
 5011 1372 AA03     		.2byte	0x3aa
 5012 1374 E9000000 		.4byte	0xe9
 5013 1378 05       		.uleb128 0x5
 5014 1379 03       		.byte	0x3
 5015 137a 00000000 		.4byte	StripLights_DimMask
 5016 137e 42       		.uleb128 0x42
 5017 137f 08050000 		.4byte	.LASF62
 5018 1383 01       		.byte	0x1
 5019 1384 AB03     		.2byte	0x3ab
 5020 1386 E9000000 		.4byte	0xe9
 5021 138a 05       		.uleb128 0x5
 5022 138b 03       		.byte	0x3
 5023 138c 00000000 		.4byte	StripLights_DimShift
 5024 1390 40       		.uleb128 0x40
 5025 1391 21030000 		.4byte	.LASF115
 5026 1395 01       		.byte	0x1
 5027 1396 26       		.byte	0x26
 5028 1397 E9000000 		.4byte	0xe9
 5029 139b 05       		.uleb128 0x5
 5030 139c 03       		.byte	0x3
 5031 139d 00000000 		.4byte	StripLights_Red_Shift
 5032 13a1 40       		.uleb128 0x40
 5033 13a2 94020000 		.4byte	.LASF116
 5034 13a6 01       		.byte	0x1
 5035 13a7 27       		.byte	0x27
 5036 13a8 E9000000 		.4byte	0xe9
 5037 13ac 05       		.uleb128 0x5
 5038 13ad 03       		.byte	0x3
 5039 13ae 00000000 		.4byte	StripLights_Green_Shift
 5040 13b2 40       		.uleb128 0x40
 5041 13b3 0A030000 		.4byte	.LASF117
 5042 13b7 01       		.byte	0x1
 5043 13b8 28       		.byte	0x28
 5044 13b9 E9000000 		.4byte	0xe9
 5045 13bd 05       		.uleb128 0x5
 5046 13be 03       		.byte	0x3
 5047 13bf 00000000 		.4byte	StripLights_Blue_Shift
 5048 13c3 40       		.uleb128 0x40
 5049 13c4 92040000 		.4byte	.LASF69
 5050 13c8 01       		.byte	0x1
 5051 13c9 2B       		.byte	0x2b
 5052 13ca D4130000 		.4byte	0x13d4
 5053 13ce 05       		.uleb128 0x5
 5054 13cf 03       		.byte	0x3
 5055 13d0 00000000 		.4byte	StripLights_CLUT
ARM GAS  C:\Users\matij\AppData\Local\Temp\ccfrwtxb.s 			page 112


 5056 13d4 12       		.uleb128 0x12
 5057 13d5 09050000 		.4byte	0x509
 5058 13d9 13       		.uleb128 0x13
 5059 13da B7020000 		.4byte	0x2b7
 5060 13de E9130000 		.4byte	0x13e9
 5061 13e2 14       		.uleb128 0x14
 5062 13e3 27010000 		.4byte	0x127
 5063 13e7 FF       		.byte	0xff
 5064 13e8 00       		.byte	0
 5065 13e9 40       		.uleb128 0x40
 5066 13ea B1030000 		.4byte	.LASF118
 5067 13ee 01       		.byte	0x1
 5068 13ef C2       		.byte	0xc2
 5069 13f0 FA130000 		.4byte	0x13fa
 5070 13f4 05       		.uleb128 0x5
 5071 13f5 03       		.byte	0x3
 5072 13f6 00000000 		.4byte	gamma
 5073 13fa 12       		.uleb128 0x12
 5074 13fb D9130000 		.4byte	0x13d9
 5075 13ff 43       		.uleb128 0x43
 5076 1400 27050000 		.4byte	.LASF119
 5077 1404 27050000 		.4byte	.LASF119
 5078 1408 09       		.byte	0x9
 5079 1409 1B       		.byte	0x1b
 5080 140a 43       		.uleb128 0x43
 5081 140b F1020000 		.4byte	.LASF120
 5082 140f F1020000 		.4byte	.LASF120
 5083 1413 0A       		.byte	0xa
 5084 1414 18       		.byte	0x18
 5085 1415 43       		.uleb128 0x43
 5086 1416 DC030000 		.4byte	.LASF121
 5087 141a DC030000 		.4byte	.LASF121
 5088 141e 0B       		.byte	0xb
 5089 141f 18       		.byte	0x18
 5090 1420 43       		.uleb128 0x43
 5091 1421 0D000000 		.4byte	.LASF122
 5092 1425 0D000000 		.4byte	.LASF122
 5093 1429 0C       		.byte	0xc
 5094 142a 76       		.byte	0x76
 5095 142b 44       		.uleb128 0x44
 5096 142c 4D494E00 		.ascii	"MIN\000"
 5097 1430 4D494E00 		.ascii	"MIN\000"
 5098 1434 01       		.byte	0x1
 5099 1435 4E02     		.2byte	0x24e
 5100 1437 44       		.uleb128 0x44
 5101 1438 4D415800 		.ascii	"MAX\000"
 5102 143c 4D415800 		.ascii	"MAX\000"
 5103 1440 01       		.byte	0x1
 5104 1441 4F02     		.2byte	0x24f
 5105 1443 00       		.byte	0
 5106              		.section	.debug_abbrev,"",%progbits
 5107              	.Ldebug_abbrev0:
 5108 0000 01       		.uleb128 0x1
 5109 0001 11       		.uleb128 0x11
 5110 0002 01       		.byte	0x1
 5111 0003 25       		.uleb128 0x25
 5112 0004 0E       		.uleb128 0xe
ARM GAS  C:\Users\matij\AppData\Local\Temp\ccfrwtxb.s 			page 113


 5113 0005 13       		.uleb128 0x13
 5114 0006 0B       		.uleb128 0xb
 5115 0007 03       		.uleb128 0x3
 5116 0008 0E       		.uleb128 0xe
 5117 0009 1B       		.uleb128 0x1b
 5118 000a 0E       		.uleb128 0xe
 5119 000b 55       		.uleb128 0x55
 5120 000c 17       		.uleb128 0x17
 5121 000d 11       		.uleb128 0x11
 5122 000e 01       		.uleb128 0x1
 5123 000f 10       		.uleb128 0x10
 5124 0010 17       		.uleb128 0x17
 5125 0011 00       		.byte	0
 5126 0012 00       		.byte	0
 5127 0013 02       		.uleb128 0x2
 5128 0014 24       		.uleb128 0x24
 5129 0015 00       		.byte	0
 5130 0016 0B       		.uleb128 0xb
 5131 0017 0B       		.uleb128 0xb
 5132 0018 3E       		.uleb128 0x3e
 5133 0019 0B       		.uleb128 0xb
 5134 001a 03       		.uleb128 0x3
 5135 001b 0E       		.uleb128 0xe
 5136 001c 00       		.byte	0
 5137 001d 00       		.byte	0
 5138 001e 03       		.uleb128 0x3
 5139 001f 24       		.uleb128 0x24
 5140 0020 00       		.byte	0
 5141 0021 0B       		.uleb128 0xb
 5142 0022 0B       		.uleb128 0xb
 5143 0023 3E       		.uleb128 0x3e
 5144 0024 0B       		.uleb128 0xb
 5145 0025 03       		.uleb128 0x3
 5146 0026 08       		.uleb128 0x8
 5147 0027 00       		.byte	0
 5148 0028 00       		.byte	0
 5149 0029 04       		.uleb128 0x4
 5150 002a 16       		.uleb128 0x16
 5151 002b 00       		.byte	0
 5152 002c 03       		.uleb128 0x3
 5153 002d 0E       		.uleb128 0xe
 5154 002e 3A       		.uleb128 0x3a
 5155 002f 0B       		.uleb128 0xb
 5156 0030 3B       		.uleb128 0x3b
 5157 0031 0B       		.uleb128 0xb
 5158 0032 49       		.uleb128 0x49
 5159 0033 13       		.uleb128 0x13
 5160 0034 00       		.byte	0
 5161 0035 00       		.byte	0
 5162 0036 05       		.uleb128 0x5
 5163 0037 16       		.uleb128 0x16
 5164 0038 00       		.byte	0
 5165 0039 03       		.uleb128 0x3
 5166 003a 0E       		.uleb128 0xe
 5167 003b 3A       		.uleb128 0x3a
 5168 003c 0B       		.uleb128 0xb
 5169 003d 3B       		.uleb128 0x3b
ARM GAS  C:\Users\matij\AppData\Local\Temp\ccfrwtxb.s 			page 114


 5170 003e 05       		.uleb128 0x5
 5171 003f 49       		.uleb128 0x49
 5172 0040 13       		.uleb128 0x13
 5173 0041 00       		.byte	0
 5174 0042 00       		.byte	0
 5175 0043 06       		.uleb128 0x6
 5176 0044 35       		.uleb128 0x35
 5177 0045 00       		.byte	0
 5178 0046 49       		.uleb128 0x49
 5179 0047 13       		.uleb128 0x13
 5180 0048 00       		.byte	0
 5181 0049 00       		.byte	0
 5182 004a 07       		.uleb128 0x7
 5183 004b 0F       		.uleb128 0xf
 5184 004c 00       		.byte	0
 5185 004d 0B       		.uleb128 0xb
 5186 004e 0B       		.uleb128 0xb
 5187 004f 49       		.uleb128 0x49
 5188 0050 13       		.uleb128 0x13
 5189 0051 00       		.byte	0
 5190 0052 00       		.byte	0
 5191 0053 08       		.uleb128 0x8
 5192 0054 15       		.uleb128 0x15
 5193 0055 00       		.byte	0
 5194 0056 27       		.uleb128 0x27
 5195 0057 19       		.uleb128 0x19
 5196 0058 00       		.byte	0
 5197 0059 00       		.byte	0
 5198 005a 09       		.uleb128 0x9
 5199 005b 13       		.uleb128 0x13
 5200 005c 01       		.byte	0x1
 5201 005d 03       		.uleb128 0x3
 5202 005e 0E       		.uleb128 0xe
 5203 005f 0B       		.uleb128 0xb
 5204 0060 0B       		.uleb128 0xb
 5205 0061 3A       		.uleb128 0x3a
 5206 0062 0B       		.uleb128 0xb
 5207 0063 3B       		.uleb128 0x3b
 5208 0064 0B       		.uleb128 0xb
 5209 0065 01       		.uleb128 0x1
 5210 0066 13       		.uleb128 0x13
 5211 0067 00       		.byte	0
 5212 0068 00       		.byte	0
 5213 0069 0A       		.uleb128 0xa
 5214 006a 0D       		.uleb128 0xd
 5215 006b 00       		.byte	0
 5216 006c 03       		.uleb128 0x3
 5217 006d 0E       		.uleb128 0xe
 5218 006e 3A       		.uleb128 0x3a
 5219 006f 0B       		.uleb128 0xb
 5220 0070 3B       		.uleb128 0x3b
 5221 0071 0B       		.uleb128 0xb
 5222 0072 49       		.uleb128 0x49
 5223 0073 13       		.uleb128 0x13
 5224 0074 0B       		.uleb128 0xb
 5225 0075 0B       		.uleb128 0xb
 5226 0076 0D       		.uleb128 0xd
ARM GAS  C:\Users\matij\AppData\Local\Temp\ccfrwtxb.s 			page 115


 5227 0077 0B       		.uleb128 0xb
 5228 0078 0C       		.uleb128 0xc
 5229 0079 0B       		.uleb128 0xb
 5230 007a 38       		.uleb128 0x38
 5231 007b 0B       		.uleb128 0xb
 5232 007c 00       		.byte	0
 5233 007d 00       		.byte	0
 5234 007e 0B       		.uleb128 0xb
 5235 007f 0D       		.uleb128 0xd
 5236 0080 00       		.byte	0
 5237 0081 03       		.uleb128 0x3
 5238 0082 08       		.uleb128 0x8
 5239 0083 3A       		.uleb128 0x3a
 5240 0084 0B       		.uleb128 0xb
 5241 0085 3B       		.uleb128 0x3b
 5242 0086 0B       		.uleb128 0xb
 5243 0087 49       		.uleb128 0x49
 5244 0088 13       		.uleb128 0x13
 5245 0089 0B       		.uleb128 0xb
 5246 008a 0B       		.uleb128 0xb
 5247 008b 0D       		.uleb128 0xd
 5248 008c 0B       		.uleb128 0xb
 5249 008d 0C       		.uleb128 0xc
 5250 008e 0B       		.uleb128 0xb
 5251 008f 38       		.uleb128 0x38
 5252 0090 0B       		.uleb128 0xb
 5253 0091 00       		.byte	0
 5254 0092 00       		.byte	0
 5255 0093 0C       		.uleb128 0xc
 5256 0094 17       		.uleb128 0x17
 5257 0095 01       		.byte	0x1
 5258 0096 03       		.uleb128 0x3
 5259 0097 0E       		.uleb128 0xe
 5260 0098 0B       		.uleb128 0xb
 5261 0099 0B       		.uleb128 0xb
 5262 009a 3A       		.uleb128 0x3a
 5263 009b 0B       		.uleb128 0xb
 5264 009c 3B       		.uleb128 0x3b
 5265 009d 0B       		.uleb128 0xb
 5266 009e 01       		.uleb128 0x1
 5267 009f 13       		.uleb128 0x13
 5268 00a0 00       		.byte	0
 5269 00a1 00       		.byte	0
 5270 00a2 0D       		.uleb128 0xd
 5271 00a3 0D       		.uleb128 0xd
 5272 00a4 00       		.byte	0
 5273 00a5 03       		.uleb128 0x3
 5274 00a6 0E       		.uleb128 0xe
 5275 00a7 3A       		.uleb128 0x3a
 5276 00a8 0B       		.uleb128 0xb
 5277 00a9 3B       		.uleb128 0x3b
 5278 00aa 0B       		.uleb128 0xb
 5279 00ab 49       		.uleb128 0x49
 5280 00ac 13       		.uleb128 0x13
 5281 00ad 00       		.byte	0
 5282 00ae 00       		.byte	0
 5283 00af 0E       		.uleb128 0xe
ARM GAS  C:\Users\matij\AppData\Local\Temp\ccfrwtxb.s 			page 116


 5284 00b0 0D       		.uleb128 0xd
 5285 00b1 00       		.byte	0
 5286 00b2 03       		.uleb128 0x3
 5287 00b3 0E       		.uleb128 0xe
 5288 00b4 3A       		.uleb128 0x3a
 5289 00b5 0B       		.uleb128 0xb
 5290 00b6 3B       		.uleb128 0x3b
 5291 00b7 0B       		.uleb128 0xb
 5292 00b8 49       		.uleb128 0x49
 5293 00b9 13       		.uleb128 0x13
 5294 00ba 38       		.uleb128 0x38
 5295 00bb 0B       		.uleb128 0xb
 5296 00bc 00       		.byte	0
 5297 00bd 00       		.byte	0
 5298 00be 0F       		.uleb128 0xf
 5299 00bf 0D       		.uleb128 0xd
 5300 00c0 00       		.byte	0
 5301 00c1 03       		.uleb128 0x3
 5302 00c2 08       		.uleb128 0x8
 5303 00c3 3A       		.uleb128 0x3a
 5304 00c4 0B       		.uleb128 0xb
 5305 00c5 3B       		.uleb128 0x3b
 5306 00c6 0B       		.uleb128 0xb
 5307 00c7 49       		.uleb128 0x49
 5308 00c8 13       		.uleb128 0x13
 5309 00c9 38       		.uleb128 0x38
 5310 00ca 0B       		.uleb128 0xb
 5311 00cb 00       		.byte	0
 5312 00cc 00       		.byte	0
 5313 00cd 10       		.uleb128 0x10
 5314 00ce 15       		.uleb128 0x15
 5315 00cf 01       		.byte	0x1
 5316 00d0 27       		.uleb128 0x27
 5317 00d1 19       		.uleb128 0x19
 5318 00d2 01       		.uleb128 0x1
 5319 00d3 13       		.uleb128 0x13
 5320 00d4 00       		.byte	0
 5321 00d5 00       		.byte	0
 5322 00d6 11       		.uleb128 0x11
 5323 00d7 05       		.uleb128 0x5
 5324 00d8 00       		.byte	0
 5325 00d9 49       		.uleb128 0x49
 5326 00da 13       		.uleb128 0x13
 5327 00db 00       		.byte	0
 5328 00dc 00       		.byte	0
 5329 00dd 12       		.uleb128 0x12
 5330 00de 26       		.uleb128 0x26
 5331 00df 00       		.byte	0
 5332 00e0 49       		.uleb128 0x49
 5333 00e1 13       		.uleb128 0x13
 5334 00e2 00       		.byte	0
 5335 00e3 00       		.byte	0
 5336 00e4 13       		.uleb128 0x13
 5337 00e5 01       		.uleb128 0x1
 5338 00e6 01       		.byte	0x1
 5339 00e7 49       		.uleb128 0x49
 5340 00e8 13       		.uleb128 0x13
ARM GAS  C:\Users\matij\AppData\Local\Temp\ccfrwtxb.s 			page 117


 5341 00e9 01       		.uleb128 0x1
 5342 00ea 13       		.uleb128 0x13
 5343 00eb 00       		.byte	0
 5344 00ec 00       		.byte	0
 5345 00ed 14       		.uleb128 0x14
 5346 00ee 21       		.uleb128 0x21
 5347 00ef 00       		.byte	0
 5348 00f0 49       		.uleb128 0x49
 5349 00f1 13       		.uleb128 0x13
 5350 00f2 2F       		.uleb128 0x2f
 5351 00f3 0B       		.uleb128 0xb
 5352 00f4 00       		.byte	0
 5353 00f5 00       		.byte	0
 5354 00f6 15       		.uleb128 0x15
 5355 00f7 2E       		.uleb128 0x2e
 5356 00f8 01       		.byte	0x1
 5357 00f9 3F       		.uleb128 0x3f
 5358 00fa 19       		.uleb128 0x19
 5359 00fb 03       		.uleb128 0x3
 5360 00fc 0E       		.uleb128 0xe
 5361 00fd 3A       		.uleb128 0x3a
 5362 00fe 0B       		.uleb128 0xb
 5363 00ff 3B       		.uleb128 0x3b
 5364 0100 05       		.uleb128 0x5
 5365 0101 27       		.uleb128 0x27
 5366 0102 19       		.uleb128 0x19
 5367 0103 20       		.uleb128 0x20
 5368 0104 0B       		.uleb128 0xb
 5369 0105 01       		.uleb128 0x1
 5370 0106 13       		.uleb128 0x13
 5371 0107 00       		.byte	0
 5372 0108 00       		.byte	0
 5373 0109 16       		.uleb128 0x16
 5374 010a 34       		.uleb128 0x34
 5375 010b 00       		.byte	0
 5376 010c 03       		.uleb128 0x3
 5377 010d 0E       		.uleb128 0xe
 5378 010e 3A       		.uleb128 0x3a
 5379 010f 0B       		.uleb128 0xb
 5380 0110 3B       		.uleb128 0x3b
 5381 0111 05       		.uleb128 0x5
 5382 0112 49       		.uleb128 0x49
 5383 0113 13       		.uleb128 0x13
 5384 0114 3F       		.uleb128 0x3f
 5385 0115 19       		.uleb128 0x19
 5386 0116 3C       		.uleb128 0x3c
 5387 0117 19       		.uleb128 0x19
 5388 0118 00       		.byte	0
 5389 0119 00       		.byte	0
 5390 011a 17       		.uleb128 0x17
 5391 011b 34       		.uleb128 0x34
 5392 011c 00       		.byte	0
 5393 011d 03       		.uleb128 0x3
 5394 011e 0E       		.uleb128 0xe
 5395 011f 3A       		.uleb128 0x3a
 5396 0120 0B       		.uleb128 0xb
 5397 0121 3B       		.uleb128 0x3b
ARM GAS  C:\Users\matij\AppData\Local\Temp\ccfrwtxb.s 			page 118


 5398 0122 05       		.uleb128 0x5
 5399 0123 49       		.uleb128 0x49
 5400 0124 13       		.uleb128 0x13
 5401 0125 00       		.byte	0
 5402 0126 00       		.byte	0
 5403 0127 18       		.uleb128 0x18
 5404 0128 05       		.uleb128 0x5
 5405 0129 00       		.byte	0
 5406 012a 03       		.uleb128 0x3
 5407 012b 08       		.uleb128 0x8
 5408 012c 3A       		.uleb128 0x3a
 5409 012d 0B       		.uleb128 0xb
 5410 012e 3B       		.uleb128 0x3b
 5411 012f 05       		.uleb128 0x5
 5412 0130 49       		.uleb128 0x49
 5413 0131 13       		.uleb128 0x13
 5414 0132 00       		.byte	0
 5415 0133 00       		.byte	0
 5416 0134 19       		.uleb128 0x19
 5417 0135 34       		.uleb128 0x34
 5418 0136 00       		.byte	0
 5419 0137 03       		.uleb128 0x3
 5420 0138 08       		.uleb128 0x8
 5421 0139 3A       		.uleb128 0x3a
 5422 013a 0B       		.uleb128 0xb
 5423 013b 3B       		.uleb128 0x3b
 5424 013c 05       		.uleb128 0x5
 5425 013d 49       		.uleb128 0x49
 5426 013e 13       		.uleb128 0x13
 5427 013f 00       		.byte	0
 5428 0140 00       		.byte	0
 5429 0141 1A       		.uleb128 0x1a
 5430 0142 05       		.uleb128 0x5
 5431 0143 00       		.byte	0
 5432 0144 03       		.uleb128 0x3
 5433 0145 0E       		.uleb128 0xe
 5434 0146 3A       		.uleb128 0x3a
 5435 0147 0B       		.uleb128 0xb
 5436 0148 3B       		.uleb128 0x3b
 5437 0149 05       		.uleb128 0x5
 5438 014a 49       		.uleb128 0x49
 5439 014b 13       		.uleb128 0x13
 5440 014c 00       		.byte	0
 5441 014d 00       		.byte	0
 5442 014e 1B       		.uleb128 0x1b
 5443 014f 2E       		.uleb128 0x2e
 5444 0150 00       		.byte	0
 5445 0151 3F       		.uleb128 0x3f
 5446 0152 19       		.uleb128 0x19
 5447 0153 03       		.uleb128 0x3
 5448 0154 0E       		.uleb128 0xe
 5449 0155 3A       		.uleb128 0x3a
 5450 0156 0B       		.uleb128 0xb
 5451 0157 3B       		.uleb128 0x3b
 5452 0158 05       		.uleb128 0x5
 5453 0159 27       		.uleb128 0x27
 5454 015a 19       		.uleb128 0x19
ARM GAS  C:\Users\matij\AppData\Local\Temp\ccfrwtxb.s 			page 119


 5455 015b 49       		.uleb128 0x49
 5456 015c 13       		.uleb128 0x13
 5457 015d 11       		.uleb128 0x11
 5458 015e 01       		.uleb128 0x1
 5459 015f 12       		.uleb128 0x12
 5460 0160 06       		.uleb128 0x6
 5461 0161 40       		.uleb128 0x40
 5462 0162 18       		.uleb128 0x18
 5463 0163 9742     		.uleb128 0x2117
 5464 0165 19       		.uleb128 0x19
 5465 0166 00       		.byte	0
 5466 0167 00       		.byte	0
 5467 0168 1C       		.uleb128 0x1c
 5468 0169 2E       		.uleb128 0x2e
 5469 016a 00       		.byte	0
 5470 016b 3F       		.uleb128 0x3f
 5471 016c 19       		.uleb128 0x19
 5472 016d 03       		.uleb128 0x3
 5473 016e 0E       		.uleb128 0xe
 5474 016f 3A       		.uleb128 0x3a
 5475 0170 0B       		.uleb128 0xb
 5476 0171 3B       		.uleb128 0x3b
 5477 0172 05       		.uleb128 0x5
 5478 0173 27       		.uleb128 0x27
 5479 0174 19       		.uleb128 0x19
 5480 0175 11       		.uleb128 0x11
 5481 0176 01       		.uleb128 0x1
 5482 0177 12       		.uleb128 0x12
 5483 0178 06       		.uleb128 0x6
 5484 0179 40       		.uleb128 0x40
 5485 017a 18       		.uleb128 0x18
 5486 017b 9742     		.uleb128 0x2117
 5487 017d 19       		.uleb128 0x19
 5488 017e 00       		.byte	0
 5489 017f 00       		.byte	0
 5490 0180 1D       		.uleb128 0x1d
 5491 0181 2E       		.uleb128 0x2e
 5492 0182 01       		.byte	0x1
 5493 0183 3F       		.uleb128 0x3f
 5494 0184 19       		.uleb128 0x19
 5495 0185 03       		.uleb128 0x3
 5496 0186 0E       		.uleb128 0xe
 5497 0187 3A       		.uleb128 0x3a
 5498 0188 0B       		.uleb128 0xb
 5499 0189 3B       		.uleb128 0x3b
 5500 018a 05       		.uleb128 0x5
 5501 018b 27       		.uleb128 0x27
 5502 018c 19       		.uleb128 0x19
 5503 018d 49       		.uleb128 0x49
 5504 018e 13       		.uleb128 0x13
 5505 018f 11       		.uleb128 0x11
 5506 0190 01       		.uleb128 0x1
 5507 0191 12       		.uleb128 0x12
 5508 0192 06       		.uleb128 0x6
 5509 0193 40       		.uleb128 0x40
 5510 0194 18       		.uleb128 0x18
 5511 0195 9742     		.uleb128 0x2117
ARM GAS  C:\Users\matij\AppData\Local\Temp\ccfrwtxb.s 			page 120


 5512 0197 19       		.uleb128 0x19
 5513 0198 01       		.uleb128 0x1
 5514 0199 13       		.uleb128 0x13
 5515 019a 00       		.byte	0
 5516 019b 00       		.byte	0
 5517 019c 1E       		.uleb128 0x1e
 5518 019d 05       		.uleb128 0x5
 5519 019e 00       		.byte	0
 5520 019f 03       		.uleb128 0x3
 5521 01a0 0E       		.uleb128 0xe
 5522 01a1 3A       		.uleb128 0x3a
 5523 01a2 0B       		.uleb128 0xb
 5524 01a3 3B       		.uleb128 0x3b
 5525 01a4 05       		.uleb128 0x5
 5526 01a5 49       		.uleb128 0x49
 5527 01a6 13       		.uleb128 0x13
 5528 01a7 02       		.uleb128 0x2
 5529 01a8 17       		.uleb128 0x17
 5530 01a9 00       		.byte	0
 5531 01aa 00       		.byte	0
 5532 01ab 1F       		.uleb128 0x1f
 5533 01ac 34       		.uleb128 0x34
 5534 01ad 00       		.byte	0
 5535 01ae 03       		.uleb128 0x3
 5536 01af 0E       		.uleb128 0xe
 5537 01b0 3A       		.uleb128 0x3a
 5538 01b1 0B       		.uleb128 0xb
 5539 01b2 3B       		.uleb128 0x3b
 5540 01b3 05       		.uleb128 0x5
 5541 01b4 49       		.uleb128 0x49
 5542 01b5 13       		.uleb128 0x13
 5543 01b6 02       		.uleb128 0x2
 5544 01b7 17       		.uleb128 0x17
 5545 01b8 00       		.byte	0
 5546 01b9 00       		.byte	0
 5547 01ba 20       		.uleb128 0x20
 5548 01bb 34       		.uleb128 0x34
 5549 01bc 00       		.byte	0
 5550 01bd 03       		.uleb128 0x3
 5551 01be 0E       		.uleb128 0xe
 5552 01bf 3A       		.uleb128 0x3a
 5553 01c0 0B       		.uleb128 0xb
 5554 01c1 3B       		.uleb128 0x3b
 5555 01c2 05       		.uleb128 0x5
 5556 01c3 49       		.uleb128 0x49
 5557 01c4 13       		.uleb128 0x13
 5558 01c5 02       		.uleb128 0x2
 5559 01c6 18       		.uleb128 0x18
 5560 01c7 00       		.byte	0
 5561 01c8 00       		.byte	0
 5562 01c9 21       		.uleb128 0x21
 5563 01ca 2E       		.uleb128 0x2e
 5564 01cb 01       		.byte	0x1
 5565 01cc 3F       		.uleb128 0x3f
 5566 01cd 19       		.uleb128 0x19
 5567 01ce 03       		.uleb128 0x3
 5568 01cf 0E       		.uleb128 0xe
ARM GAS  C:\Users\matij\AppData\Local\Temp\ccfrwtxb.s 			page 121


 5569 01d0 3A       		.uleb128 0x3a
 5570 01d1 0B       		.uleb128 0xb
 5571 01d2 3B       		.uleb128 0x3b
 5572 01d3 05       		.uleb128 0x5
 5573 01d4 27       		.uleb128 0x27
 5574 01d5 19       		.uleb128 0x19
 5575 01d6 11       		.uleb128 0x11
 5576 01d7 01       		.uleb128 0x1
 5577 01d8 12       		.uleb128 0x12
 5578 01d9 06       		.uleb128 0x6
 5579 01da 40       		.uleb128 0x40
 5580 01db 18       		.uleb128 0x18
 5581 01dc 9742     		.uleb128 0x2117
 5582 01de 19       		.uleb128 0x19
 5583 01df 01       		.uleb128 0x1
 5584 01e0 13       		.uleb128 0x13
 5585 01e1 00       		.byte	0
 5586 01e2 00       		.byte	0
 5587 01e3 22       		.uleb128 0x22
 5588 01e4 05       		.uleb128 0x5
 5589 01e5 00       		.byte	0
 5590 01e6 03       		.uleb128 0x3
 5591 01e7 08       		.uleb128 0x8
 5592 01e8 3A       		.uleb128 0x3a
 5593 01e9 0B       		.uleb128 0xb
 5594 01ea 3B       		.uleb128 0x3b
 5595 01eb 05       		.uleb128 0x5
 5596 01ec 49       		.uleb128 0x49
 5597 01ed 13       		.uleb128 0x13
 5598 01ee 02       		.uleb128 0x2
 5599 01ef 18       		.uleb128 0x18
 5600 01f0 00       		.byte	0
 5601 01f1 00       		.byte	0
 5602 01f2 23       		.uleb128 0x23
 5603 01f3 05       		.uleb128 0x5
 5604 01f4 00       		.byte	0
 5605 01f5 03       		.uleb128 0x3
 5606 01f6 0E       		.uleb128 0xe
 5607 01f7 3A       		.uleb128 0x3a
 5608 01f8 0B       		.uleb128 0xb
 5609 01f9 3B       		.uleb128 0x3b
 5610 01fa 05       		.uleb128 0x5
 5611 01fb 49       		.uleb128 0x49
 5612 01fc 13       		.uleb128 0x13
 5613 01fd 02       		.uleb128 0x2
 5614 01fe 18       		.uleb128 0x18
 5615 01ff 00       		.byte	0
 5616 0200 00       		.byte	0
 5617 0201 24       		.uleb128 0x24
 5618 0202 34       		.uleb128 0x34
 5619 0203 00       		.byte	0
 5620 0204 03       		.uleb128 0x3
 5621 0205 08       		.uleb128 0x8
 5622 0206 3A       		.uleb128 0x3a
 5623 0207 0B       		.uleb128 0xb
 5624 0208 3B       		.uleb128 0x3b
 5625 0209 05       		.uleb128 0x5
ARM GAS  C:\Users\matij\AppData\Local\Temp\ccfrwtxb.s 			page 122


 5626 020a 49       		.uleb128 0x49
 5627 020b 13       		.uleb128 0x13
 5628 020c 1C       		.uleb128 0x1c
 5629 020d 0B       		.uleb128 0xb
 5630 020e 00       		.byte	0
 5631 020f 00       		.byte	0
 5632 0210 25       		.uleb128 0x25
 5633 0211 34       		.uleb128 0x34
 5634 0212 00       		.byte	0
 5635 0213 03       		.uleb128 0x3
 5636 0214 08       		.uleb128 0x8
 5637 0215 3A       		.uleb128 0x3a
 5638 0216 0B       		.uleb128 0xb
 5639 0217 3B       		.uleb128 0x3b
 5640 0218 05       		.uleb128 0x5
 5641 0219 49       		.uleb128 0x49
 5642 021a 13       		.uleb128 0x13
 5643 021b 02       		.uleb128 0x2
 5644 021c 17       		.uleb128 0x17
 5645 021d 00       		.byte	0
 5646 021e 00       		.byte	0
 5647 021f 26       		.uleb128 0x26
 5648 0220 2E       		.uleb128 0x2e
 5649 0221 01       		.byte	0x1
 5650 0222 3F       		.uleb128 0x3f
 5651 0223 19       		.uleb128 0x19
 5652 0224 03       		.uleb128 0x3
 5653 0225 0E       		.uleb128 0xe
 5654 0226 3A       		.uleb128 0x3a
 5655 0227 0B       		.uleb128 0xb
 5656 0228 3B       		.uleb128 0x3b
 5657 0229 0B       		.uleb128 0xb
 5658 022a 27       		.uleb128 0x27
 5659 022b 19       		.uleb128 0x19
 5660 022c 11       		.uleb128 0x11
 5661 022d 01       		.uleb128 0x1
 5662 022e 12       		.uleb128 0x12
 5663 022f 06       		.uleb128 0x6
 5664 0230 40       		.uleb128 0x40
 5665 0231 18       		.uleb128 0x18
 5666 0232 9742     		.uleb128 0x2117
 5667 0234 19       		.uleb128 0x19
 5668 0235 01       		.uleb128 0x1
 5669 0236 13       		.uleb128 0x13
 5670 0237 00       		.byte	0
 5671 0238 00       		.byte	0
 5672 0239 27       		.uleb128 0x27
 5673 023a 34       		.uleb128 0x34
 5674 023b 00       		.byte	0
 5675 023c 03       		.uleb128 0x3
 5676 023d 0E       		.uleb128 0xe
 5677 023e 3A       		.uleb128 0x3a
 5678 023f 0B       		.uleb128 0xb
 5679 0240 3B       		.uleb128 0x3b
 5680 0241 0B       		.uleb128 0xb
 5681 0242 49       		.uleb128 0x49
 5682 0243 13       		.uleb128 0x13
ARM GAS  C:\Users\matij\AppData\Local\Temp\ccfrwtxb.s 			page 123


 5683 0244 3F       		.uleb128 0x3f
 5684 0245 19       		.uleb128 0x19
 5685 0246 3C       		.uleb128 0x3c
 5686 0247 19       		.uleb128 0x19
 5687 0248 00       		.byte	0
 5688 0249 00       		.byte	0
 5689 024a 28       		.uleb128 0x28
 5690 024b 1D       		.uleb128 0x1d
 5691 024c 01       		.byte	0x1
 5692 024d 31       		.uleb128 0x31
 5693 024e 13       		.uleb128 0x13
 5694 024f 11       		.uleb128 0x11
 5695 0250 01       		.uleb128 0x1
 5696 0251 12       		.uleb128 0x12
 5697 0252 06       		.uleb128 0x6
 5698 0253 58       		.uleb128 0x58
 5699 0254 0B       		.uleb128 0xb
 5700 0255 59       		.uleb128 0x59
 5701 0256 0B       		.uleb128 0xb
 5702 0257 01       		.uleb128 0x1
 5703 0258 13       		.uleb128 0x13
 5704 0259 00       		.byte	0
 5705 025a 00       		.byte	0
 5706 025b 29       		.uleb128 0x29
 5707 025c 05       		.uleb128 0x5
 5708 025d 00       		.byte	0
 5709 025e 31       		.uleb128 0x31
 5710 025f 13       		.uleb128 0x13
 5711 0260 02       		.uleb128 0x2
 5712 0261 17       		.uleb128 0x17
 5713 0262 00       		.byte	0
 5714 0263 00       		.byte	0
 5715 0264 2A       		.uleb128 0x2a
 5716 0265 0B       		.uleb128 0xb
 5717 0266 01       		.byte	0x1
 5718 0267 11       		.uleb128 0x11
 5719 0268 01       		.uleb128 0x1
 5720 0269 12       		.uleb128 0x12
 5721 026a 06       		.uleb128 0x6
 5722 026b 00       		.byte	0
 5723 026c 00       		.byte	0
 5724 026d 2B       		.uleb128 0x2b
 5725 026e 34       		.uleb128 0x34
 5726 026f 00       		.byte	0
 5727 0270 31       		.uleb128 0x31
 5728 0271 13       		.uleb128 0x13
 5729 0272 3C       		.uleb128 0x3c
 5730 0273 19       		.uleb128 0x19
 5731 0274 00       		.byte	0
 5732 0275 00       		.byte	0
 5733 0276 2C       		.uleb128 0x2c
 5734 0277 898201   		.uleb128 0x4109
 5735 027a 01       		.byte	0x1
 5736 027b 11       		.uleb128 0x11
 5737 027c 01       		.uleb128 0x1
 5738 027d 31       		.uleb128 0x31
 5739 027e 13       		.uleb128 0x13
ARM GAS  C:\Users\matij\AppData\Local\Temp\ccfrwtxb.s 			page 124


 5740 027f 01       		.uleb128 0x1
 5741 0280 13       		.uleb128 0x13
 5742 0281 00       		.byte	0
 5743 0282 00       		.byte	0
 5744 0283 2D       		.uleb128 0x2d
 5745 0284 8A8201   		.uleb128 0x410a
 5746 0287 00       		.byte	0
 5747 0288 02       		.uleb128 0x2
 5748 0289 18       		.uleb128 0x18
 5749 028a 9142     		.uleb128 0x2111
 5750 028c 18       		.uleb128 0x18
 5751 028d 00       		.byte	0
 5752 028e 00       		.byte	0
 5753 028f 2E       		.uleb128 0x2e
 5754 0290 898201   		.uleb128 0x4109
 5755 0293 01       		.byte	0x1
 5756 0294 11       		.uleb128 0x11
 5757 0295 01       		.uleb128 0x1
 5758 0296 31       		.uleb128 0x31
 5759 0297 13       		.uleb128 0x13
 5760 0298 00       		.byte	0
 5761 0299 00       		.byte	0
 5762 029a 2F       		.uleb128 0x2f
 5763 029b 05       		.uleb128 0x5
 5764 029c 00       		.byte	0
 5765 029d 03       		.uleb128 0x3
 5766 029e 08       		.uleb128 0x8
 5767 029f 3A       		.uleb128 0x3a
 5768 02a0 0B       		.uleb128 0xb
 5769 02a1 3B       		.uleb128 0x3b
 5770 02a2 05       		.uleb128 0x5
 5771 02a3 49       		.uleb128 0x49
 5772 02a4 13       		.uleb128 0x13
 5773 02a5 02       		.uleb128 0x2
 5774 02a6 17       		.uleb128 0x17
 5775 02a7 00       		.byte	0
 5776 02a8 00       		.byte	0
 5777 02a9 30       		.uleb128 0x30
 5778 02aa 898201   		.uleb128 0x4109
 5779 02ad 00       		.byte	0
 5780 02ae 11       		.uleb128 0x11
 5781 02af 01       		.uleb128 0x1
 5782 02b0 31       		.uleb128 0x31
 5783 02b1 13       		.uleb128 0x13
 5784 02b2 00       		.byte	0
 5785 02b3 00       		.byte	0
 5786 02b4 31       		.uleb128 0x31
 5787 02b5 898201   		.uleb128 0x4109
 5788 02b8 01       		.byte	0x1
 5789 02b9 11       		.uleb128 0x11
 5790 02ba 01       		.uleb128 0x1
 5791 02bb 9542     		.uleb128 0x2115
 5792 02bd 19       		.uleb128 0x19
 5793 02be 31       		.uleb128 0x31
 5794 02bf 13       		.uleb128 0x13
 5795 02c0 00       		.byte	0
 5796 02c1 00       		.byte	0
ARM GAS  C:\Users\matij\AppData\Local\Temp\ccfrwtxb.s 			page 125


 5797 02c2 32       		.uleb128 0x32
 5798 02c3 898201   		.uleb128 0x4109
 5799 02c6 00       		.byte	0
 5800 02c7 11       		.uleb128 0x11
 5801 02c8 01       		.uleb128 0x1
 5802 02c9 9542     		.uleb128 0x2115
 5803 02cb 19       		.uleb128 0x19
 5804 02cc 31       		.uleb128 0x31
 5805 02cd 13       		.uleb128 0x13
 5806 02ce 00       		.byte	0
 5807 02cf 00       		.byte	0
 5808 02d0 33       		.uleb128 0x33
 5809 02d1 2E       		.uleb128 0x2e
 5810 02d2 01       		.byte	0x1
 5811 02d3 31       		.uleb128 0x31
 5812 02d4 13       		.uleb128 0x13
 5813 02d5 11       		.uleb128 0x11
 5814 02d6 01       		.uleb128 0x1
 5815 02d7 12       		.uleb128 0x12
 5816 02d8 06       		.uleb128 0x6
 5817 02d9 40       		.uleb128 0x40
 5818 02da 18       		.uleb128 0x18
 5819 02db 01       		.uleb128 0x1
 5820 02dc 13       		.uleb128 0x13
 5821 02dd 00       		.byte	0
 5822 02de 00       		.byte	0
 5823 02df 34       		.uleb128 0x34
 5824 02e0 34       		.uleb128 0x34
 5825 02e1 00       		.byte	0
 5826 02e2 31       		.uleb128 0x31
 5827 02e3 13       		.uleb128 0x13
 5828 02e4 00       		.byte	0
 5829 02e5 00       		.byte	0
 5830 02e6 35       		.uleb128 0x35
 5831 02e7 0B       		.uleb128 0xb
 5832 02e8 01       		.byte	0x1
 5833 02e9 55       		.uleb128 0x55
 5834 02ea 17       		.uleb128 0x17
 5835 02eb 01       		.uleb128 0x1
 5836 02ec 13       		.uleb128 0x13
 5837 02ed 00       		.byte	0
 5838 02ee 00       		.byte	0
 5839 02ef 36       		.uleb128 0x36
 5840 02f0 2E       		.uleb128 0x2e
 5841 02f1 01       		.byte	0x1
 5842 02f2 3F       		.uleb128 0x3f
 5843 02f3 19       		.uleb128 0x19
 5844 02f4 03       		.uleb128 0x3
 5845 02f5 0E       		.uleb128 0xe
 5846 02f6 3A       		.uleb128 0x3a
 5847 02f7 0B       		.uleb128 0xb
 5848 02f8 3B       		.uleb128 0x3b
 5849 02f9 05       		.uleb128 0x5
 5850 02fa 27       		.uleb128 0x27
 5851 02fb 19       		.uleb128 0x19
 5852 02fc 11       		.uleb128 0x11
 5853 02fd 01       		.uleb128 0x1
ARM GAS  C:\Users\matij\AppData\Local\Temp\ccfrwtxb.s 			page 126


 5854 02fe 12       		.uleb128 0x12
 5855 02ff 06       		.uleb128 0x6
 5856 0300 40       		.uleb128 0x40
 5857 0301 18       		.uleb128 0x18
 5858 0302 9642     		.uleb128 0x2116
 5859 0304 19       		.uleb128 0x19
 5860 0305 01       		.uleb128 0x1
 5861 0306 13       		.uleb128 0x13
 5862 0307 00       		.byte	0
 5863 0308 00       		.byte	0
 5864 0309 37       		.uleb128 0x37
 5865 030a 2E       		.uleb128 0x2e
 5866 030b 01       		.byte	0x1
 5867 030c 3F       		.uleb128 0x3f
 5868 030d 19       		.uleb128 0x19
 5869 030e 03       		.uleb128 0x3
 5870 030f 08       		.uleb128 0x8
 5871 0310 3A       		.uleb128 0x3a
 5872 0311 0B       		.uleb128 0xb
 5873 0312 3B       		.uleb128 0x3b
 5874 0313 05       		.uleb128 0x5
 5875 0314 49       		.uleb128 0x49
 5876 0315 13       		.uleb128 0x13
 5877 0316 3C       		.uleb128 0x3c
 5878 0317 19       		.uleb128 0x19
 5879 0318 01       		.uleb128 0x1
 5880 0319 13       		.uleb128 0x13
 5881 031a 00       		.byte	0
 5882 031b 00       		.byte	0
 5883 031c 38       		.uleb128 0x38
 5884 031d 18       		.uleb128 0x18
 5885 031e 00       		.byte	0
 5886 031f 00       		.byte	0
 5887 0320 00       		.byte	0
 5888 0321 39       		.uleb128 0x39
 5889 0322 2E       		.uleb128 0x2e
 5890 0323 01       		.byte	0x1
 5891 0324 31       		.uleb128 0x31
 5892 0325 13       		.uleb128 0x13
 5893 0326 11       		.uleb128 0x11
 5894 0327 01       		.uleb128 0x1
 5895 0328 12       		.uleb128 0x12
 5896 0329 06       		.uleb128 0x6
 5897 032a 40       		.uleb128 0x40
 5898 032b 18       		.uleb128 0x18
 5899 032c 9642     		.uleb128 0x2116
 5900 032e 19       		.uleb128 0x19
 5901 032f 01       		.uleb128 0x1
 5902 0330 13       		.uleb128 0x13
 5903 0331 00       		.byte	0
 5904 0332 00       		.byte	0
 5905 0333 3A       		.uleb128 0x3a
 5906 0334 34       		.uleb128 0x34
 5907 0335 00       		.byte	0
 5908 0336 31       		.uleb128 0x31
 5909 0337 13       		.uleb128 0x13
 5910 0338 02       		.uleb128 0x2
ARM GAS  C:\Users\matij\AppData\Local\Temp\ccfrwtxb.s 			page 127


 5911 0339 17       		.uleb128 0x17
 5912 033a 00       		.byte	0
 5913 033b 00       		.byte	0
 5914 033c 3B       		.uleb128 0x3b
 5915 033d 34       		.uleb128 0x34
 5916 033e 00       		.byte	0
 5917 033f 31       		.uleb128 0x31
 5918 0340 13       		.uleb128 0x13
 5919 0341 02       		.uleb128 0x2
 5920 0342 18       		.uleb128 0x18
 5921 0343 00       		.byte	0
 5922 0344 00       		.byte	0
 5923 0345 3C       		.uleb128 0x3c
 5924 0346 34       		.uleb128 0x34
 5925 0347 00       		.byte	0
 5926 0348 03       		.uleb128 0x3
 5927 0349 08       		.uleb128 0x8
 5928 034a 3A       		.uleb128 0x3a
 5929 034b 0B       		.uleb128 0xb
 5930 034c 3B       		.uleb128 0x3b
 5931 034d 05       		.uleb128 0x5
 5932 034e 49       		.uleb128 0x49
 5933 034f 13       		.uleb128 0x13
 5934 0350 02       		.uleb128 0x2
 5935 0351 18       		.uleb128 0x18
 5936 0352 00       		.byte	0
 5937 0353 00       		.byte	0
 5938 0354 3D       		.uleb128 0x3d
 5939 0355 0B       		.uleb128 0xb
 5940 0356 01       		.byte	0x1
 5941 0357 11       		.uleb128 0x11
 5942 0358 01       		.uleb128 0x1
 5943 0359 12       		.uleb128 0x12
 5944 035a 06       		.uleb128 0x6
 5945 035b 01       		.uleb128 0x1
 5946 035c 13       		.uleb128 0x13
 5947 035d 00       		.byte	0
 5948 035e 00       		.byte	0
 5949 035f 3E       		.uleb128 0x3e
 5950 0360 2E       		.uleb128 0x2e
 5951 0361 01       		.byte	0x1
 5952 0362 31       		.uleb128 0x31
 5953 0363 13       		.uleb128 0x13
 5954 0364 11       		.uleb128 0x11
 5955 0365 01       		.uleb128 0x1
 5956 0366 12       		.uleb128 0x12
 5957 0367 06       		.uleb128 0x6
 5958 0368 40       		.uleb128 0x40
 5959 0369 18       		.uleb128 0x18
 5960 036a 9742     		.uleb128 0x2117
 5961 036c 19       		.uleb128 0x19
 5962 036d 01       		.uleb128 0x1
 5963 036e 13       		.uleb128 0x13
 5964 036f 00       		.byte	0
 5965 0370 00       		.byte	0
 5966 0371 3F       		.uleb128 0x3f
 5967 0372 34       		.uleb128 0x34
ARM GAS  C:\Users\matij\AppData\Local\Temp\ccfrwtxb.s 			page 128


 5968 0373 00       		.byte	0
 5969 0374 03       		.uleb128 0x3
 5970 0375 0E       		.uleb128 0xe
 5971 0376 3A       		.uleb128 0x3a
 5972 0377 0B       		.uleb128 0xb
 5973 0378 3B       		.uleb128 0x3b
 5974 0379 0B       		.uleb128 0xb
 5975 037a 49       		.uleb128 0x49
 5976 037b 13       		.uleb128 0x13
 5977 037c 1C       		.uleb128 0x1c
 5978 037d 03       		.uleb128 0x3
 5979 037e 00       		.byte	0
 5980 037f 00       		.byte	0
 5981 0380 40       		.uleb128 0x40
 5982 0381 34       		.uleb128 0x34
 5983 0382 00       		.byte	0
 5984 0383 03       		.uleb128 0x3
 5985 0384 0E       		.uleb128 0xe
 5986 0385 3A       		.uleb128 0x3a
 5987 0386 0B       		.uleb128 0xb
 5988 0387 3B       		.uleb128 0x3b
 5989 0388 0B       		.uleb128 0xb
 5990 0389 49       		.uleb128 0x49
 5991 038a 13       		.uleb128 0x13
 5992 038b 3F       		.uleb128 0x3f
 5993 038c 19       		.uleb128 0x19
 5994 038d 02       		.uleb128 0x2
 5995 038e 18       		.uleb128 0x18
 5996 038f 00       		.byte	0
 5997 0390 00       		.byte	0
 5998 0391 41       		.uleb128 0x41
 5999 0392 21       		.uleb128 0x21
 6000 0393 00       		.byte	0
 6001 0394 49       		.uleb128 0x49
 6002 0395 13       		.uleb128 0x13
 6003 0396 2F       		.uleb128 0x2f
 6004 0397 05       		.uleb128 0x5
 6005 0398 00       		.byte	0
 6006 0399 00       		.byte	0
 6007 039a 42       		.uleb128 0x42
 6008 039b 34       		.uleb128 0x34
 6009 039c 00       		.byte	0
 6010 039d 03       		.uleb128 0x3
 6011 039e 0E       		.uleb128 0xe
 6012 039f 3A       		.uleb128 0x3a
 6013 03a0 0B       		.uleb128 0xb
 6014 03a1 3B       		.uleb128 0x3b
 6015 03a2 05       		.uleb128 0x5
 6016 03a3 49       		.uleb128 0x49
 6017 03a4 13       		.uleb128 0x13
 6018 03a5 3F       		.uleb128 0x3f
 6019 03a6 19       		.uleb128 0x19
 6020 03a7 02       		.uleb128 0x2
 6021 03a8 18       		.uleb128 0x18
 6022 03a9 00       		.byte	0
 6023 03aa 00       		.byte	0
 6024 03ab 43       		.uleb128 0x43
ARM GAS  C:\Users\matij\AppData\Local\Temp\ccfrwtxb.s 			page 129


 6025 03ac 2E       		.uleb128 0x2e
 6026 03ad 00       		.byte	0
 6027 03ae 3F       		.uleb128 0x3f
 6028 03af 19       		.uleb128 0x19
 6029 03b0 3C       		.uleb128 0x3c
 6030 03b1 19       		.uleb128 0x19
 6031 03b2 6E       		.uleb128 0x6e
 6032 03b3 0E       		.uleb128 0xe
 6033 03b4 03       		.uleb128 0x3
 6034 03b5 0E       		.uleb128 0xe
 6035 03b6 3A       		.uleb128 0x3a
 6036 03b7 0B       		.uleb128 0xb
 6037 03b8 3B       		.uleb128 0x3b
 6038 03b9 0B       		.uleb128 0xb
 6039 03ba 00       		.byte	0
 6040 03bb 00       		.byte	0
 6041 03bc 44       		.uleb128 0x44
 6042 03bd 2E       		.uleb128 0x2e
 6043 03be 00       		.byte	0
 6044 03bf 3F       		.uleb128 0x3f
 6045 03c0 19       		.uleb128 0x19
 6046 03c1 3C       		.uleb128 0x3c
 6047 03c2 19       		.uleb128 0x19
 6048 03c3 6E       		.uleb128 0x6e
 6049 03c4 08       		.uleb128 0x8
 6050 03c5 03       		.uleb128 0x3
 6051 03c6 08       		.uleb128 0x8
 6052 03c7 3A       		.uleb128 0x3a
 6053 03c8 0B       		.uleb128 0xb
 6054 03c9 3B       		.uleb128 0x3b
 6055 03ca 05       		.uleb128 0x5
 6056 03cb 00       		.byte	0
 6057 03cc 00       		.byte	0
 6058 03cd 00       		.byte	0
 6059              		.section	.debug_loc,"",%progbits
 6060              	.Ldebug_loc0:
 6061              	.LLST0:
 6062 0000 00000000 		.4byte	.LVL0
 6063 0004 08000000 		.4byte	.LVL1
 6064 0008 0100     		.2byte	0x1
 6065 000a 50       		.byte	0x50
 6066 000b 08000000 		.4byte	.LVL1
 6067 000f 24000000 		.4byte	.LFE68
 6068 0013 0400     		.2byte	0x4
 6069 0015 F3       		.byte	0xf3
 6070 0016 01       		.uleb128 0x1
 6071 0017 50       		.byte	0x50
 6072 0018 9F       		.byte	0x9f
 6073 0019 00000000 		.4byte	0
 6074 001d 00000000 		.4byte	0
 6075              	.LLST1:
 6076 0021 14000000 		.4byte	.LVL2
 6077 0025 18000000 		.4byte	.LVL3
 6078 0029 0A00     		.2byte	0xa
 6079 002b 70       		.byte	0x70
 6080 002c 00       		.sleb128 0
 6081 002d 32       		.byte	0x32
ARM GAS  C:\Users\matij\AppData\Local\Temp\ccfrwtxb.s 			page 130


 6082 002e 24       		.byte	0x24
 6083 002f 03       		.byte	0x3
 6084 0030 00000000 		.4byte	StripLights_CLUT
 6085 0034 22       		.byte	0x22
 6086 0035 18000000 		.4byte	.LVL3
 6087 0039 24000000 		.4byte	.LFE68
 6088 003d 0E00     		.2byte	0xe
 6089 003f 03       		.byte	0x3
 6090 0040 00000000 		.4byte	colorIndex.7250
 6091 0044 06       		.byte	0x6
 6092 0045 32       		.byte	0x32
 6093 0046 24       		.byte	0x24
 6094 0047 03       		.byte	0x3
 6095 0048 00000000 		.4byte	StripLights_CLUT
 6096 004c 22       		.byte	0x22
 6097 004d 00000000 		.4byte	0
 6098 0051 00000000 		.4byte	0
 6099              	.LLST2:
 6100 0055 00000000 		.4byte	.LVL5
 6101 0059 04000000 		.4byte	.LVL6
 6102 005d 0200     		.2byte	0x2
 6103 005f 30       		.byte	0x30
 6104 0060 9F       		.byte	0x9f
 6105 0061 04000000 		.4byte	.LVL6
 6106 0065 18000000 		.4byte	.LFE73
 6107 0069 0100     		.2byte	0x1
 6108 006b 53       		.byte	0x53
 6109 006c 00000000 		.4byte	0
 6110 0070 00000000 		.4byte	0
 6111              	.LLST3:
 6112 0074 34000000 		.4byte	.LVL9
 6113 0078 40000000 		.4byte	.LVL10
 6114 007c 0200     		.2byte	0x2
 6115 007e 30       		.byte	0x30
 6116 007f 9F       		.byte	0x9f
 6117 0080 00000000 		.4byte	0
 6118 0084 00000000 		.4byte	0
 6119              	.LLST4:
 6120 0088 00000000 		.4byte	.LVL13
 6121 008c 08000000 		.4byte	.LVL14
 6122 0090 0100     		.2byte	0x1
 6123 0092 50       		.byte	0x50
 6124 0093 08000000 		.4byte	.LVL14
 6125 0097 1A000000 		.4byte	.LVL15
 6126 009b 0500     		.2byte	0x5
 6127 009d 70       		.byte	0x70
 6128 009e 00       		.sleb128 0
 6129 009f 40       		.byte	0x40
 6130 00a0 25       		.byte	0x25
 6131 00a1 9F       		.byte	0x9f
 6132 00a2 1A000000 		.4byte	.LVL15
 6133 00a6 1C000000 		.4byte	.LVL16
 6134 00aa 0600     		.2byte	0x6
 6135 00ac F3       		.byte	0xf3
 6136 00ad 01       		.uleb128 0x1
 6137 00ae 50       		.byte	0x50
 6138 00af 40       		.byte	0x40
ARM GAS  C:\Users\matij\AppData\Local\Temp\ccfrwtxb.s 			page 131


 6139 00b0 25       		.byte	0x25
 6140 00b1 9F       		.byte	0x9f
 6141 00b2 1C000000 		.4byte	.LVL16
 6142 00b6 28000000 		.4byte	.LFE74
 6143 00ba 0800     		.2byte	0x8
 6144 00bc F3       		.byte	0xf3
 6145 00bd 01       		.uleb128 0x1
 6146 00be 50       		.byte	0x50
 6147 00bf 40       		.byte	0x40
 6148 00c0 25       		.byte	0x25
 6149 00c1 38       		.byte	0x38
 6150 00c2 25       		.byte	0x25
 6151 00c3 9F       		.byte	0x9f
 6152 00c4 00000000 		.4byte	0
 6153 00c8 00000000 		.4byte	0
 6154              	.LLST5:
 6155 00cc 00000000 		.4byte	.LVL17
 6156 00d0 1A000000 		.4byte	.LVL19
 6157 00d4 0100     		.2byte	0x1
 6158 00d6 50       		.byte	0x50
 6159 00d7 1A000000 		.4byte	.LVL19
 6160 00db 44000000 		.4byte	.LFE65
 6161 00df 0400     		.2byte	0x4
 6162 00e1 F3       		.byte	0xf3
 6163 00e2 01       		.uleb128 0x1
 6164 00e3 50       		.byte	0x50
 6165 00e4 9F       		.byte	0x9f
 6166 00e5 00000000 		.4byte	0
 6167 00e9 00000000 		.4byte	0
 6168              	.LLST6:
 6169 00ed 0E000000 		.4byte	.LVL18
 6170 00f1 1D000000 		.4byte	.LVL20-1
 6171 00f5 1000     		.2byte	0x10
 6172 00f7 03       		.byte	0x3
 6173 00f8 00000000 		.4byte	StripLights_row
 6174 00fc 06       		.byte	0x6
 6175 00fd 0A       		.byte	0xa
 6176 00fe B004     		.2byte	0x4b0
 6177 0100 1E       		.byte	0x1e
 6178 0101 03       		.byte	0x3
 6179 0102 00000000 		.4byte	StripLights_ledArray
 6180 0106 22       		.byte	0x22
 6181 0107 00000000 		.4byte	0
 6182 010b 00000000 		.4byte	0
 6183              	.LLST7:
 6184 010f 00000000 		.4byte	.LVL21
 6185 0113 05000000 		.4byte	.LVL22-1
 6186 0117 0100     		.2byte	0x1
 6187 0119 50       		.byte	0x50
 6188 011a 05000000 		.4byte	.LVL22-1
 6189 011e 10000000 		.4byte	.LFE72
 6190 0122 0400     		.2byte	0x4
 6191 0124 F3       		.byte	0xf3
 6192 0125 01       		.uleb128 0x1
 6193 0126 50       		.byte	0x50
 6194 0127 9F       		.byte	0x9f
 6195 0128 00000000 		.4byte	0
ARM GAS  C:\Users\matij\AppData\Local\Temp\ccfrwtxb.s 			page 132


 6196 012c 00000000 		.4byte	0
 6197              	.LLST8:
 6198 0130 00000000 		.4byte	.LVL28
 6199 0134 11000000 		.4byte	.LVL29-1
 6200 0138 0100     		.2byte	0x1
 6201 013a 50       		.byte	0x50
 6202 013b 11000000 		.4byte	.LVL29-1
 6203 013f 06010000 		.4byte	.LVL55
 6204 0143 0100     		.2byte	0x1
 6205 0145 56       		.byte	0x56
 6206 0146 06010000 		.4byte	.LVL55
 6207 014a 14010000 		.4byte	.LFE75
 6208 014e 0600     		.2byte	0x6
 6209 0150 F3       		.byte	0xf3
 6210 0151 03       		.uleb128 0x3
 6211 0152 F5       		.byte	0xf5
 6212 0153 00       		.uleb128 0
 6213 0154 25       		.uleb128 0x25
 6214 0155 9F       		.byte	0x9f
 6215 0156 00000000 		.4byte	0
 6216 015a 00000000 		.4byte	0
 6217              	.LLST9:
 6218 015e 00000000 		.4byte	.LVL28
 6219 0162 11000000 		.4byte	.LVL29-1
 6220 0166 0100     		.2byte	0x1
 6221 0168 51       		.byte	0x51
 6222 0169 11000000 		.4byte	.LVL29-1
 6223 016d EC000000 		.4byte	.LVL52
 6224 0171 0100     		.2byte	0x1
 6225 0173 55       		.byte	0x55
 6226 0174 EC000000 		.4byte	.LVL52
 6227 0178 14010000 		.4byte	.LFE75
 6228 017c 0600     		.2byte	0x6
 6229 017e F3       		.byte	0xf3
 6230 017f 03       		.uleb128 0x3
 6231 0180 F5       		.byte	0xf5
 6232 0181 01       		.uleb128 0x1
 6233 0182 25       		.uleb128 0x25
 6234 0183 9F       		.byte	0x9f
 6235 0184 00000000 		.4byte	0
 6236 0188 00000000 		.4byte	0
 6237              	.LLST10:
 6238 018c 00000000 		.4byte	.LVL28
 6239 0190 11000000 		.4byte	.LVL29-1
 6240 0194 0100     		.2byte	0x1
 6241 0196 52       		.byte	0x52
 6242 0197 11000000 		.4byte	.LVL29-1
 6243 019b 06010000 		.4byte	.LVL55
 6244 019f 0100     		.2byte	0x1
 6245 01a1 57       		.byte	0x57
 6246 01a2 06010000 		.4byte	.LVL55
 6247 01a6 14010000 		.4byte	.LFE75
 6248 01aa 0600     		.2byte	0x6
 6249 01ac F3       		.byte	0xf3
 6250 01ad 03       		.uleb128 0x3
 6251 01ae F5       		.byte	0xf5
 6252 01af 02       		.uleb128 0x2
ARM GAS  C:\Users\matij\AppData\Local\Temp\ccfrwtxb.s 			page 133


 6253 01b0 25       		.uleb128 0x25
 6254 01b1 9F       		.byte	0x9f
 6255 01b2 00000000 		.4byte	0
 6256 01b6 00000000 		.4byte	0
 6257              	.LLST11:
 6258 01ba 00000000 		.4byte	.LVL28
 6259 01be 11000000 		.4byte	.LVL29-1
 6260 01c2 0100     		.2byte	0x1
 6261 01c4 53       		.byte	0x53
 6262 01c5 11000000 		.4byte	.LVL29-1
 6263 01c9 06010000 		.4byte	.LVL55
 6264 01cd 0100     		.2byte	0x1
 6265 01cf 54       		.byte	0x54
 6266 01d0 06010000 		.4byte	.LVL55
 6267 01d4 14010000 		.4byte	.LFE75
 6268 01d8 0400     		.2byte	0x4
 6269 01da F3       		.byte	0xf3
 6270 01db 01       		.uleb128 0x1
 6271 01dc 53       		.byte	0x53
 6272 01dd 9F       		.byte	0x9f
 6273 01de 00000000 		.4byte	0
 6274 01e2 00000000 		.4byte	0
 6275              	.LLST12:
 6276 01e6 00000000 		.4byte	.LVL28
 6277 01ea 06010000 		.4byte	.LVL55
 6278 01ee 0200     		.2byte	0x2
 6279 01f0 91       		.byte	0x91
 6280 01f1 00       		.sleb128 0
 6281 01f2 06010000 		.4byte	.LVL55
 6282 01f6 14010000 		.4byte	.LFE75
 6283 01fa 0200     		.2byte	0x2
 6284 01fc 7D       		.byte	0x7d
 6285 01fd 00       		.sleb128 0
 6286 01fe 00000000 		.4byte	0
 6287 0202 00000000 		.4byte	0
 6288              	.LLST13:
 6289 0206 00000000 		.4byte	.LVL28
 6290 020a 06010000 		.4byte	.LVL55
 6291 020e 0200     		.2byte	0x2
 6292 0210 91       		.byte	0x91
 6293 0211 04       		.sleb128 4
 6294 0212 06010000 		.4byte	.LVL55
 6295 0216 14010000 		.4byte	.LFE75
 6296 021a 0200     		.2byte	0x2
 6297 021c 7D       		.byte	0x7d
 6298 021d 04       		.sleb128 4
 6299 021e 00000000 		.4byte	0
 6300 0222 00000000 		.4byte	0
 6301              	.LLST14:
 6302 0226 4A000000 		.4byte	.LVL33
 6303 022a 50000000 		.4byte	.LVL34
 6304 022e 0700     		.2byte	0x7
 6305 0230 70       		.byte	0x70
 6306 0231 00       		.sleb128 0
 6307 0232 F7       		.byte	0xf7
 6308 0233 2C       		.uleb128 0x2c
 6309 0234 F7       		.byte	0xf7
ARM GAS  C:\Users\matij\AppData\Local\Temp\ccfrwtxb.s 			page 134


 6310 0235 25       		.uleb128 0x25
 6311 0236 9F       		.byte	0x9f
 6312 0237 50000000 		.4byte	.LVL34
 6313 023b 06010000 		.4byte	.LVL55
 6314 023f 0800     		.2byte	0x8
 6315 0241 91       		.byte	0x91
 6316 0242 54       		.sleb128 -44
 6317 0243 06       		.byte	0x6
 6318 0244 F7       		.byte	0xf7
 6319 0245 2C       		.uleb128 0x2c
 6320 0246 F7       		.byte	0xf7
 6321 0247 25       		.uleb128 0x25
 6322 0248 9F       		.byte	0x9f
 6323 0249 06010000 		.4byte	.LVL55
 6324 024d 14010000 		.4byte	.LFE75
 6325 0251 0800     		.2byte	0x8
 6326 0253 7D       		.byte	0x7d
 6327 0254 54       		.sleb128 -44
 6328 0255 06       		.byte	0x6
 6329 0256 F7       		.byte	0xf7
 6330 0257 2C       		.uleb128 0x2c
 6331 0258 F7       		.byte	0xf7
 6332 0259 25       		.uleb128 0x25
 6333 025a 9F       		.byte	0x9f
 6334 025b 00000000 		.4byte	0
 6335 025f 00000000 		.4byte	0
 6336              	.LLST15:
 6337 0263 64000000 		.4byte	.LVL37
 6338 0267 67000000 		.4byte	.LVL38-1
 6339 026b 0100     		.2byte	0x1
 6340 026d 50       		.byte	0x50
 6341 026e 67000000 		.4byte	.LVL38-1
 6342 0272 06010000 		.4byte	.LVL55
 6343 0276 0100     		.2byte	0x1
 6344 0278 58       		.byte	0x58
 6345 0279 00000000 		.4byte	0
 6346 027d 00000000 		.4byte	0
 6347              	.LLST16:
 6348 0281 64000000 		.4byte	.LVL37
 6349 0285 67000000 		.4byte	.LVL38-1
 6350 0289 0C00     		.2byte	0xc
 6351 028b F5       		.byte	0xf5
 6352 028c 00       		.uleb128 0
 6353 028d 25       		.uleb128 0x25
 6354 028e 91       		.byte	0x91
 6355 028f 54       		.sleb128 -44
 6356 0290 06       		.byte	0x6
 6357 0291 F7       		.byte	0xf7
 6358 0292 2C       		.uleb128 0x2c
 6359 0293 F7       		.byte	0xf7
 6360 0294 25       		.uleb128 0x25
 6361 0295 1C       		.byte	0x1c
 6362 0296 9F       		.byte	0x9f
 6363 0297 67000000 		.4byte	.LVL38-1
 6364 029b 06010000 		.4byte	.LVL55
 6365 029f 0C00     		.2byte	0xc
 6366 02a1 F5       		.byte	0xf5
ARM GAS  C:\Users\matij\AppData\Local\Temp\ccfrwtxb.s 			page 135


 6367 02a2 08       		.uleb128 0x8
 6368 02a3 25       		.uleb128 0x25
 6369 02a4 91       		.byte	0x91
 6370 02a5 54       		.sleb128 -44
 6371 02a6 06       		.byte	0x6
 6372 02a7 F7       		.byte	0xf7
 6373 02a8 2C       		.uleb128 0x2c
 6374 02a9 F7       		.byte	0xf7
 6375 02aa 25       		.uleb128 0x25
 6376 02ab 1C       		.byte	0x1c
 6377 02ac 9F       		.byte	0x9f
 6378 02ad 00000000 		.4byte	0
 6379 02b1 00000000 		.4byte	0
 6380              	.LLST17:
 6381 02b5 00000000 		.4byte	.LVL56
 6382 02b9 0A000000 		.4byte	.LVL57
 6383 02bd 0100     		.2byte	0x1
 6384 02bf 50       		.byte	0x50
 6385 02c0 0A000000 		.4byte	.LVL57
 6386 02c4 E0000000 		.4byte	.LVL85
 6387 02c8 0100     		.2byte	0x1
 6388 02ca 57       		.byte	0x57
 6389 02cb E0000000 		.4byte	.LVL85
 6390 02cf E4000000 		.4byte	.LFE76
 6391 02d3 0400     		.2byte	0x4
 6392 02d5 F3       		.byte	0xf3
 6393 02d6 01       		.uleb128 0x1
 6394 02d7 50       		.byte	0x50
 6395 02d8 9F       		.byte	0x9f
 6396 02d9 00000000 		.4byte	0
 6397 02dd 00000000 		.4byte	0
 6398              	.LLST18:
 6399 02e1 00000000 		.4byte	.LVL56
 6400 02e5 0C000000 		.4byte	.LVL58
 6401 02e9 0100     		.2byte	0x1
 6402 02eb 51       		.byte	0x51
 6403 02ec 0C000000 		.4byte	.LVL58
 6404 02f0 E0000000 		.4byte	.LVL85
 6405 02f4 0100     		.2byte	0x1
 6406 02f6 56       		.byte	0x56
 6407 02f7 E0000000 		.4byte	.LVL85
 6408 02fb E4000000 		.4byte	.LFE76
 6409 02ff 0400     		.2byte	0x4
 6410 0301 F3       		.byte	0xf3
 6411 0302 01       		.uleb128 0x1
 6412 0303 51       		.byte	0x51
 6413 0304 9F       		.byte	0x9f
 6414 0305 00000000 		.4byte	0
 6415 0309 00000000 		.4byte	0
 6416              	.LLST19:
 6417 030d 00000000 		.4byte	.LVL56
 6418 0311 15000000 		.4byte	.LVL59-1
 6419 0315 0100     		.2byte	0x1
 6420 0317 52       		.byte	0x52
 6421 0318 15000000 		.4byte	.LVL59-1
 6422 031c E0000000 		.4byte	.LVL85
 6423 0320 0100     		.2byte	0x1
ARM GAS  C:\Users\matij\AppData\Local\Temp\ccfrwtxb.s 			page 136


 6424 0322 55       		.byte	0x55
 6425 0323 E0000000 		.4byte	.LVL85
 6426 0327 E4000000 		.4byte	.LFE76
 6427 032b 0400     		.2byte	0x4
 6428 032d F3       		.byte	0xf3
 6429 032e 01       		.uleb128 0x1
 6430 032f 52       		.byte	0x52
 6431 0330 9F       		.byte	0x9f
 6432 0331 00000000 		.4byte	0
 6433 0335 00000000 		.4byte	0
 6434              	.LLST20:
 6435 0339 00000000 		.4byte	.LVL56
 6436 033d 15000000 		.4byte	.LVL59-1
 6437 0341 0100     		.2byte	0x1
 6438 0343 53       		.byte	0x53
 6439 0344 15000000 		.4byte	.LVL59-1
 6440 0348 2C000000 		.4byte	.LVL62
 6441 034c 0100     		.2byte	0x1
 6442 034e 58       		.byte	0x58
 6443 034f 2C000000 		.4byte	.LVL62
 6444 0353 E4000000 		.4byte	.LFE76
 6445 0357 0600     		.2byte	0x6
 6446 0359 F3       		.byte	0xf3
 6447 035a 03       		.uleb128 0x3
 6448 035b F5       		.byte	0xf5
 6449 035c 03       		.uleb128 0x3
 6450 035d 25       		.uleb128 0x25
 6451 035e 9F       		.byte	0x9f
 6452 035f 00000000 		.4byte	0
 6453 0363 00000000 		.4byte	0
 6454              	.LLST21:
 6455 0367 00000000 		.4byte	.LVL56
 6456 036b 22000000 		.4byte	.LVL60
 6457 036f 0200     		.2byte	0x2
 6458 0371 91       		.byte	0x91
 6459 0372 00       		.sleb128 0
 6460 0373 22000000 		.4byte	.LVL60
 6461 0377 E0000000 		.4byte	.LVL85
 6462 037b 0200     		.2byte	0x2
 6463 037d 91       		.byte	0x91
 6464 037e 00       		.sleb128 0
 6465 037f E0000000 		.4byte	.LVL85
 6466 0383 E4000000 		.4byte	.LFE76
 6467 0387 0200     		.2byte	0x2
 6468 0389 7D       		.byte	0x7d
 6469 038a 00       		.sleb128 0
 6470 038b 00000000 		.4byte	0
 6471 038f 00000000 		.4byte	0
 6472              	.LLST22:
 6473 0393 00000000 		.4byte	.LVL56
 6474 0397 22000000 		.4byte	.LVL60
 6475 039b 0200     		.2byte	0x2
 6476 039d 91       		.byte	0x91
 6477 039e 04       		.sleb128 4
 6478 039f 22000000 		.4byte	.LVL60
 6479 03a3 E0000000 		.4byte	.LVL85
 6480 03a7 0200     		.2byte	0x2
ARM GAS  C:\Users\matij\AppData\Local\Temp\ccfrwtxb.s 			page 137


 6481 03a9 91       		.byte	0x91
 6482 03aa 04       		.sleb128 4
 6483 03ab E0000000 		.4byte	.LVL85
 6484 03af E4000000 		.4byte	.LFE76
 6485 03b3 0200     		.2byte	0x2
 6486 03b5 7D       		.byte	0x7d
 6487 03b6 04       		.sleb128 4
 6488 03b7 00000000 		.4byte	0
 6489 03bb 00000000 		.4byte	0
 6490              	.LLST23:
 6491 03bf 22000000 		.4byte	.LVL60
 6492 03c3 E0000000 		.4byte	.LVL85
 6493 03c7 0100     		.2byte	0x1
 6494 03c9 54       		.byte	0x54
 6495 03ca E0000000 		.4byte	.LVL85
 6496 03ce E4000000 		.4byte	.LFE76
 6497 03d2 0200     		.2byte	0x2
 6498 03d4 7D       		.byte	0x7d
 6499 03d5 04       		.sleb128 4
 6500 03d6 00000000 		.4byte	0
 6501 03da 00000000 		.4byte	0
 6502              	.LLST24:
 6503 03de 22000000 		.4byte	.LVL60
 6504 03e2 E0000000 		.4byte	.LVL85
 6505 03e6 0200     		.2byte	0x2
 6506 03e8 91       		.byte	0x91
 6507 03e9 00       		.sleb128 0
 6508 03ea E0000000 		.4byte	.LVL85
 6509 03ee E4000000 		.4byte	.LFE76
 6510 03f2 0200     		.2byte	0x2
 6511 03f4 7D       		.byte	0x7d
 6512 03f5 00       		.sleb128 0
 6513 03f6 00000000 		.4byte	0
 6514 03fa 00000000 		.4byte	0
 6515              	.LLST25:
 6516 03fe 22000000 		.4byte	.LVL60
 6517 0402 2C000000 		.4byte	.LVL62
 6518 0406 0100     		.2byte	0x1
 6519 0408 58       		.byte	0x58
 6520 0409 2C000000 		.4byte	.LVL62
 6521 040d 2F000000 		.4byte	.LVL63-1
 6522 0411 0100     		.2byte	0x1
 6523 0413 50       		.byte	0x50
 6524 0414 2F000000 		.4byte	.LVL63-1
 6525 0418 54000000 		.4byte	.LVL71
 6526 041c 0100     		.2byte	0x1
 6527 041e 58       		.byte	0x58
 6528 041f 00000000 		.4byte	0
 6529 0423 00000000 		.4byte	0
 6530              	.LLST26:
 6531 0427 22000000 		.4byte	.LVL60
 6532 042b E0000000 		.4byte	.LVL85
 6533 042f 0100     		.2byte	0x1
 6534 0431 55       		.byte	0x55
 6535 0432 E0000000 		.4byte	.LVL85
 6536 0436 E4000000 		.4byte	.LFE76
 6537 043a 0400     		.2byte	0x4
ARM GAS  C:\Users\matij\AppData\Local\Temp\ccfrwtxb.s 			page 138


 6538 043c F3       		.byte	0xf3
 6539 043d 01       		.uleb128 0x1
 6540 043e 52       		.byte	0x52
 6541 043f 9F       		.byte	0x9f
 6542 0440 00000000 		.4byte	0
 6543 0444 00000000 		.4byte	0
 6544              	.LLST27:
 6545 0448 22000000 		.4byte	.LVL60
 6546 044c E0000000 		.4byte	.LVL85
 6547 0450 0100     		.2byte	0x1
 6548 0452 56       		.byte	0x56
 6549 0453 E0000000 		.4byte	.LVL85
 6550 0457 E4000000 		.4byte	.LFE76
 6551 045b 0400     		.2byte	0x4
 6552 045d F3       		.byte	0xf3
 6553 045e 01       		.uleb128 0x1
 6554 045f 51       		.byte	0x51
 6555 0460 9F       		.byte	0x9f
 6556 0461 00000000 		.4byte	0
 6557 0465 00000000 		.4byte	0
 6558              	.LLST28:
 6559 0469 22000000 		.4byte	.LVL60
 6560 046d E0000000 		.4byte	.LVL85
 6561 0471 0100     		.2byte	0x1
 6562 0473 57       		.byte	0x57
 6563 0474 E0000000 		.4byte	.LVL85
 6564 0478 E4000000 		.4byte	.LFE76
 6565 047c 0400     		.2byte	0x4
 6566 047e F3       		.byte	0xf3
 6567 047f 01       		.uleb128 0x1
 6568 0480 50       		.byte	0x50
 6569 0481 9F       		.byte	0x9f
 6570 0482 00000000 		.4byte	0
 6571 0486 00000000 		.4byte	0
 6572              	.LLST29:
 6573 048a 32000000 		.4byte	.LVL64
 6574 048e 35000000 		.4byte	.LVL65-1
 6575 0492 0100     		.2byte	0x1
 6576 0494 50       		.byte	0x50
 6577 0495 35000000 		.4byte	.LVL65-1
 6578 0499 E0000000 		.4byte	.LVL85
 6579 049d 0100     		.2byte	0x1
 6580 049f 5A       		.byte	0x5a
 6581 04a0 00000000 		.4byte	0
 6582 04a4 00000000 		.4byte	0
 6583              	.LLST30:
 6584 04a8 42000000 		.4byte	.LVL67
 6585 04ac 46000000 		.4byte	.LVL68
 6586 04b0 0100     		.2byte	0x1
 6587 04b2 50       		.byte	0x50
 6588 04b3 46000000 		.4byte	.LVL68
 6589 04b7 E0000000 		.4byte	.LVL85
 6590 04bb 0100     		.2byte	0x1
 6591 04bd 5B       		.byte	0x5b
 6592 04be 00000000 		.4byte	0
 6593 04c2 00000000 		.4byte	0
 6594              	.LLST31:
ARM GAS  C:\Users\matij\AppData\Local\Temp\ccfrwtxb.s 			page 139


 6595 04c6 54000000 		.4byte	.LVL71
 6596 04ca 56000000 		.4byte	.LVL72
 6597 04ce 0100     		.2byte	0x1
 6598 04d0 50       		.byte	0x50
 6599 04d1 56000000 		.4byte	.LVL72
 6600 04d5 E0000000 		.4byte	.LVL85
 6601 04d9 0100     		.2byte	0x1
 6602 04db 58       		.byte	0x58
 6603 04dc 00000000 		.4byte	0
 6604 04e0 00000000 		.4byte	0
 6605              	.LLST32:
 6606 04e4 6E000000 		.4byte	.LVL76
 6607 04e8 72000000 		.4byte	.LVL77
 6608 04ec 0100     		.2byte	0x1
 6609 04ee 50       		.byte	0x50
 6610 04ef 72000000 		.4byte	.LVL77
 6611 04f3 E0000000 		.4byte	.LVL85
 6612 04f7 0100     		.2byte	0x1
 6613 04f9 59       		.byte	0x59
 6614 04fa E0000000 		.4byte	.LVL85
 6615 04fe E4000000 		.4byte	.LFE76
 6616 0502 0300     		.2byte	0x3
 6617 0504 F3       		.byte	0xf3
 6618 0505 01       		.uleb128 0x1
 6619 0506 52       		.byte	0x52
 6620 0507 00000000 		.4byte	0
 6621 050b 00000000 		.4byte	0
 6622              	.LLST33:
 6623 050f 00000000 		.4byte	.LVL87
 6624 0513 14000000 		.4byte	.LVL90
 6625 0517 0100     		.2byte	0x1
 6626 0519 50       		.byte	0x50
 6627 051a 14000000 		.4byte	.LVL90
 6628 051e 62000000 		.4byte	.LVL100
 6629 0522 0100     		.2byte	0x1
 6630 0524 55       		.byte	0x55
 6631 0525 62000000 		.4byte	.LVL100
 6632 0529 70000000 		.4byte	.LFE77
 6633 052d 0400     		.2byte	0x4
 6634 052f F3       		.byte	0xf3
 6635 0530 01       		.uleb128 0x1
 6636 0531 50       		.byte	0x50
 6637 0532 9F       		.byte	0x9f
 6638 0533 00000000 		.4byte	0
 6639 0537 00000000 		.4byte	0
 6640              	.LLST34:
 6641 053b 00000000 		.4byte	.LVL87
 6642 053f 08000000 		.4byte	.LVL88
 6643 0543 0100     		.2byte	0x1
 6644 0545 51       		.byte	0x51
 6645 0546 08000000 		.4byte	.LVL88
 6646 054a 62000000 		.4byte	.LVL100
 6647 054e 0100     		.2byte	0x1
 6648 0550 56       		.byte	0x56
 6649 0551 62000000 		.4byte	.LVL100
 6650 0555 70000000 		.4byte	.LFE77
 6651 0559 0400     		.2byte	0x4
ARM GAS  C:\Users\matij\AppData\Local\Temp\ccfrwtxb.s 			page 140


 6652 055b F3       		.byte	0xf3
 6653 055c 01       		.uleb128 0x1
 6654 055d 51       		.byte	0x51
 6655 055e 9F       		.byte	0x9f
 6656 055f 00000000 		.4byte	0
 6657 0563 00000000 		.4byte	0
 6658              	.LLST35:
 6659 0567 00000000 		.4byte	.LVL87
 6660 056b 16000000 		.4byte	.LVL91
 6661 056f 0100     		.2byte	0x1
 6662 0571 52       		.byte	0x52
 6663 0572 16000000 		.4byte	.LVL91
 6664 0576 19000000 		.4byte	.LVL92-1
 6665 057a 0100     		.2byte	0x1
 6666 057c 53       		.byte	0x53
 6667 057d 19000000 		.4byte	.LVL92-1
 6668 0581 70000000 		.4byte	.LFE77
 6669 0585 0600     		.2byte	0x6
 6670 0587 F3       		.byte	0xf3
 6671 0588 03       		.uleb128 0x3
 6672 0589 F5       		.byte	0xf5
 6673 058a 02       		.uleb128 0x2
 6674 058b 25       		.uleb128 0x25
 6675 058c 9F       		.byte	0x9f
 6676 058d 00000000 		.4byte	0
 6677 0591 00000000 		.4byte	0
 6678              	.LLST36:
 6679 0595 00000000 		.4byte	.LVL87
 6680 0599 12000000 		.4byte	.LVL89
 6681 059d 0100     		.2byte	0x1
 6682 059f 53       		.byte	0x53
 6683 05a0 12000000 		.4byte	.LVL89
 6684 05a4 19000000 		.4byte	.LVL92-1
 6685 05a8 0200     		.2byte	0x2
 6686 05aa 7D       		.byte	0x7d
 6687 05ab 00       		.sleb128 0
 6688 05ac 19000000 		.4byte	.LVL92-1
 6689 05b0 70000000 		.4byte	.LFE77
 6690 05b4 0600     		.2byte	0x6
 6691 05b6 F3       		.byte	0xf3
 6692 05b7 03       		.uleb128 0x3
 6693 05b8 F5       		.byte	0xf5
 6694 05b9 03       		.uleb128 0x3
 6695 05ba 25       		.uleb128 0x25
 6696 05bb 9F       		.byte	0x9f
 6697 05bc 00000000 		.4byte	0
 6698 05c0 00000000 		.4byte	0
 6699              	.LLST37:
 6700 05c4 00000000 		.4byte	.LVL87
 6701 05c8 62000000 		.4byte	.LVL100
 6702 05cc 0200     		.2byte	0x2
 6703 05ce 91       		.byte	0x91
 6704 05cf 00       		.sleb128 0
 6705 05d0 62000000 		.4byte	.LVL100
 6706 05d4 70000000 		.4byte	.LFE77
 6707 05d8 0200     		.2byte	0x2
 6708 05da 7D       		.byte	0x7d
ARM GAS  C:\Users\matij\AppData\Local\Temp\ccfrwtxb.s 			page 141


 6709 05db 00       		.sleb128 0
 6710 05dc 00000000 		.4byte	0
 6711 05e0 00000000 		.4byte	0
 6712              	.LLST38:
 6713 05e4 1A000000 		.4byte	.LVL92
 6714 05e8 21000000 		.4byte	.LVL93-1
 6715 05ec 4B00     		.2byte	0x4b
 6716 05ee 91       		.byte	0x91
 6717 05ef 5C       		.sleb128 -36
 6718 05f0 F6       		.byte	0xf6
 6719 05f1 04       		.byte	0x4
 6720 05f2 25       		.uleb128 0x25
 6721 05f3 F4       		.byte	0xf4
 6722 05f4 25       		.uleb128 0x25
 6723 05f5 04       		.byte	0x4
 6724 05f6 00007F43 		.4byte	0x437f0000
 6725 05fa 1E       		.byte	0x1e
 6726 05fb F7       		.byte	0xf7
 6727 05fc 2C       		.uleb128 0x2c
 6728 05fd F7       		.byte	0xf7
 6729 05fe 00       		.uleb128 0
 6730 05ff 03       		.byte	0x3
 6731 0600 00000000 		.4byte	StripLights_Red_Shift
 6732 0604 06       		.byte	0x6
 6733 0605 24       		.byte	0x24
 6734 0606 91       		.byte	0x91
 6735 0607 64       		.sleb128 -28
 6736 0608 F6       		.byte	0xf6
 6737 0609 04       		.byte	0x4
 6738 060a 25       		.uleb128 0x25
 6739 060b F4       		.byte	0xf4
 6740 060c 25       		.uleb128 0x25
 6741 060d 04       		.byte	0x4
 6742 060e 00007F43 		.4byte	0x437f0000
 6743 0612 1E       		.byte	0x1e
 6744 0613 F7       		.byte	0xf7
 6745 0614 2C       		.uleb128 0x2c
 6746 0615 F7       		.byte	0xf7
 6747 0616 00       		.uleb128 0
 6748 0617 03       		.byte	0x3
 6749 0618 00000000 		.4byte	StripLights_Blue_Shift
 6750 061c 06       		.byte	0x6
 6751 061d 24       		.byte	0x24
 6752 061e 21       		.byte	0x21
 6753 061f 91       		.byte	0x91
 6754 0620 60       		.sleb128 -32
 6755 0621 F6       		.byte	0xf6
 6756 0622 04       		.byte	0x4
 6757 0623 25       		.uleb128 0x25
 6758 0624 F4       		.byte	0xf4
 6759 0625 25       		.uleb128 0x25
 6760 0626 04       		.byte	0x4
 6761 0627 00007F43 		.4byte	0x437f0000
 6762 062b 1E       		.byte	0x1e
 6763 062c F7       		.byte	0xf7
 6764 062d 2C       		.uleb128 0x2c
 6765 062e F7       		.byte	0xf7
ARM GAS  C:\Users\matij\AppData\Local\Temp\ccfrwtxb.s 			page 142


 6766 062f 00       		.uleb128 0
 6767 0630 03       		.byte	0x3
 6768 0631 00000000 		.4byte	StripLights_Green_Shift
 6769 0635 06       		.byte	0x6
 6770 0636 24       		.byte	0x24
 6771 0637 21       		.byte	0x21
 6772 0638 9F       		.byte	0x9f
 6773 0639 00000000 		.4byte	0
 6774 063d 00000000 		.4byte	0
 6775              	.LLST39:
 6776 0641 00000000 		.4byte	.LVL101
 6777 0645 10000000 		.4byte	.LVL103
 6778 0649 0100     		.2byte	0x1
 6779 064b 50       		.byte	0x50
 6780 064c 10000000 		.4byte	.LVL103
 6781 0650 18000000 		.4byte	.LFE79
 6782 0654 0400     		.2byte	0x4
 6783 0656 F3       		.byte	0xf3
 6784 0657 01       		.uleb128 0x1
 6785 0658 50       		.byte	0x50
 6786 0659 9F       		.byte	0x9f
 6787 065a 00000000 		.4byte	0
 6788 065e 00000000 		.4byte	0
 6789              	.LLST40:
 6790 0662 00000000 		.4byte	.LVL104
 6791 0666 1F000000 		.4byte	.LVL110-1
 6792 066a 0100     		.2byte	0x1
 6793 066c 50       		.byte	0x50
 6794 066d 1F000000 		.4byte	.LVL110-1
 6795 0671 E2000000 		.4byte	.LFE80
 6796 0675 0100     		.2byte	0x1
 6797 0677 58       		.byte	0x58
 6798 0678 00000000 		.4byte	0
 6799 067c 00000000 		.4byte	0
 6800              	.LLST41:
 6801 0680 00000000 		.4byte	.LVL104
 6802 0684 12000000 		.4byte	.LVL106
 6803 0688 0100     		.2byte	0x1
 6804 068a 51       		.byte	0x51
 6805 068b 12000000 		.4byte	.LVL106
 6806 068f E2000000 		.4byte	.LFE80
 6807 0693 0100     		.2byte	0x1
 6808 0695 56       		.byte	0x56
 6809 0696 00000000 		.4byte	0
 6810 069a 00000000 		.4byte	0
 6811              	.LLST42:
 6812 069e 00000000 		.4byte	.LVL104
 6813 06a2 18000000 		.4byte	.LVL108
 6814 06a6 0100     		.2byte	0x1
 6815 06a8 52       		.byte	0x52
 6816 06a9 18000000 		.4byte	.LVL108
 6817 06ad 40000000 		.4byte	.LVL114
 6818 06b1 0100     		.2byte	0x1
 6819 06b3 54       		.byte	0x54
 6820 06b4 40000000 		.4byte	.LVL114
 6821 06b8 E2000000 		.4byte	.LFE80
 6822 06bc 0400     		.2byte	0x4
ARM GAS  C:\Users\matij\AppData\Local\Temp\ccfrwtxb.s 			page 143


 6823 06be F3       		.byte	0xf3
 6824 06bf 01       		.uleb128 0x1
 6825 06c0 52       		.byte	0x52
 6826 06c1 9F       		.byte	0x9f
 6827 06c2 00000000 		.4byte	0
 6828 06c6 00000000 		.4byte	0
 6829              	.LLST43:
 6830 06ca 00000000 		.4byte	.LVL104
 6831 06ce 0E000000 		.4byte	.LVL105
 6832 06d2 0100     		.2byte	0x1
 6833 06d4 53       		.byte	0x53
 6834 06d5 0E000000 		.4byte	.LVL105
 6835 06d9 E2000000 		.4byte	.LFE80
 6836 06dd 0100     		.2byte	0x1
 6837 06df 55       		.byte	0x55
 6838 06e0 00000000 		.4byte	0
 6839 06e4 00000000 		.4byte	0
 6840              	.LLST44:
 6841 06e8 16000000 		.4byte	.LVL107
 6842 06ec 40000000 		.4byte	.LVL114
 6843 06f0 0200     		.2byte	0x2
 6844 06f2 30       		.byte	0x30
 6845 06f3 9F       		.byte	0x9f
 6846 06f4 40000000 		.4byte	.LVL114
 6847 06f8 56000000 		.4byte	.LVL119
 6848 06fc 0900     		.2byte	0x9
 6849 06fe 77       		.byte	0x77
 6850 06ff FFFFFFFF 		.sleb128 2147483647
 6850      07
 6851 0704 31       		.byte	0x31
 6852 0705 24       		.byte	0x24
 6853 0706 9F       		.byte	0x9f
 6854 0707 56000000 		.4byte	.LVL119
 6855 070b 60000000 		.4byte	.LVL120
 6856 070f 0500     		.2byte	0x5
 6857 0711 77       		.byte	0x77
 6858 0712 00       		.sleb128 0
 6859 0713 31       		.byte	0x31
 6860 0714 24       		.byte	0x24
 6861 0715 9F       		.byte	0x9f
 6862 0716 60000000 		.4byte	.LVL120
 6863 071a 62000000 		.4byte	.LVL121
 6864 071e 0100     		.2byte	0x1
 6865 0720 53       		.byte	0x53
 6866 0721 62000000 		.4byte	.LVL121
 6867 0725 6D000000 		.4byte	.LVL123-1
 6868 0729 0300     		.2byte	0x3
 6869 072b 73       		.byte	0x73
 6870 072c 7F       		.sleb128 -1
 6871 072d 9F       		.byte	0x9f
 6872 072e 6D000000 		.4byte	.LVL123-1
 6873 0732 70000000 		.4byte	.LVL124
 6874 0736 0500     		.2byte	0x5
 6875 0738 77       		.byte	0x77
 6876 0739 00       		.sleb128 0
 6877 073a 31       		.byte	0x31
 6878 073b 24       		.byte	0x24
ARM GAS  C:\Users\matij\AppData\Local\Temp\ccfrwtxb.s 			page 144


 6879 073c 9F       		.byte	0x9f
 6880 073d 70000000 		.4byte	.LVL124
 6881 0741 74000000 		.4byte	.LVL125
 6882 0745 0100     		.2byte	0x1
 6883 0747 53       		.byte	0x53
 6884 0748 74000000 		.4byte	.LVL125
 6885 074c BE000000 		.4byte	.LVL131
 6886 0750 0500     		.2byte	0x5
 6887 0752 77       		.byte	0x77
 6888 0753 00       		.sleb128 0
 6889 0754 31       		.byte	0x31
 6890 0755 24       		.byte	0x24
 6891 0756 9F       		.byte	0x9f
 6892 0757 BE000000 		.4byte	.LVL131
 6893 075b C4000000 		.4byte	.LVL132
 6894 075f 0100     		.2byte	0x1
 6895 0761 53       		.byte	0x53
 6896 0762 C4000000 		.4byte	.LVL132
 6897 0766 DA000000 		.4byte	.LVL135
 6898 076a 0500     		.2byte	0x5
 6899 076c 77       		.byte	0x77
 6900 076d 00       		.sleb128 0
 6901 076e 31       		.byte	0x31
 6902 076f 24       		.byte	0x24
 6903 0770 9F       		.byte	0x9f
 6904 0771 DA000000 		.4byte	.LVL135
 6905 0775 DC000000 		.4byte	.LVL136
 6906 0779 0500     		.2byte	0x5
 6907 077b 77       		.byte	0x77
 6908 077c 7F       		.sleb128 -1
 6909 077d 31       		.byte	0x31
 6910 077e 24       		.byte	0x24
 6911 077f 9F       		.byte	0x9f
 6912 0780 DC000000 		.4byte	.LVL136
 6913 0784 E2000000 		.4byte	.LFE80
 6914 0788 0900     		.2byte	0x9
 6915 078a 77       		.byte	0x77
 6916 078b FFFFFFFF 		.sleb128 2147483647
 6916      07
 6917 0790 31       		.byte	0x31
 6918 0791 24       		.byte	0x24
 6919 0792 9F       		.byte	0x9f
 6920 0793 00000000 		.4byte	0
 6921 0797 00000000 		.4byte	0
 6922              	.LLST45:
 6923 079b 1C000000 		.4byte	.LVL109
 6924 079f 1F000000 		.4byte	.LVL110-1
 6925 07a3 0100     		.2byte	0x1
 6926 07a5 53       		.byte	0x53
 6927 07a6 1F000000 		.4byte	.LVL110-1
 6928 07aa 54000000 		.4byte	.LVL118
 6929 07ae 0200     		.2byte	0x2
 6930 07b0 7D       		.byte	0x7d
 6931 07b1 00       		.sleb128 0
 6932 07b2 54000000 		.4byte	.LVL118
 6933 07b6 56000000 		.4byte	.LVL119
 6934 07ba 0100     		.2byte	0x1
ARM GAS  C:\Users\matij\AppData\Local\Temp\ccfrwtxb.s 			page 145


 6935 07bc 53       		.byte	0x53
 6936 07bd 56000000 		.4byte	.LVL119
 6937 07c1 DE000000 		.4byte	.LVL137
 6938 07c5 0200     		.2byte	0x2
 6939 07c7 7D       		.byte	0x7d
 6940 07c8 00       		.sleb128 0
 6941 07c9 DE000000 		.4byte	.LVL137
 6942 07cd E2000000 		.4byte	.LFE80
 6943 07d1 0200     		.2byte	0x2
 6944 07d3 91       		.byte	0x91
 6945 07d4 50       		.sleb128 -48
 6946 07d5 00000000 		.4byte	0
 6947 07d9 00000000 		.4byte	0
 6948              	.LLST46:
 6949 07dd 1C000000 		.4byte	.LVL109
 6950 07e1 40000000 		.4byte	.LVL114
 6951 07e5 0200     		.2byte	0x2
 6952 07e7 30       		.byte	0x30
 6953 07e8 9F       		.byte	0x9f
 6954 07e9 40000000 		.4byte	.LVL114
 6955 07ed 42000000 		.4byte	.LVL115
 6956 07f1 0300     		.2byte	0x3
 6957 07f3 77       		.byte	0x77
 6958 07f4 7F       		.sleb128 -1
 6959 07f5 9F       		.byte	0x9f
 6960 07f6 42000000 		.4byte	.LVL115
 6961 07fa 4E000000 		.4byte	.LVL116
 6962 07fe 0100     		.2byte	0x1
 6963 0800 53       		.byte	0x53
 6964 0801 4E000000 		.4byte	.LVL116
 6965 0805 56000000 		.4byte	.LVL119
 6966 0809 0300     		.2byte	0x3
 6967 080b 77       		.byte	0x77
 6968 080c 7F       		.sleb128 -1
 6969 080d 9F       		.byte	0x9f
 6970 080e 56000000 		.4byte	.LVL119
 6971 0812 DA000000 		.4byte	.LVL135
 6972 0816 0100     		.2byte	0x1
 6973 0818 57       		.byte	0x57
 6974 0819 DA000000 		.4byte	.LVL135
 6975 081d DC000000 		.4byte	.LVL136
 6976 0821 0300     		.2byte	0x3
 6977 0823 77       		.byte	0x77
 6978 0824 7F       		.sleb128 -1
 6979 0825 9F       		.byte	0x9f
 6980 0826 DC000000 		.4byte	.LVL136
 6981 082a E2000000 		.4byte	.LFE80
 6982 082e 0100     		.2byte	0x1
 6983 0830 53       		.byte	0x53
 6984 0831 00000000 		.4byte	0
 6985 0835 00000000 		.4byte	0
 6986              	.LLST47:
 6987 0839 00000000 		.4byte	.LVL138
 6988 083d 3B000000 		.4byte	.LVL148-1
 6989 0841 0100     		.2byte	0x1
 6990 0843 50       		.byte	0x50
 6991 0844 3B000000 		.4byte	.LVL148-1
ARM GAS  C:\Users\matij\AppData\Local\Temp\ccfrwtxb.s 			page 146


 6992 0848 52000000 		.4byte	.LVL151
 6993 084c 0100     		.2byte	0x1
 6994 084e 57       		.byte	0x57
 6995 084f 58000000 		.4byte	.LVL152
 6996 0853 94000000 		.4byte	.LFE81
 6997 0857 0100     		.2byte	0x1
 6998 0859 57       		.byte	0x57
 6999 085a 00000000 		.4byte	0
 7000 085e 00000000 		.4byte	0
 7001              	.LLST48:
 7002 0862 00000000 		.4byte	.LVL138
 7003 0866 3B000000 		.4byte	.LVL148-1
 7004 086a 0100     		.2byte	0x1
 7005 086c 51       		.byte	0x51
 7006 086d 3B000000 		.4byte	.LVL148-1
 7007 0871 7C000000 		.4byte	.LVL158
 7008 0875 0100     		.2byte	0x1
 7009 0877 54       		.byte	0x54
 7010 0878 82000000 		.4byte	.LVL159
 7011 087c 94000000 		.4byte	.LFE81
 7012 0880 0100     		.2byte	0x1
 7013 0882 54       		.byte	0x54
 7014 0883 00000000 		.4byte	0
 7015 0887 00000000 		.4byte	0
 7016              	.LLST49:
 7017 088b 00000000 		.4byte	.LVL138
 7018 088f 28000000 		.4byte	.LVL146
 7019 0893 0100     		.2byte	0x1
 7020 0895 52       		.byte	0x52
 7021 0896 28000000 		.4byte	.LVL146
 7022 089a 6E000000 		.4byte	.LVL156
 7023 089e 0100     		.2byte	0x1
 7024 08a0 58       		.byte	0x58
 7025 08a1 6E000000 		.4byte	.LVL156
 7026 08a5 94000000 		.4byte	.LFE81
 7027 08a9 0400     		.2byte	0x4
 7028 08ab F3       		.byte	0xf3
 7029 08ac 01       		.uleb128 0x1
 7030 08ad 52       		.byte	0x52
 7031 08ae 9F       		.byte	0x9f
 7032 08af 00000000 		.4byte	0
 7033 08b3 00000000 		.4byte	0
 7034              	.LLST50:
 7035 08b7 00000000 		.4byte	.LVL138
 7036 08bb 3B000000 		.4byte	.LVL148-1
 7037 08bf 0100     		.2byte	0x1
 7038 08c1 53       		.byte	0x53
 7039 08c2 3B000000 		.4byte	.LVL148-1
 7040 08c6 44000000 		.4byte	.LVL149
 7041 08ca 0100     		.2byte	0x1
 7042 08cc 59       		.byte	0x59
 7043 08cd 44000000 		.4byte	.LVL149
 7044 08d1 6A000000 		.4byte	.LVL155
 7045 08d5 0400     		.2byte	0x4
 7046 08d7 F3       		.byte	0xf3
 7047 08d8 01       		.uleb128 0x1
 7048 08d9 53       		.byte	0x53
ARM GAS  C:\Users\matij\AppData\Local\Temp\ccfrwtxb.s 			page 147


 7049 08da 9F       		.byte	0x9f
 7050 08db 6A000000 		.4byte	.LVL155
 7051 08df 94000000 		.4byte	.LFE81
 7052 08e3 0100     		.2byte	0x1
 7053 08e5 59       		.byte	0x59
 7054 08e6 00000000 		.4byte	0
 7055 08ea 00000000 		.4byte	0
 7056              	.LLST51:
 7057 08ee 00000000 		.4byte	.LVL138
 7058 08f2 6A000000 		.4byte	.LVL155
 7059 08f6 0200     		.2byte	0x2
 7060 08f8 91       		.byte	0x91
 7061 08f9 00       		.sleb128 0
 7062 08fa 6A000000 		.4byte	.LVL155
 7063 08fe 94000000 		.4byte	.LFE81
 7064 0902 0200     		.2byte	0x2
 7065 0904 91       		.byte	0x91
 7066 0905 00       		.sleb128 0
 7067 0906 00000000 		.4byte	0
 7068 090a 00000000 		.4byte	0
 7069              	.LLST52:
 7070 090e 00000000 		.4byte	.LVL138
 7071 0912 06000000 		.4byte	.LVL139
 7072 0916 0600     		.2byte	0x6
 7073 0918 73       		.byte	0x73
 7074 0919 00       		.sleb128 0
 7075 091a 71       		.byte	0x71
 7076 091b 00       		.sleb128 0
 7077 091c 1C       		.byte	0x1c
 7078 091d 9F       		.byte	0x9f
 7079 091e 06000000 		.4byte	.LVL139
 7080 0922 22000000 		.4byte	.LVL144
 7081 0926 0100     		.2byte	0x1
 7082 0928 56       		.byte	0x56
 7083 0929 22000000 		.4byte	.LVL144
 7084 092d 32000000 		.4byte	.LVL147
 7085 0931 1700     		.2byte	0x17
 7086 0933 71       		.byte	0x71
 7087 0934 00       		.sleb128 0
 7088 0935 73       		.byte	0x73
 7089 0936 00       		.sleb128 0
 7090 0937 1C       		.byte	0x1c
 7091 0938 73       		.byte	0x73
 7092 0939 00       		.sleb128 0
 7093 093a 71       		.byte	0x71
 7094 093b 00       		.sleb128 0
 7095 093c 1C       		.byte	0x1c
 7096 093d 73       		.byte	0x73
 7097 093e 00       		.sleb128 0
 7098 093f 71       		.byte	0x71
 7099 0940 00       		.sleb128 0
 7100 0941 1C       		.byte	0x1c
 7101 0942 30       		.byte	0x30
 7102 0943 2D       		.byte	0x2d
 7103 0944 28       		.byte	0x28
 7104 0945 0100     		.2byte	0x1
 7105 0947 16       		.byte	0x16
ARM GAS  C:\Users\matij\AppData\Local\Temp\ccfrwtxb.s 			page 148


 7106 0948 13       		.byte	0x13
 7107 0949 9F       		.byte	0x9f
 7108 094a 32000000 		.4byte	.LVL147
 7109 094e 94000000 		.4byte	.LFE81
 7110 0952 0100     		.2byte	0x1
 7111 0954 56       		.byte	0x56
 7112 0955 00000000 		.4byte	0
 7113 0959 00000000 		.4byte	0
 7114              	.LLST53:
 7115 095d 0A000000 		.4byte	.LVL140
 7116 0961 26000000 		.4byte	.LVL145
 7117 0965 0100     		.2byte	0x1
 7118 0967 55       		.byte	0x55
 7119 0968 32000000 		.4byte	.LVL147
 7120 096c 94000000 		.4byte	.LFE81
 7121 0970 0100     		.2byte	0x1
 7122 0972 55       		.byte	0x55
 7123 0973 00000000 		.4byte	0
 7124 0977 00000000 		.4byte	0
 7125              	.LLST54:
 7126 097b 1C000000 		.4byte	.LVL143
 7127 097f 32000000 		.4byte	.LVL147
 7128 0983 0300     		.2byte	0x3
 7129 0985 09       		.byte	0x9
 7130 0986 FF       		.byte	0xff
 7131 0987 9F       		.byte	0x9f
 7132 0988 32000000 		.4byte	.LVL147
 7133 098c 94000000 		.4byte	.LFE81
 7134 0990 0100     		.2byte	0x1
 7135 0992 5A       		.byte	0x5a
 7136 0993 00000000 		.4byte	0
 7137 0997 00000000 		.4byte	0
 7138              	.LLST55:
 7139 099b 0E000000 		.4byte	.LVL141
 7140 099f 16000000 		.4byte	.LVL142
 7141 09a3 0300     		.2byte	0x3
 7142 09a5 09       		.byte	0x9
 7143 09a6 FF       		.byte	0xff
 7144 09a7 9F       		.byte	0x9f
 7145 09a8 16000000 		.4byte	.LVL142
 7146 09ac 94000000 		.4byte	.LFE81
 7147 09b0 0100     		.2byte	0x1
 7148 09b2 5B       		.byte	0x5b
 7149 09b3 00000000 		.4byte	0
 7150 09b7 00000000 		.4byte	0
 7151              	.LLST56:
 7152 09bb 44000000 		.4byte	.LVL149
 7153 09bf 6A000000 		.4byte	.LVL155
 7154 09c3 0100     		.2byte	0x1
 7155 09c5 59       		.byte	0x59
 7156 09c6 00000000 		.4byte	0
 7157 09ca 00000000 		.4byte	0
 7158              	.LLST57:
 7159 09ce 00000000 		.4byte	.LVL162
 7160 09d2 1E000000 		.4byte	.LVL165
 7161 09d6 0100     		.2byte	0x1
 7162 09d8 50       		.byte	0x50
ARM GAS  C:\Users\matij\AppData\Local\Temp\ccfrwtxb.s 			page 149


 7163 09d9 1E000000 		.4byte	.LVL165
 7164 09dd 3E000000 		.4byte	.LVL170
 7165 09e1 0100     		.2byte	0x1
 7166 09e3 54       		.byte	0x54
 7167 09e4 3E000000 		.4byte	.LVL170
 7168 09e8 45000000 		.4byte	.LVL171-1
 7169 09ec 0100     		.2byte	0x1
 7170 09ee 50       		.byte	0x50
 7171 09ef 45000000 		.4byte	.LVL171-1
 7172 09f3 72000000 		.4byte	.LVL174
 7173 09f7 0100     		.2byte	0x1
 7174 09f9 54       		.byte	0x54
 7175 09fa 72000000 		.4byte	.LVL174
 7176 09fe 76000000 		.4byte	.LVL175
 7177 0a02 0400     		.2byte	0x4
 7178 0a04 F3       		.byte	0xf3
 7179 0a05 01       		.uleb128 0x1
 7180 0a06 50       		.byte	0x50
 7181 0a07 9F       		.byte	0x9f
 7182 0a08 76000000 		.4byte	.LVL175
 7183 0a0c 7C000000 		.4byte	.LFE82
 7184 0a10 0100     		.2byte	0x1
 7185 0a12 54       		.byte	0x54
 7186 0a13 00000000 		.4byte	0
 7187 0a17 00000000 		.4byte	0
 7188              	.LLST58:
 7189 0a1b 00000000 		.4byte	.LVL162
 7190 0a1f 1E000000 		.4byte	.LVL165
 7191 0a23 0100     		.2byte	0x1
 7192 0a25 51       		.byte	0x51
 7193 0a26 1E000000 		.4byte	.LVL165
 7194 0a2a 3E000000 		.4byte	.LVL170
 7195 0a2e 0100     		.2byte	0x1
 7196 0a30 58       		.byte	0x58
 7197 0a31 3E000000 		.4byte	.LVL170
 7198 0a35 45000000 		.4byte	.LVL171-1
 7199 0a39 0100     		.2byte	0x1
 7200 0a3b 51       		.byte	0x51
 7201 0a3c 45000000 		.4byte	.LVL171-1
 7202 0a40 72000000 		.4byte	.LVL174
 7203 0a44 0100     		.2byte	0x1
 7204 0a46 58       		.byte	0x58
 7205 0a47 72000000 		.4byte	.LVL174
 7206 0a4b 75000000 		.4byte	.LVL175-1
 7207 0a4f 0100     		.2byte	0x1
 7208 0a51 51       		.byte	0x51
 7209 0a52 75000000 		.4byte	.LVL175-1
 7210 0a56 76000000 		.4byte	.LVL175
 7211 0a5a 0400     		.2byte	0x4
 7212 0a5c F3       		.byte	0xf3
 7213 0a5d 01       		.uleb128 0x1
 7214 0a5e 51       		.byte	0x51
 7215 0a5f 9F       		.byte	0x9f
 7216 0a60 76000000 		.4byte	.LVL175
 7217 0a64 7C000000 		.4byte	.LFE82
 7218 0a68 0100     		.2byte	0x1
 7219 0a6a 58       		.byte	0x58
ARM GAS  C:\Users\matij\AppData\Local\Temp\ccfrwtxb.s 			page 150


 7220 0a6b 00000000 		.4byte	0
 7221 0a6f 00000000 		.4byte	0
 7222              	.LLST59:
 7223 0a73 00000000 		.4byte	.LVL162
 7224 0a77 1E000000 		.4byte	.LVL165
 7225 0a7b 0100     		.2byte	0x1
 7226 0a7d 52       		.byte	0x52
 7227 0a7e 1E000000 		.4byte	.LVL165
 7228 0a82 3E000000 		.4byte	.LVL170
 7229 0a86 0100     		.2byte	0x1
 7230 0a88 55       		.byte	0x55
 7231 0a89 3E000000 		.4byte	.LVL170
 7232 0a8d 45000000 		.4byte	.LVL171-1
 7233 0a91 0100     		.2byte	0x1
 7234 0a93 52       		.byte	0x52
 7235 0a94 45000000 		.4byte	.LVL171-1
 7236 0a98 72000000 		.4byte	.LVL174
 7237 0a9c 0100     		.2byte	0x1
 7238 0a9e 55       		.byte	0x55
 7239 0a9f 72000000 		.4byte	.LVL174
 7240 0aa3 75000000 		.4byte	.LVL175-1
 7241 0aa7 0100     		.2byte	0x1
 7242 0aa9 50       		.byte	0x50
 7243 0aaa 75000000 		.4byte	.LVL175-1
 7244 0aae 76000000 		.4byte	.LVL175
 7245 0ab2 0400     		.2byte	0x4
 7246 0ab4 F3       		.byte	0xf3
 7247 0ab5 01       		.uleb128 0x1
 7248 0ab6 52       		.byte	0x52
 7249 0ab7 9F       		.byte	0x9f
 7250 0ab8 76000000 		.4byte	.LVL175
 7251 0abc 7C000000 		.4byte	.LFE82
 7252 0ac0 0100     		.2byte	0x1
 7253 0ac2 55       		.byte	0x55
 7254 0ac3 00000000 		.4byte	0
 7255 0ac7 00000000 		.4byte	0
 7256              	.LLST60:
 7257 0acb 00000000 		.4byte	.LVL162
 7258 0acf 08000000 		.4byte	.LVL163
 7259 0ad3 0100     		.2byte	0x1
 7260 0ad5 53       		.byte	0x53
 7261 0ad6 08000000 		.4byte	.LVL163
 7262 0ada 72000000 		.4byte	.LVL174
 7263 0ade 0100     		.2byte	0x1
 7264 0ae0 56       		.byte	0x56
 7265 0ae1 72000000 		.4byte	.LVL174
 7266 0ae5 75000000 		.4byte	.LVL175-1
 7267 0ae9 0100     		.2byte	0x1
 7268 0aeb 53       		.byte	0x53
 7269 0aec 75000000 		.4byte	.LVL175-1
 7270 0af0 76000000 		.4byte	.LVL175
 7271 0af4 0400     		.2byte	0x4
 7272 0af6 F3       		.byte	0xf3
 7273 0af7 01       		.uleb128 0x1
 7274 0af8 53       		.byte	0x53
 7275 0af9 9F       		.byte	0x9f
 7276 0afa 76000000 		.4byte	.LVL175
ARM GAS  C:\Users\matij\AppData\Local\Temp\ccfrwtxb.s 			page 151


 7277 0afe 7C000000 		.4byte	.LFE82
 7278 0b02 0100     		.2byte	0x1
 7279 0b04 56       		.byte	0x56
 7280 0b05 00000000 		.4byte	0
 7281 0b09 00000000 		.4byte	0
 7282              	.LLST61:
 7283 0b0d 00000000 		.4byte	.LVL162
 7284 0b11 72000000 		.4byte	.LVL174
 7285 0b15 0200     		.2byte	0x2
 7286 0b17 91       		.byte	0x91
 7287 0b18 00       		.sleb128 0
 7288 0b19 72000000 		.4byte	.LVL174
 7289 0b1d 76000000 		.4byte	.LVL175
 7290 0b21 0200     		.2byte	0x2
 7291 0b23 7D       		.byte	0x7d
 7292 0b24 00       		.sleb128 0
 7293 0b25 76000000 		.4byte	.LVL175
 7294 0b29 7C000000 		.4byte	.LFE82
 7295 0b2d 0200     		.2byte	0x2
 7296 0b2f 91       		.byte	0x91
 7297 0b30 00       		.sleb128 0
 7298 0b31 00000000 		.4byte	0
 7299 0b35 00000000 		.4byte	0
 7300              	.LLST62:
 7301 0b39 00000000 		.4byte	.LVL162
 7302 0b3d 72000000 		.4byte	.LVL174
 7303 0b41 0200     		.2byte	0x2
 7304 0b43 91       		.byte	0x91
 7305 0b44 04       		.sleb128 4
 7306 0b45 72000000 		.4byte	.LVL174
 7307 0b49 76000000 		.4byte	.LVL175
 7308 0b4d 0200     		.2byte	0x2
 7309 0b4f 7D       		.byte	0x7d
 7310 0b50 04       		.sleb128 4
 7311 0b51 76000000 		.4byte	.LVL175
 7312 0b55 7C000000 		.4byte	.LFE82
 7313 0b59 0200     		.2byte	0x2
 7314 0b5b 91       		.byte	0x91
 7315 0b5c 04       		.sleb128 4
 7316 0b5d 00000000 		.4byte	0
 7317 0b61 00000000 		.4byte	0
 7318              	.LLST63:
 7319 0b65 1A000000 		.4byte	.LVL164
 7320 0b69 3A000000 		.4byte	.LVL169
 7321 0b6d 0100     		.2byte	0x1
 7322 0b6f 59       		.byte	0x59
 7323 0b70 3A000000 		.4byte	.LVL169
 7324 0b74 3E000000 		.4byte	.LVL170
 7325 0b78 0300     		.2byte	0x3
 7326 0b7a 79       		.byte	0x79
 7327 0b7b 01       		.sleb128 1
 7328 0b7c 9F       		.byte	0x9f
 7329 0b7d 76000000 		.4byte	.LVL175
 7330 0b81 7C000000 		.4byte	.LFE82
 7331 0b85 0300     		.2byte	0x3
 7332 0b87 79       		.byte	0x79
 7333 0b88 01       		.sleb128 1
ARM GAS  C:\Users\matij\AppData\Local\Temp\ccfrwtxb.s 			page 152


 7334 0b89 9F       		.byte	0x9f
 7335 0b8a 00000000 		.4byte	0
 7336 0b8e 00000000 		.4byte	0
 7337              	.LLST64:
 7338 0b92 00000000 		.4byte	.LVL176
 7339 0b96 02000000 		.4byte	.LVL177
 7340 0b9a 0100     		.2byte	0x1
 7341 0b9c 50       		.byte	0x50
 7342 0b9d 02000000 		.4byte	.LVL177
 7343 0ba1 80000000 		.4byte	.LFE83
 7344 0ba5 0300     		.2byte	0x3
 7345 0ba7 70       		.byte	0x70
 7346 0ba8 01       		.sleb128 1
 7347 0ba9 9F       		.byte	0x9f
 7348 0baa 00000000 		.4byte	0
 7349 0bae 00000000 		.4byte	0
 7350              	.LLST65:
 7351 0bb2 00000000 		.4byte	.LVL178
 7352 0bb6 18000000 		.4byte	.LVL181
 7353 0bba 0100     		.2byte	0x1
 7354 0bbc 50       		.byte	0x50
 7355 0bbd 18000000 		.4byte	.LVL181
 7356 0bc1 50000000 		.4byte	.LVL190
 7357 0bc5 0100     		.2byte	0x1
 7358 0bc7 56       		.byte	0x56
 7359 0bc8 50000000 		.4byte	.LVL190
 7360 0bcc 54000000 		.4byte	.LVL191
 7361 0bd0 0400     		.2byte	0x4
 7362 0bd2 F3       		.byte	0xf3
 7363 0bd3 01       		.uleb128 0x1
 7364 0bd4 50       		.byte	0x50
 7365 0bd5 9F       		.byte	0x9f
 7366 0bd6 54000000 		.4byte	.LVL191
 7367 0bda 5A000000 		.4byte	.LFE84
 7368 0bde 0100     		.2byte	0x1
 7369 0be0 56       		.byte	0x56
 7370 0be1 00000000 		.4byte	0
 7371 0be5 00000000 		.4byte	0
 7372              	.LLST66:
 7373 0be9 00000000 		.4byte	.LVL178
 7374 0bed 18000000 		.4byte	.LVL181
 7375 0bf1 0100     		.2byte	0x1
 7376 0bf3 51       		.byte	0x51
 7377 0bf4 18000000 		.4byte	.LVL181
 7378 0bf8 5A000000 		.4byte	.LFE84
 7379 0bfc 0400     		.2byte	0x4
 7380 0bfe F3       		.byte	0xf3
 7381 0bff 01       		.uleb128 0x1
 7382 0c00 51       		.byte	0x51
 7383 0c01 9F       		.byte	0x9f
 7384 0c02 00000000 		.4byte	0
 7385 0c06 00000000 		.4byte	0
 7386              	.LLST67:
 7387 0c0a 00000000 		.4byte	.LVL178
 7388 0c0e 18000000 		.4byte	.LVL181
 7389 0c12 0100     		.2byte	0x1
 7390 0c14 52       		.byte	0x52
ARM GAS  C:\Users\matij\AppData\Local\Temp\ccfrwtxb.s 			page 153


 7391 0c15 18000000 		.4byte	.LVL181
 7392 0c19 50000000 		.4byte	.LVL190
 7393 0c1d 0100     		.2byte	0x1
 7394 0c1f 57       		.byte	0x57
 7395 0c20 50000000 		.4byte	.LVL190
 7396 0c24 54000000 		.4byte	.LVL191
 7397 0c28 0400     		.2byte	0x4
 7398 0c2a F3       		.byte	0xf3
 7399 0c2b 01       		.uleb128 0x1
 7400 0c2c 52       		.byte	0x52
 7401 0c2d 9F       		.byte	0x9f
 7402 0c2e 54000000 		.4byte	.LVL191
 7403 0c32 5A000000 		.4byte	.LFE84
 7404 0c36 0100     		.2byte	0x1
 7405 0c38 57       		.byte	0x57
 7406 0c39 00000000 		.4byte	0
 7407 0c3d 00000000 		.4byte	0
 7408              	.LLST68:
 7409 0c41 00000000 		.4byte	.LVL178
 7410 0c45 18000000 		.4byte	.LVL181
 7411 0c49 0100     		.2byte	0x1
 7412 0c4b 53       		.byte	0x53
 7413 0c4c 18000000 		.4byte	.LVL181
 7414 0c50 5A000000 		.4byte	.LFE84
 7415 0c54 0400     		.2byte	0x4
 7416 0c56 F3       		.byte	0xf3
 7417 0c57 01       		.uleb128 0x1
 7418 0c58 53       		.byte	0x53
 7419 0c59 9F       		.byte	0x9f
 7420 0c5a 00000000 		.4byte	0
 7421 0c5e 00000000 		.4byte	0
 7422              	.LLST69:
 7423 0c62 2C000000 		.4byte	.LVL182
 7424 0c66 3A000000 		.4byte	.LVL184
 7425 0c6a 0100     		.2byte	0x1
 7426 0c6c 54       		.byte	0x54
 7427 0c6d 3A000000 		.4byte	.LVL184
 7428 0c71 3D000000 		.4byte	.LVL185-1
 7429 0c75 0100     		.2byte	0x1
 7430 0c77 50       		.byte	0x50
 7431 0c78 3D000000 		.4byte	.LVL185-1
 7432 0c7c 40000000 		.4byte	.LVL186
 7433 0c80 0300     		.2byte	0x3
 7434 0c82 74       		.byte	0x74
 7435 0c83 7F       		.sleb128 -1
 7436 0c84 9F       		.byte	0x9f
 7437 0c85 40000000 		.4byte	.LVL186
 7438 0c89 46000000 		.4byte	.LVL189
 7439 0c8d 0100     		.2byte	0x1
 7440 0c8f 54       		.byte	0x54
 7441 0c90 00000000 		.4byte	0
 7442 0c94 00000000 		.4byte	0
 7443              	.LLST70:
 7444 0c98 16000000 		.4byte	.LVL180
 7445 0c9c 18000000 		.4byte	.LVL181
 7446 0ca0 0100     		.2byte	0x1
 7447 0ca2 51       		.byte	0x51
ARM GAS  C:\Users\matij\AppData\Local\Temp\ccfrwtxb.s 			page 154


 7448 0ca3 18000000 		.4byte	.LVL181
 7449 0ca7 50000000 		.4byte	.LVL190
 7450 0cab 0100     		.2byte	0x1
 7451 0cad 55       		.byte	0x55
 7452 0cae 54000000 		.4byte	.LVL191
 7453 0cb2 5A000000 		.4byte	.LFE84
 7454 0cb6 0100     		.2byte	0x1
 7455 0cb8 55       		.byte	0x55
 7456 0cb9 00000000 		.4byte	0
 7457 0cbd 00000000 		.4byte	0
 7458              	.LLST71:
 7459 0cc1 00000000 		.4byte	.LVL178
 7460 0cc5 14000000 		.4byte	.LVL179
 7461 0cc9 0200     		.2byte	0x2
 7462 0ccb 31       		.byte	0x31
 7463 0ccc 9F       		.byte	0x9f
 7464 0ccd 14000000 		.4byte	.LVL179
 7465 0cd1 18000000 		.4byte	.LVL181
 7466 0cd5 0200     		.2byte	0x2
 7467 0cd7 32       		.byte	0x32
 7468 0cd8 9F       		.byte	0x9f
 7469 0cd9 2C000000 		.4byte	.LVL182
 7470 0cdd 38000000 		.4byte	.LVL183
 7471 0ce1 0600     		.2byte	0x6
 7472 0ce3 7B       		.byte	0x7b
 7473 0ce4 00       		.sleb128 0
 7474 0ce5 74       		.byte	0x74
 7475 0ce6 00       		.sleb128 0
 7476 0ce7 22       		.byte	0x22
 7477 0ce8 9F       		.byte	0x9f
 7478 0ce9 42000000 		.4byte	.LVL187
 7479 0ced 46000000 		.4byte	.LVL189
 7480 0cf1 0600     		.2byte	0x6
 7481 0cf3 7B       		.byte	0x7b
 7482 0cf4 00       		.sleb128 0
 7483 0cf5 74       		.byte	0x74
 7484 0cf6 00       		.sleb128 0
 7485 0cf7 22       		.byte	0x22
 7486 0cf8 9F       		.byte	0x9f
 7487 0cf9 00000000 		.4byte	0
 7488 0cfd 00000000 		.4byte	0
 7489              	.LLST72:
 7490 0d01 14000000 		.4byte	.LVL179
 7491 0d05 50000000 		.4byte	.LVL190
 7492 0d09 0100     		.2byte	0x1
 7493 0d0b 58       		.byte	0x58
 7494 0d0c 54000000 		.4byte	.LVL191
 7495 0d10 5A000000 		.4byte	.LFE84
 7496 0d14 0100     		.2byte	0x1
 7497 0d16 58       		.byte	0x58
 7498 0d17 00000000 		.4byte	0
 7499 0d1b 00000000 		.4byte	0
 7500              	.LLST73:
 7501 0d1f 16000000 		.4byte	.LVL180
 7502 0d23 50000000 		.4byte	.LVL190
 7503 0d27 0100     		.2byte	0x1
 7504 0d29 59       		.byte	0x59
ARM GAS  C:\Users\matij\AppData\Local\Temp\ccfrwtxb.s 			page 155


 7505 0d2a 54000000 		.4byte	.LVL191
 7506 0d2e 5A000000 		.4byte	.LFE84
 7507 0d32 0100     		.2byte	0x1
 7508 0d34 59       		.byte	0x59
 7509 0d35 00000000 		.4byte	0
 7510 0d39 00000000 		.4byte	0
 7511              		.section	.debug_aranges,"",%progbits
 7512 0000 BC000000 		.4byte	0xbc
 7513 0004 0200     		.2byte	0x2
 7514 0006 00000000 		.4byte	.Ldebug_info0
 7515 000a 04       		.byte	0x4
 7516 000b 00       		.byte	0
 7517 000c 0000     		.2byte	0
 7518 000e 0000     		.2byte	0
 7519 0010 00000000 		.4byte	.LFB66
 7520 0014 18000000 		.4byte	.LFE66-.LFB66
 7521 0018 00000000 		.4byte	.LFB67
 7522 001c 0C000000 		.4byte	.LFE67-.LFB67
 7523 0020 00000000 		.4byte	.LFB68
 7524 0024 24000000 		.4byte	.LFE68-.LFB68
 7525 0028 00000000 		.4byte	.LFB69
 7526 002c 14000000 		.4byte	.LFE69-.LFB69
 7527 0030 00000000 		.4byte	.LFB73
 7528 0034 18000000 		.4byte	.LFE73-.LFB73
 7529 0038 00000000 		.4byte	.LFB64
 7530 003c 80000000 		.4byte	.LFE64-.LFB64
 7531 0040 00000000 		.4byte	.LFB74
 7532 0044 28000000 		.4byte	.LFE74-.LFB74
 7533 0048 00000000 		.4byte	.LFB65
 7534 004c 44000000 		.4byte	.LFE65-.LFB65
 7535 0050 00000000 		.4byte	.LFB72
 7536 0054 10000000 		.4byte	.LFE72-.LFB72
 7537 0058 00000000 		.4byte	.LFB70
 7538 005c 38000000 		.4byte	.LFE70-.LFB70
 7539 0060 00000000 		.4byte	.LFB71
 7540 0064 5C000000 		.4byte	.LFE71-.LFB71
 7541 0068 00000000 		.4byte	.LFB75
 7542 006c 14010000 		.4byte	.LFE75-.LFB75
 7543 0070 00000000 		.4byte	.LFB76
 7544 0074 E4000000 		.4byte	.LFE76-.LFB76
 7545 0078 00000000 		.4byte	.LFB78
 7546 007c 14000000 		.4byte	.LFE78-.LFB78
 7547 0080 00000000 		.4byte	.LFB77
 7548 0084 70000000 		.4byte	.LFE77-.LFB77
 7549 0088 00000000 		.4byte	.LFB79
 7550 008c 18000000 		.4byte	.LFE79-.LFB79
 7551 0090 00000000 		.4byte	.LFB80
 7552 0094 E2000000 		.4byte	.LFE80-.LFB80
 7553 0098 00000000 		.4byte	.LFB81
 7554 009c 94000000 		.4byte	.LFE81-.LFB81
 7555 00a0 00000000 		.4byte	.LFB82
 7556 00a4 7C000000 		.4byte	.LFE82-.LFB82
 7557 00a8 00000000 		.4byte	.LFB83
 7558 00ac 80000000 		.4byte	.LFE83-.LFB83
 7559 00b0 00000000 		.4byte	.LFB84
 7560 00b4 5A000000 		.4byte	.LFE84-.LFB84
 7561 00b8 00000000 		.4byte	0
ARM GAS  C:\Users\matij\AppData\Local\Temp\ccfrwtxb.s 			page 156


 7562 00bc 00000000 		.4byte	0
 7563              		.section	.debug_ranges,"",%progbits
 7564              	.Ldebug_ranges0:
 7565 0000 34000000 		.4byte	.LBB9
 7566 0004 3A000000 		.4byte	.LBE9
 7567 0008 3E000000 		.4byte	.LBB10
 7568 000c 5C000000 		.4byte	.LBE10
 7569 0010 00000000 		.4byte	0
 7570 0014 00000000 		.4byte	0
 7571 0018 00000000 		.4byte	.LFB66
 7572 001c 18000000 		.4byte	.LFE66
 7573 0020 00000000 		.4byte	.LFB67
 7574 0024 0C000000 		.4byte	.LFE67
 7575 0028 00000000 		.4byte	.LFB68
 7576 002c 24000000 		.4byte	.LFE68
 7577 0030 00000000 		.4byte	.LFB69
 7578 0034 14000000 		.4byte	.LFE69
 7579 0038 00000000 		.4byte	.LFB73
 7580 003c 18000000 		.4byte	.LFE73
 7581 0040 00000000 		.4byte	.LFB64
 7582 0044 80000000 		.4byte	.LFE64
 7583 0048 00000000 		.4byte	.LFB74
 7584 004c 28000000 		.4byte	.LFE74
 7585 0050 00000000 		.4byte	.LFB65
 7586 0054 44000000 		.4byte	.LFE65
 7587 0058 00000000 		.4byte	.LFB72
 7588 005c 10000000 		.4byte	.LFE72
 7589 0060 00000000 		.4byte	.LFB70
 7590 0064 38000000 		.4byte	.LFE70
 7591 0068 00000000 		.4byte	.LFB71
 7592 006c 5C000000 		.4byte	.LFE71
 7593 0070 00000000 		.4byte	.LFB75
 7594 0074 14010000 		.4byte	.LFE75
 7595 0078 00000000 		.4byte	.LFB76
 7596 007c E4000000 		.4byte	.LFE76
 7597 0080 00000000 		.4byte	.LFB78
 7598 0084 14000000 		.4byte	.LFE78
 7599 0088 00000000 		.4byte	.LFB77
 7600 008c 70000000 		.4byte	.LFE77
 7601 0090 00000000 		.4byte	.LFB79
 7602 0094 18000000 		.4byte	.LFE79
 7603 0098 00000000 		.4byte	.LFB80
 7604 009c E2000000 		.4byte	.LFE80
 7605 00a0 00000000 		.4byte	.LFB81
 7606 00a4 94000000 		.4byte	.LFE81
 7607 00a8 00000000 		.4byte	.LFB82
 7608 00ac 7C000000 		.4byte	.LFE82
 7609 00b0 00000000 		.4byte	.LFB83
 7610 00b4 80000000 		.4byte	.LFE83
 7611 00b8 00000000 		.4byte	.LFB84
 7612 00bc 5A000000 		.4byte	.LFE84
 7613 00c0 00000000 		.4byte	0
 7614 00c4 00000000 		.4byte	0
 7615              		.section	.debug_line,"",%progbits
 7616              	.Ldebug_line0:
 7617 0000 BC040000 		.section	.debug_str,"MS",%progbits,1
 7617      0200D801 
ARM GAS  C:\Users\matij\AppData\Local\Temp\ccfrwtxb.s 			page 157


 7617      00000201 
 7617      FB0E0D00 
 7617      01010101 
 7618              	.LASF48:
 7619 0000 506F7274 		.ascii	"PortHandle_s\000"
 7619      48616E64 
 7619      6C655F73 
 7619      00
 7620              	.LASF122:
 7621 000d 43794465 		.ascii	"CyDelay\000"
 7621      6C617900 
 7622              	.LASF47:
 7623 0015 42436F6D 		.ascii	"BCom_1_SerialOut\000"
 7623      5F315F53 
 7623      65726961 
 7623      6C4F7574 
 7623      00
 7624              	.LASF110:
 7625 0026 53797374 		.ascii	"System_u\000"
 7625      656D5F75 
 7625      00
 7626              	.LASF59:
 7627 002f 506F7274 		.ascii	"Ports\000"
 7627      7300
 7628              	.LASF14:
 7629 0035 756E7369 		.ascii	"unsigned int\000"
 7629      676E6564 
 7629      20696E74 
 7629      00
 7630              	.LASF50:
 7631 0042 6E657874 		.ascii	"next\000"
 7631      00
 7632              	.LASF114:
 7633 0047 53747269 		.ascii	"StripLights_row\000"
 7633      704C6967 
 7633      6874735F 
 7633      726F7700 
 7634              	.LASF61:
 7635 0057 53747269 		.ascii	"StripLights_DimMask\000"
 7635      704C6967 
 7635      6874735F 
 7635      44696D4D 
 7635      61736B00 
 7636              	.LASF8:
 7637 006b 5F5F696E 		.ascii	"__int32_t\000"
 7637      7433325F 
 7637      7400
 7638              	.LASF24:
 7639 0075 72656738 		.ascii	"reg8\000"
 7639      00
 7640              	.LASF30:
 7641 007a 456E6372 		.ascii	"Encrypted\000"
 7641      79707465 
 7641      6400
 7642              	.LASF34:
 7643 0084 53797374 		.ascii	"System_s\000"
 7643      656D5F73 
ARM GAS  C:\Users\matij\AppData\Local\Temp\ccfrwtxb.s 			page 158


 7643      00
 7644              	.LASF100:
 7645 008d 53747269 		.ascii	"StripLights_bplot\000"
 7645      704C6967 
 7645      6874735F 
 7645      62706C6F 
 7645      7400
 7646              	.LASF102:
 7647 009f 75706461 		.ascii	"update\000"
 7647      746500
 7648              	.LASF101:
 7649 00a6 6269744D 		.ascii	"bitMap\000"
 7649      617000
 7650              	.LASF77:
 7651 00ad 53747269 		.ascii	"StripLights_initvar\000"
 7651      704C6967 
 7651      6874735F 
 7651      696E6974 
 7651      76617200 
 7652              	.LASF70:
 7653 00c1 636F6C6F 		.ascii	"colorIndex\000"
 7653      72496E64 
 7653      657800
 7654              	.LASF67:
 7655 00cc 53747269 		.ascii	"StripLights_Dim\000"
 7655      704C6967 
 7655      6874735F 
 7655      44696D00 
 7656              	.LASF38:
 7657 00dc 4672616D 		.ascii	"FrameHeader_s\000"
 7657      65486561 
 7657      6465725F 
 7657      7300
 7658              	.LASF18:
 7659 00ea 75696E74 		.ascii	"uint32_t\000"
 7659      33325F74 
 7659      00
 7660              	.LASF43:
 7661 00f3 48656164 		.ascii	"Header\000"
 7661      657200
 7662              	.LASF81:
 7663 00fa 53747269 		.ascii	"StripLights_FISR\000"
 7663      704C6967 
 7663      6874735F 
 7663      46495352 
 7663      00
 7664              	.LASF95:
 7665 010b 73746570 		.ascii	"stepy\000"
 7665      7900
 7666              	.LASF0:
 7667 0111 666C6F61 		.ascii	"float\000"
 7667      7400
 7668              	.LASF35:
 7669 0117 50617261 		.ascii	"Parameter_s\000"
 7669      6D657465 
 7669      725F7300 
 7670              	.LASF106:
ARM GAS  C:\Users\matij\AppData\Local\Temp\ccfrwtxb.s 			page 159


 7671 0123 6372635F 		.ascii	"crc_tab16\000"
 7671      74616231 
 7671      3600
 7672              	.LASF22:
 7673 012d 696E7433 		.ascii	"int32\000"
 7673      3200
 7674              	.LASF13:
 7675 0133 6C6F6E67 		.ascii	"long long unsigned int\000"
 7675      206C6F6E 
 7675      6720756E 
 7675      7369676E 
 7675      65642069 
 7676              	.LASF88:
 7677 014a 53747269 		.ascii	"StripLights_GetPixel\000"
 7677      704C6967 
 7677      6874735F 
 7677      47657450 
 7677      6978656C 
 7678              	.LASF78:
 7679 015f 53747269 		.ascii	"StripLights_WriteColor\000"
 7679      704C6967 
 7679      6874735F 
 7679      57726974 
 7679      65436F6C 
 7680              	.LASF98:
 7681 0176 66696C6C 		.ascii	"fill\000"
 7681      00
 7682              	.LASF73:
 7683 017b 426C7565 		.ascii	"Blue\000"
 7683      00
 7684              	.LASF93:
 7685 0180 53747269 		.ascii	"StripLights_DrawLine\000"
 7685      704C6967 
 7685      6874735F 
 7685      44726177 
 7685      4C696E65 
 7686              	.LASF96:
 7687 0195 66726163 		.ascii	"fraction\000"
 7687      74696F6E 
 7687      00
 7688              	.LASF6:
 7689 019e 5F5F7569 		.ascii	"__uint16_t\000"
 7689      6E743136 
 7689      5F7400
 7690              	.LASF55:
 7691 01a9 4170706C 		.ascii	"Applications_s\000"
 7691      69636174 
 7691      696F6E73 
 7691      5F7300
 7692              	.LASF127:
 7693 01b8 53747269 		.ascii	"StripLights_Ready\000"
 7693      704C6967 
 7693      6874735F 
 7693      52656164 
 7693      7900
 7694              	.LASF111:
 7695 01ca 436F6E66 		.ascii	"Config\000"
ARM GAS  C:\Users\matij\AppData\Local\Temp\ccfrwtxb.s 			page 160


 7695      696700
 7696              	.LASF53:
 7697 01d1 4E616D65 		.ascii	"Name\000"
 7697      00
 7698              	.LASF42:
 7699 01d6 42436F6D 		.ascii	"BComFrame_s\000"
 7699      4672616D 
 7699      655F7300 
 7700              	.LASF79:
 7701 01e2 53747269 		.ascii	"StripLights_Trigger\000"
 7701      704C6967 
 7701      6874735F 
 7701      54726967 
 7701      67657200 
 7702              	.LASF65:
 7703 01f6 53747269 		.ascii	"StripLights_HSVtoRGB\000"
 7703      704C6967 
 7703      6874735F 
 7703      48535674 
 7703      6F524742 
 7704              	.LASF52:
 7705 020b 54797065 		.ascii	"TypeIdentifier\000"
 7705      4964656E 
 7705      74696669 
 7705      657200
 7706              	.LASF124:
 7707 021a 47656E65 		.ascii	"Generated_Source\\PSoC5\\StripLights.c\000"
 7707      72617465 
 7707      645F536F 
 7707      75726365 
 7707      5C50536F 
 7708              	.LASF36:
 7709 023f 506F7274 		.ascii	"Port\000"
 7709      00
 7710              	.LASF80:
 7711 0244 53747269 		.ascii	"StripLights_DisplayClear\000"
 7711      704C6967 
 7711      6874735F 
 7711      44697370 
 7711      6C617943 
 7712              	.LASF40:
 7713 025d 536F7572 		.ascii	"Source\000"
 7713      636500
 7714              	.LASF28:
 7715 0264 41636B52 		.ascii	"AckReq\000"
 7715      657100
 7716              	.LASF57:
 7717 026b 476C6F62 		.ascii	"GlobalConfig_s\000"
 7717      616C436F 
 7717      6E666967 
 7717      5F7300
 7718              	.LASF23:
 7719 027a 63686172 		.ascii	"char\000"
 7719      00
 7720              	.LASF113:
 7721 027f 53747269 		.ascii	"StripLights_ledIndex\000"
 7721      704C6967 
ARM GAS  C:\Users\matij\AppData\Local\Temp\ccfrwtxb.s 			page 161


 7721      6874735F 
 7721      6C656449 
 7721      6E646578 
 7722              	.LASF116:
 7723 0294 53747269 		.ascii	"StripLights_Green_Shift\000"
 7723      704C6967 
 7723      6874735F 
 7723      47726565 
 7723      6E5F5368 
 7724              	.LASF97:
 7725 02ac 53747269 		.ascii	"StripLights_DrawRect\000"
 7725      704C6967 
 7725      6874735F 
 7725      44726177 
 7725      52656374 
 7726              	.LASF20:
 7727 02c1 75696E74 		.ascii	"uint16\000"
 7727      313600
 7728              	.LASF71:
 7729 02c8 696E6356 		.ascii	"incValue\000"
 7729      616C7565 
 7729      00
 7730              	.LASF15:
 7731 02d1 75696E74 		.ascii	"uint8_t\000"
 7731      385F7400 
 7732              	.LASF84:
 7733 02d9 53747269 		.ascii	"StripLights_Pixel\000"
 7733      704C6967 
 7733      6874735F 
 7733      50697865 
 7733      6C00
 7734              	.LASF99:
 7735 02eb 78446966 		.ascii	"xDiff\000"
 7735      6600
 7736              	.LASF120:
 7737 02f1 53747269 		.ascii	"StripLights_cisr_StartEx\000"
 7737      704C6967 
 7737      6874735F 
 7737      63697372 
 7737      5F537461 
 7738              	.LASF117:
 7739 030a 53747269 		.ascii	"StripLights_Blue_Shift\000"
 7739      704C6967 
 7739      6874735F 
 7739      426C7565 
 7739      5F536869 
 7740              	.LASF115:
 7741 0321 53747269 		.ascii	"StripLights_Red_Shift\000"
 7741      704C6967 
 7741      6874735F 
 7741      5265645F 
 7741      53686966 
 7742              	.LASF108:
 7743 0337 53747269 		.ascii	"StripLights_UseGammaCorrection\000"
 7743      704C6967 
 7743      6874735F 
 7743      55736547 
ARM GAS  C:\Users\matij\AppData\Local\Temp\ccfrwtxb.s 			page 162


 7743      616D6D61 
 7744              	.LASF46:
 7745 0356 42436F6D 		.ascii	"BCom_1_CallBackFunction\000"
 7745      5F315F43 
 7745      616C6C42 
 7745      61636B46 
 7745      756E6374 
 7746              	.LASF45:
 7747 036e 5061796C 		.ascii	"Payload\000"
 7747      6F616400 
 7748              	.LASF64:
 7749 0376 53747269 		.ascii	"StripLights_CISR\000"
 7749      704C6967 
 7749      6874735F 
 7749      43495352 
 7749      00
 7750              	.LASF41:
 7751 0387 50617261 		.ascii	"Parameter\000"
 7751      6D657465 
 7751      7200
 7752              	.LASF76:
 7753 0391 53747269 		.ascii	"StripLights_Start\000"
 7753      704C6967 
 7753      6874735F 
 7753      53746172 
 7753      7400
 7754              	.LASF12:
 7755 03a3 6C6F6E67 		.ascii	"long long int\000"
 7755      206C6F6E 
 7755      6720696E 
 7755      7400
 7756              	.LASF118:
 7757 03b1 67616D6D 		.ascii	"gamma\000"
 7757      6100
 7758              	.LASF94:
 7759 03b7 73746570 		.ascii	"stepx\000"
 7759      7800
 7760              	.LASF126:
 7761 03bd 5F737973 		.ascii	"_system_u\000"
 7761      74656D5F 
 7761      7500
 7762              	.LASF103:
 7763 03c7 61696E64 		.ascii	"aindex\000"
 7763      657800
 7764              	.LASF44:
 7765 03ce 4C656E67 		.ascii	"Lenght\000"
 7765      687400
 7766              	.LASF49:
 7767 03d5 48616E64 		.ascii	"Handle\000"
 7767      6C6500
 7768              	.LASF121:
 7769 03dc 53747269 		.ascii	"StripLights_fisr_StartEx\000"
 7769      704C6967 
 7769      6874735F 
 7769      66697372 
 7769      5F537461 
 7770              	.LASF21:
ARM GAS  C:\Users\matij\AppData\Local\Temp\ccfrwtxb.s 			page 163


 7771 03f5 75696E74 		.ascii	"uint32\000"
 7771      333200
 7772              	.LASF89:
 7773 03fc 53747269 		.ascii	"StripLights_DrawCircle\000"
 7773      704C6967 
 7773      6874735F 
 7773      44726177 
 7773      43697263 
 7774              	.LASF125:
 7775 0413 433A5C55 		.ascii	"C:\\Users\\matij\\source\\Workspaces\\Embedded\\PSo"
 7775      73657273 
 7775      5C6D6174 
 7775      696A5C73 
 7775      6F757263 
 7776 0440 435C4C69 		.ascii	"C\\Libraries\\Ontwikkeling\\BCom0.3.cydsn\000"
 7776      62726172 
 7776      6965735C 
 7776      4F6E7477 
 7776      696B6B65 
 7777              	.LASF25:
 7778 0467 6C6F6E67 		.ascii	"long double\000"
 7778      20646F75 
 7778      626C6500 
 7779              	.LASF16:
 7780 0473 75696E74 		.ascii	"uint16_t\000"
 7780      31365F74 
 7780      00
 7781              	.LASF128:
 7782 047c 53747269 		.ascii	"StripLights_Stop\000"
 7782      704C6967 
 7782      6874735F 
 7782      53746F70 
 7782      00
 7783              	.LASF29:
 7784 048d 4E61636B 		.ascii	"Nack\000"
 7784      00
 7785              	.LASF69:
 7786 0492 53747269 		.ascii	"StripLights_CLUT\000"
 7786      704C6967 
 7786      6874735F 
 7786      434C5554 
 7786      00
 7787              	.LASF68:
 7788 04a3 64696D4C 		.ascii	"dimLevel\000"
 7788      6576656C 
 7788      00
 7789              	.LASF32:
 7790 04ac 53797374 		.ascii	"System\000"
 7790      656D00
 7791              	.LASF4:
 7792 04b3 73686F72 		.ascii	"short int\000"
 7792      7420696E 
 7792      7400
 7793              	.LASF9:
 7794 04bd 6C6F6E67 		.ascii	"long int\000"
 7794      20696E74 
 7794      00
ARM GAS  C:\Users\matij\AppData\Local\Temp\ccfrwtxb.s 			page 164


 7795              	.LASF31:
 7796 04c6 50696E67 		.ascii	"Ping\000"
 7796      00
 7797              	.LASF109:
 7798 04cb 49544D5F 		.ascii	"ITM_RxBuffer\000"
 7798      52784275 
 7798      66666572 
 7798      00
 7799              	.LASF51:
 7800 04d8 4E657477 		.ascii	"Network_s\000"
 7800      6F726B5F 
 7800      7300
 7801              	.LASF75:
 7802 04e2 53747269 		.ascii	"StripLights_MemClear\000"
 7802      704C6967 
 7802      6874735F 
 7802      4D656D43 
 7802      6C656172 
 7803              	.LASF66:
 7804 04f7 636F6C6F 		.ascii	"color\000"
 7804      7200
 7805              	.LASF56:
 7806 04fd 4C697374 		.ascii	"List\000"
 7806      00
 7807              	.LASF91:
 7808 0502 6464465F 		.ascii	"ddF_x\000"
 7808      7800
 7809              	.LASF62:
 7810 0508 53747269 		.ascii	"StripLights_DimShift\000"
 7810      704C6967 
 7810      6874735F 
 7810      44696D53 
 7810      68696674 
 7811              	.LASF5:
 7812 051d 5F5F7569 		.ascii	"__uint8_t\000"
 7812      6E74385F 
 7812      7400
 7813              	.LASF119:
 7814 0527 53747269 		.ascii	"StripLights_SetFont\000"
 7814      704C6967 
 7814      6874735F 
 7814      53657446 
 7814      6F6E7400 
 7815              	.LASF85:
 7816 053b 53747269 		.ascii	"StripLights_HSV_Pixel\000"
 7816      704C6967 
 7816      6874735F 
 7816      4853565F 
 7816      50697865 
 7817              	.LASF72:
 7818 0551 47726565 		.ascii	"Green\000"
 7818      6E00
 7819              	.LASF60:
 7820 0557 50757441 		.ascii	"PutArray\000"
 7820      72726179 
 7820      00
 7821              	.LASF26:
ARM GAS  C:\Users\matij\AppData\Local\Temp\ccfrwtxb.s 			page 165


 7822 0560 73697A65 		.ascii	"sizetype\000"
 7822      74797065 
 7822      00
 7823              	.LASF11:
 7824 0569 6C6F6E67 		.ascii	"long unsigned int\000"
 7824      20756E73 
 7824      69676E65 
 7824      6420696E 
 7824      7400
 7825              	.LASF17:
 7826 057b 696E7433 		.ascii	"int32_t\000"
 7826      325F7400 
 7827              	.LASF33:
 7828 0583 62797465 		.ascii	"byteVal\000"
 7828      56616C00 
 7829              	.LASF112:
 7830 058b 53747269 		.ascii	"StripLights_ledArray\000"
 7830      704C6967 
 7830      6874735F 
 7830      6C656441 
 7830      72726179 
 7831              	.LASF90:
 7832 05a0 72616469 		.ascii	"radius\000"
 7832      757300
 7833              	.LASF3:
 7834 05a7 756E7369 		.ascii	"unsigned char\000"
 7834      676E6564 
 7834      20636861 
 7834      7200
 7835              	.LASF10:
 7836 05b5 5F5F7569 		.ascii	"__uint32_t\000"
 7836      6E743332 
 7836      5F7400
 7837              	.LASF123:
 7838 05c0 474E5520 		.ascii	"GNU C11 5.4.1 20160609 (release) [ARM/embedded-5-br"
 7838      43313120 
 7838      352E342E 
 7838      31203230 
 7838      31363036 
 7839 05f3 616E6368 		.ascii	"anch revision 237715] -mcpu=cortex-m3 -mthumb -g -O"
 7839      20726576 
 7839      6973696F 
 7839      6E203233 
 7839      37373135 
 7840 0626 73202D66 		.ascii	"s -ffunction-sections -ffat-lto-objects\000"
 7840      66756E63 
 7840      74696F6E 
 7840      2D736563 
 7840      74696F6E 
 7841              	.LASF86:
 7842 064e 636F6C6F 		.ascii	"colour\000"
 7842      757200
 7843              	.LASF82:
 7844 0655 53747269 		.ascii	"StripLights_RGBtoHSV\000"
 7844      704C6967 
 7844      6874735F 
 7844      52474274 
ARM GAS  C:\Users\matij\AppData\Local\Temp\ccfrwtxb.s 			page 166


 7844      6F485356 
 7845              	.LASF63:
 7846 066a 53747269 		.ascii	"StripLights_refreshComplete\000"
 7846      704C6967 
 7846      6874735F 
 7846      72656672 
 7846      65736843 
 7847              	.LASF104:
 7848 0686 6D617858 		.ascii	"maxX\000"
 7848      00
 7849              	.LASF105:
 7850 068b 6D617859 		.ascii	"maxY\000"
 7850      00
 7851              	.LASF58:
 7852 0690 4E657477 		.ascii	"Network\000"
 7852      6F726B00 
 7853              	.LASF92:
 7854 0698 6464465F 		.ascii	"ddF_y\000"
 7854      7900
 7855              	.LASF2:
 7856 069e 7369676E 		.ascii	"signed char\000"
 7856      65642063 
 7856      68617200 
 7857              	.LASF37:
 7858 06aa 4672616D 		.ascii	"FrameNr\000"
 7858      654E7200 
 7859              	.LASF83:
 7860 06b2 64656C74 		.ascii	"delta\000"
 7860      6100
 7861              	.LASF7:
 7862 06b8 73686F72 		.ascii	"short unsigned int\000"
 7862      7420756E 
 7862      7369676E 
 7862      65642069 
 7862      6E7400
 7863              	.LASF87:
 7864 06cb 53747269 		.ascii	"StripLights_ColorInc\000"
 7864      704C6967 
 7864      6874735F 
 7864      436F6C6F 
 7864      72496E63 
 7865              	.LASF107:
 7866 06e0 53747269 		.ascii	"StripLights_Done\000"
 7866      704C6967 
 7866      6874735F 
 7866      446F6E65 
 7866      00
 7867              	.LASF74:
 7868 06f1 53747269 		.ascii	"StripLights_SetBitShifts\000"
 7868      704C6967 
 7868      6874735F 
 7868      53657442 
 7868      69745368 
 7869              	.LASF19:
 7870 070a 75696E74 		.ascii	"uint8\000"
 7870      3800
 7871              	.LASF1:
ARM GAS  C:\Users\matij\AppData\Local\Temp\ccfrwtxb.s 			page 167


 7872 0710 646F7562 		.ascii	"double\000"
 7872      6C6500
 7873              	.LASF39:
 7874 0717 54617267 		.ascii	"Target\000"
 7874      657400
 7875              	.LASF54:
 7876 071e 4672616D 		.ascii	"FrameCounter\000"
 7876      65436F75 
 7876      6E746572 
 7876      00
 7877              	.LASF27:
 7878 072b 53747269 		.ascii	"StripLights_Event\000"
 7878      704C6967 
 7878      6874735F 
 7878      4576656E 
 7878      7400
 7879              		.ident	"GCC: (GNU Tools for ARM Embedded Processors) 5.4.1 20160609 (release) [ARM/embedded-5-bran
